 PhysXCooking_64

 Timestamp is 5c8bc5e6 (Fri Mar 15 11:33:58 2019)

 Preferred load address is 0000000180000000

 Start         Length     Name                   Class
 0001:00000000 00000640H .text$di                CODE
 0001:00000640 0002d490H .text$mn                CODE
 0001:0002dad0 00000012H .text$mn$00             CODE
 0001:0002dae2 00000081H .text$x                 CODE
 0002:00000000 000001b8H .idata$5                DATA
 0002:000001b8 00000010H .00cfg                  DATA
 0002:000001c8 00000008H .CRT$XCA                DATA
 0002:000001d0 000001e0H .CRT$XCU                DATA
 0002:000003b0 00000008H .CRT$XCZ                DATA
 0002:000003b8 00000008H .CRT$XIA                DATA
 0002:000003c0 00000008H .CRT$XIZ                DATA
 0002:000003c8 00000008H .CRT$XPA                DATA
 0002:000003d0 00000008H .CRT$XPZ                DATA
 0002:000003d8 00000008H .CRT$XTA                DATA
 0002:000003e0 00000010H .CRT$XTZ                DATA
 0002:000003e8 00000000H .gfids$y                DATA
 0002:000003f0 00002438H .rdata                  DATA
 0002:00002828 00000074H .rdata$r                DATA
 0002:0000289c 000003acH .rdata$zzzdbg           DATA
 0002:00002c48 00000008H .rtc$IAA                DATA
 0002:00002c50 00000008H .rtc$IZZ                DATA
 0002:00002c58 00000008H .rtc$TAA                DATA
 0002:00002c60 00000008H .rtc$TZZ                DATA
 0002:00002c68 00003590H .xdata                  DATA
 0002:000061f8 00000040H .didat$2                DATA
 0002:00006238 00000020H .didat$3                DATA
 0002:00006258 00000210H .didat$4                DATA
 0002:00006468 00000cf0H .didat$6                DATA
 0002:00007158 00000218H .didat$7                DATA
 0002:00007370 00001d10H .edata                  DATA
 0002:00009080 00000078H .idata$2                DATA
 0002:000090f8 00000018H .idata$3                DATA
 0002:00009110 000001b8H .idata$4                DATA
 0002:000092c8 00000442H .idata$6                DATA
 0003:00000000 00000058H .data                   DATA
 0003:00000058 00000328H .data$r                 DATA
 0003:00000380 00000210H .didat$5                DATA
 0003:00000590 00000490H .bss                    DATA
 0004:00000000 00002058H .pdata                  DATA
 0005:00000000 000006e0H _RDATA                  DATA
 0006:00000000 000000a0H .rsrc$01                DATA
 0006:000000a0 000004b0H .rsrc$02                DATA

  Address         Publics by Value              Rva+Base               Lib:Object

 0000:00000000       __enclave_config           0000000000000000     <absolute>
 0000:00000000       __hybrid_auxiliary_iat     0000000000000000     <absolute>
 0000:00000000       __guard_iat_table          0000000000000000     <absolute>
 0000:00000000       __hybrid_code_map          0000000000000000     <absolute>
 0000:00000000       ___safe_se_handler_count   0000000000000000     <absolute>
 0000:00000000       ___safe_se_handler_table   0000000000000000     <absolute>
 0000:00000000       __dynamic_value_reloc_table 0000000000000000     <absolute>
 0000:00000000       __guard_longjmp_count      0000000000000000     <absolute>
 0000:00000000       __volatile_metadata        0000000000000000     <absolute>
 0000:00000000       __guard_fids_table         0000000000000000     <absolute>
 0000:00000000       __hybrid_code_map_count    0000000000000000     <absolute>
 0000:00000000       __guard_iat_count          0000000000000000     <absolute>
 0000:00000000       __guard_longjmp_table      0000000000000000     <absolute>
 0000:00000000       __guard_fids_count         0000000000000000     <absolute>
 0000:00000100       __guard_flags              0000000000000100     <absolute>
 0000:00000000       __ImageBase                0000000180000000     <linker-defined>
 0001:00000640       ?ComputeNbBoundaryEdges@AdjTriangle@physx@@QEBAIXZ 0000000180001640 f   Adjacencies.obj
 0001:00000690       ?ComputeNbNeighbors@AdjTriangle@physx@@QEBAIXZ 0000000180001690 f   Adjacencies.obj
 0001:000006e0       ?HasNeighbor@AdjTriangle@physx@@QEBA_NIPEAI@Z 00000001800016e0 f   Adjacencies.obj
 0001:00000750       ?Flip@AdjTriangle@physx@@QEAAXXZ 0000000180001750 f   Adjacencies.obj
 0001:00000770       ??0Adjacencies@physx@@QEAA@XZ 0000000180001770 f   Adjacencies.obj
 0001:00000790       ??1Adjacencies@physx@@QEAA@XZ 0000000180001790 f   Adjacencies.obj
 0001:00000800       ?Load@Adjacencies@physx@@QEAA_NAEAVPxInputStream@2@@Z 0000000180001800 f   Adjacencies.obj
 0001:000008e0       ?ComputeNbBoundaryEdges@Adjacencies@physx@@QEBAIXZ 00000001800018e0 f   Adjacencies.obj
 0001:00000960       ?GetBoundaryVertices@Adjacencies@physx@@QEBA_NIPEA_NPEBU?$TriangleT@I@Gu@2@@Z 0000000180001960 f   Adjacencies.obj
 0001:00000ac0       ?MakeLastRef@Adjacencies@physx@@QEAA_NAEAVAdjTriangle@2@IPEAU?$TriangleT@I@Gu@2@@Z 0000000180001ac0 f   Adjacencies.obj
 0001:00000d10       ?AssignNewEdgeCode@Adjacencies@physx@@AEAAXIE@Z 0000000180001d10 f   Adjacencies.obj
 0001:00000d60       ??0AdjacenciesBuilder@physx@@QEAA@XZ 0000000180001d60 f   Adjacencies.obj
 0001:00000d80       ??1AdjacenciesBuilder@physx@@QEAA@XZ 0000000180001d80 f   Adjacencies.obj
 0001:00000d90       ?Init@AdjacenciesBuilder@physx@@QEAA_NAEBUADJACENCIESCREATE@2@@Z 0000000180001d90 f   Adjacencies.obj
 0001:00001110       ??$?_UV?$ReflectionAllocator@VAdjTriangle@physx@@@shdfnd@physx@@@UserAllocated@shdfnd@physx@@SAPEAX_KV?$ReflectionAllocator@VAdjTriangle@physx@@@12@PEBDH@Z 0000000180002110 f i Adjacencies.obj
 0001:000011b0       ??0AdjEdge@@QEAA@XZ        00000001800021b0 f i Adjacencies.obj
 0001:000011c0       ??0AdjTriangle@physx@@QEAA@XZ 00000001800021c0 f i Adjacencies.obj
 0001:000011d0       ??0Allocator@shdfnd@physx@@QEAA@PEBD@Z 00000001800021d0 f i Adjacencies.obj
 0001:000011e0       ??0PxFoundation@physx@@QEAA@AEBV01@@Z 00000001800021e0 f i Adjacencies.obj
 0001:000011f0       ??0PxFoundation@physx@@QEAA@XZ 00000001800021f0 f i Adjacencies.obj
 0001:00001200       ??1AdjEdge@@QEAA@XZ        0000000180002200 f i Adjacencies.obj
 0001:00001210       ??1AdjTriangle@physx@@QEAA@XZ 0000000180002210 f i Adjacencies.obj
 0001:00001220       ??1PxFoundation@physx@@MEAA@XZ 0000000180002220 f i Adjacencies.obj
 0001:00001230       ??4Allocator@shdfnd@physx@@QEAAAEAV012@$$QEAV012@@Z 0000000180002230 f i Adjacencies.obj
 0001:00001240       ??4Allocator@shdfnd@physx@@QEAAAEAV012@AEBV012@@Z 0000000180002240 f i Adjacencies.obj
 0001:00001250       ??4MutexImpl@shdfnd@physx@@QEAAAEAV012@AEBV012@@Z 0000000180002250 f i Adjacencies.obj
 0001:00001260       ??4PxFoundation@physx@@QEAAAEAV01@AEBV01@@Z 0000000180002260 f i Adjacencies.obj
 0001:00001270       ??_EAdjEdge@@QEAAPEAXI@Z   0000000180002270 f i Adjacencies.obj
 0001:000012f0       ??_EAdjTriangle@physx@@QEAAPEAXI@Z 00000001800022f0 f i Adjacencies.obj
 0001:00001370       ??_EPxFoundation@physx@@MEAAPEAXI@Z 0000000180002370 f i Adjacencies.obj
 0001:00001400       ??_FAllocator@shdfnd@physx@@QEAAXXZ 0000000180002400 f i Adjacencies.obj
 0001:00001410       ??_FNamedAllocator@shdfnd@physx@@QEAAXXZ 0000000180002410 f i Adjacencies.obj
 0001:00001420       ??_GPxFoundation@physx@@MEAAPEAXI@Z 0000000180002420 f i Adjacencies.obj
 0001:00001450       ??_H@YAXPEAX_K1P6APEAX0@Z@Z 0000000180002450 f i Adjacencies.obj
 0001:000014a0       ??_I@YAXPEAX_K1P6AX0@Z@Z   00000001800024a0 f i Adjacencies.obj
 0001:00001760       ?GetNbHits@RadixSort@Cm@physx@@QEBAIXZ 0000000180002760 f i Adjacencies.obj
 0001:00001770       ?GetNbTotalCalls@RadixSort@Cm@physx@@QEBAIXZ 0000000180002770 f i Adjacencies.obj
 0001:00001780       ?GetRanks@RadixSort@Cm@physx@@QEBAPEBIXZ 0000000180002780 f i Adjacencies.obj
 0001:00001790       ?GetRecyclable@RadixSort@Cm@physx@@QEBAPEAIXZ 0000000180002790 f i Adjacencies.obj
 0001:000019e0       ?__empty_global_delete@@YAXPEAX@Z 00000001800029e0 f i Adjacencies.obj
 0001:000019f0       ?__empty_global_delete@@YAXPEAX_K@Z 00000001800029f0 f i Adjacencies.obj
 0001:00001a00       ?getAllocator@Foundation@shdfnd@physx@@QEAAAEAVPxAllocatorCallback@3@XZ 0000000180002a00 f i Adjacencies.obj
 0001:00001a10       ?getAllocatorCallback@Foundation@shdfnd@physx@@UEAAAEAVPxAllocatorCallback@3@XZ 0000000180002a10 f i Adjacencies.obj
 0001:00001a20       ?getErrorCallback@Foundation@shdfnd@physx@@UEAAAEAVPxErrorCallback@3@XZ 0000000180002a20 f i Adjacencies.obj
 0001:00001a30       ?getErrorLevel@Foundation@shdfnd@physx@@UEBA?AW4Enum@PxErrorCode@3@XZ 0000000180002a30 f i Adjacencies.obj
 0001:00001a40       ?getInternalErrorCallback@Foundation@shdfnd@physx@@QEAAAEAVPxErrorCallback@3@XZ 0000000180002a40 f i Adjacencies.obj
 0001:00001a50       ?getNamedAllocMap@Foundation@shdfnd@physx@@QEAAAEAV?$HashMap@PEBVNamedAllocator@shdfnd@physx@@PEBDU?$Hash@PEBVNamedAllocator@shdfnd@physx@@@23@VNonTrackingAllocator@23@@23@XZ 0000000180002a50 f i Adjacencies.obj
 0001:00001a60       ?getNamedAllocMutex@Foundation@shdfnd@physx@@QEAAAEAV?$MutexT@VAllocator@shdfnd@physx@@@23@XZ 0000000180002a60 f i Adjacencies.obj
 0001:00001a70       ?getReportAllocationNames@Foundation@shdfnd@physx@@UEBA_NXZ 0000000180002a70 f i Adjacencies.obj
 0001:00001a80       ?getTempAllocFreeTable@Foundation@shdfnd@physx@@QEAAAEAV?$Array@PEATTempAllocatorChunk@shdfnd@physx@@VAllocator@23@@23@XZ 0000000180002a80 f i Adjacencies.obj
 0001:00001a90       ?getTempAllocMutex@Foundation@shdfnd@physx@@QEAAAEAV?$MutexT@VAllocator@shdfnd@physx@@@23@XZ 0000000180002a90 f i Adjacencies.obj
 0001:00001aa0       ?invalidateRanks@RadixSort@Cm@physx@@QEAAXXZ 0000000180002aa0 f i Adjacencies.obj
 0001:00001ab0       ?setErrorLevel@Foundation@shdfnd@physx@@UEAAXW4Enum@PxErrorCode@3@@Z 0000000180002ab0 f i Adjacencies.obj
 0001:00001ac0       ?setReportAllocationNames@Foundation@shdfnd@physx@@UEAAX_N@Z 0000000180002ac0 f i Adjacencies.obj
 0001:00001ad0       PxCreateCooking            0000000180002ad0 f   Cooking.obj
 0001:00001bc0       ?release@Cooking@physx@@UEAAXXZ 0000000180002bc0 f   Cooking.obj
 0001:00001bf0       ?setParams@Cooking@physx@@UEAAXAEBUPxCookingParams@2@@Z 0000000180002bf0 f   Cooking.obj
 0001:00001c50       ?getParams@Cooking@physx@@UEBAAEBUPxCookingParams@2@XZ 0000000180002c50 f   Cooking.obj
 0001:00001c60       ?platformMismatch@Cooking@physx@@UEBA_NXZ 0000000180002c60 f   Cooking.obj
 0001:00001c70       ?cookTriangleMesh@Cooking@physx@@UEBA_NAEBVPxTriangleMeshDesc@2@AEAVPxOutputStream@2@PEAW4Enum@PxTriangleMeshCookingResult@2@@Z 0000000180002c70 f   Cooking.obj
 0001:00001db0       ?createTriangleMesh@Cooking@physx@@UEBAPEAVPxTriangleMesh@2@AEBVPxTriangleMeshDesc@2@AEAVPxPhysicsInsertionCallback@2@PEAW4Enum@PxTriangleMeshCookingResult@2@@Z 0000000180002db0 f   Cooking.obj
 0001:00001f10       ?validateTriangleMesh@Cooking@physx@@UEBA_NAEBVPxTriangleMeshDesc@2@@Z 0000000180002f10 f   Cooking.obj
 0001:00002020       ?cookConvexMesh@Cooking@physx@@UEBA_NAEBVPxConvexMeshDesc@2@AEAVPxOutputStream@2@PEAW4Enum@PxConvexMeshCookingResult@2@@Z 0000000180003020 f   Cooking.obj
 0001:00002210       ?createConvexMesh@Cooking@physx@@UEBAPEAVPxConvexMesh@2@AEBVPxConvexMeshDesc@2@AEAVPxPhysicsInsertionCallback@2@PEAW4Enum@PxConvexMeshCookingResult@2@@Z 0000000180003210 f   Cooking.obj
 0001:000024a0       ?validateConvexMesh@Cooking@physx@@UEBA_NAEBVPxConvexMeshDesc@2@@Z 00000001800034a0 f   Cooking.obj
 0001:00002510       ?computeHullPolygons@Cooking@physx@@UEBA_NAEBVPxSimpleTriangleMesh@2@AEAVPxAllocatorCallback@2@AEAIAEAPEAVPxVec3@2@2AEAPEAI2AEAPEAUPxHullPolygon@2@@Z 0000000180003510 f   Cooking.obj
 0001:000026f0       ?cookHeightField@Cooking@physx@@UEBA_NAEBVPxHeightFieldDesc@2@AEAVPxOutputStream@2@@Z 00000001800036f0 f   Cooking.obj
 0001:000027f0       ?createHeightField@Cooking@physx@@UEBAPEAVPxHeightField@2@AEBVPxHeightFieldDesc@2@AEAVPxPhysicsInsertionCallback@2@@Z 00000001800037f0 f   Cooking.obj
 0001:000029c0       ?cookBVHStructure@Cooking@physx@@UEBA_NAEBVPxBVHStructureDesc@2@AEAVPxOutputStream@2@@Z 00000001800039c0 f   Cooking.obj
 0001:00002aa0       ?createBVHStructure@Cooking@physx@@UEBAPEAVPxBVHStructure@2@AEBVPxBVHStructureDesc@2@AEAVPxPhysicsInsertionCallback@2@@Z 0000000180003aa0 f   Cooking.obj
 0001:00002b80       ?cookConvexMeshInternal@Cooking@physx@@AEBA_NAEBVPxConvexMeshDesc@2@AEAVConvexMeshBuilder@2@PEAVConvexHullLib@2@PEAW4Enum@PxConvexMeshCookingResult@2@@Z 0000000180003b80 f   Cooking.obj
 0001:00002e30       ?cookTriangleMesh@Cooking@physx@@AEBA_NAEAVTriangleMeshBuilder@2@AEBVPxTriangleMeshDesc@2@AEAVPxOutputStream@2@PEAW4Enum@PxTriangleMeshCookingResult@2@@Z 0000000180003e30 f   Cooking.obj
 0001:00002ed0       ?createTriangleMesh@Cooking@physx@@AEBAPEAVPxTriangleMesh@2@AEAVTriangleMeshBuilder@2@AEBVPxTriangleMeshDesc@2@AEAVPxPhysicsInsertionCallback@2@PEAW4Enum@PxTriangleMeshCookingResult@2@@Z 0000000180003ed0 f   Cooking.obj
 0001:00002f80       ??0ConvexMesh@Gu@physx@@QEAA@V?$PxFlags@W4Enum@PxBaseFlag@physx@@G@2@@Z 0000000180003f80 f i Cooking.obj
 0001:00002fd0       ??0DebugText@Cm@physx@@QEAA@$$QEAU012@@Z 0000000180003fd0 f i Cooking.obj
 0001:000030b0       ??0DebugText@Cm@physx@@QEAA@AEBU012@@Z 00000001800040b0 f i Cooking.obj
 0001:00003190       ??0HeightFieldData@Gu@physx@@QEAA@$$QEAU012@@Z 0000000180004190 f i Cooking.obj
 0001:000031f0       ??0HeightFieldData@Gu@physx@@QEAA@AEBU012@@Z 00000001800041f0 f i Cooking.obj
 0001:00003250       ??0HeightFieldData@Gu@physx@@QEAA@W4PxEMPTY@2@@Z 0000000180004250 f i Cooking.obj
 0001:00003260       ??0HeightFieldData@Gu@physx@@QEAA@XZ 0000000180004260 f i Cooking.obj
 0001:00003270       ??0RenderOutput@Cm@physx@@QEAA@AEAVRenderBuffer@12@@Z 0000000180004270 f i Cooking.obj
 0001:000032c0       ??0RenderOutput@Cm@physx@@QEAA@AEBV012@@Z 00000001800042c0 f i Cooking.obj
 0001:00003360       ??1HeightFieldData@Gu@physx@@QEAA@XZ 0000000180004360 f i Cooking.obj
 0001:00003370       ??1PxBase@physx@@MEAA@XZ   0000000180004370 f i Cooking.obj
 0001:00003380       ??1PxConvexMesh@physx@@MEAA@XZ 0000000180004380 f i Cooking.obj
 0001:00003390       ??1PxCooking@physx@@MEAA@XZ 0000000180004390 f i Cooking.obj
 0001:000033a0       ??1PxHeightField@physx@@MEAA@XZ 00000001800043a0 f i Cooking.obj
 0001:000033b0       ??1RefCountable@Cm@physx@@UEAA@XZ 00000001800043b0 f i Cooking.obj
 0001:000033c0       ??4DebugText@Cm@physx@@QEAAAEAU012@$$QEAU012@@Z 00000001800043c0 f i Cooking.obj
 0001:00003430       ??4DebugText@Cm@physx@@QEAAAEAU012@AEBU012@@Z 0000000180004430 f i Cooking.obj
 0001:000034a0       ??4FPUGuard@shdfnd@physx@@QEAAAEAV012@AEBV012@@Z 00000001800044a0 f i Cooking.obj
 0001:000034c0       ??4HeightFieldData@Gu@physx@@QEAAAEAU012@$$QEAU012@@Z 00000001800044c0 f i Cooking.obj
 0001:00003520       ??4HeightFieldData@Gu@physx@@QEAAAEAU012@AEBU012@@Z 0000000180004520 f i Cooking.obj
 0001:00003580       ??_EConvexMesh@Gu@physx@@UEAAPEAXI@Z 0000000180004580 f i Cooking.obj
 0001:0000368c       ??_EConvexMesh@Gu@physx@@WBA@EAAPEAXI@Z 000000018000468c f i Cooking.obj
 0001:000036a0       ??_EPxConvexMesh@physx@@MEAAPEAXI@Z 00000001800046a0 f i Cooking.obj
 0001:00003730       ??_ECooking@physx@@UEAAPEAXI@Z 0000000180004730 f i Cooking.obj
 0001:00003730       ??_GCooking@physx@@UEAAPEAXI@Z 0000000180004730 f i Cooking.obj
 0001:00003780       ??_EPxBase@physx@@MEAAPEAXI@Z 0000000180004780 f i Cooking.obj
 0001:00003780       ??_GPxBase@physx@@MEAAPEAXI@Z 0000000180004780 f i Cooking.obj
 0001:000037b0       ??_EPxCooking@physx@@MEAAPEAXI@Z 00000001800047b0 f i Cooking.obj
 0001:000037b0       ??_GPxCooking@physx@@MEAAPEAXI@Z 00000001800047b0 f i Cooking.obj
 0001:000037e0       ??_GRefCountable@Cm@physx@@UEAAPEAXI@Z 00000001800047e0 f i Cooking.obj
 0001:000037e0       ??_ERefCountable@Cm@physx@@UEAAPEAXI@Z 00000001800047e0 f i Cooking.obj
 0001:00003810       ?copy@?$Array@UPxDebugLine@physx@@VNamedAllocator@shdfnd@2@@shdfnd@physx@@KAXPEAUPxDebugLine@3@0PEBU43@@Z 0000000180004810 f i Cooking.obj
 0001:000039c0       ?getConcreteTypeName@PxConvexMesh@physx@@UEBAPEBDXZ 00000001800049c0 f i Cooking.obj
 0001:000039d0       ?getConcreteTypeName@PxHeightField@physx@@UEBAPEBDXZ 00000001800049d0 f i Cooking.obj
 0001:000039e0       ?getConvexEdgeThreshold@HeightField@Gu@physx@@UEBAMXZ 00000001800049e0 f i Cooking.obj
 0001:000039f0       ?getFlags@HeightField@Gu@physx@@UEBA?AV?$PxFlags@W4Enum@PxHeightFieldFlag@physx@@G@3@XZ 00000001800049f0 f i Cooking.obj
 0001:00003a00       ?getFormat@HeightField@Gu@physx@@UEBA?AW4Enum@PxHeightFieldFormat@3@XZ 0000000180004a00 f i Cooking.obj
 0001:00003a10       ?getHeight@HeightField@Gu@physx@@UEBAMMM@Z 0000000180004a10 f i Cooking.obj
 0001:00003a50       ?getHeightInternal2@HeightField@Gu@physx@@QEBAMIMM@Z 0000000180004a50 f i Cooking.obj
 0001:00003bc0       ?getIndexBuffer@ConvexMesh@Gu@physx@@UEBAPEBEXZ 0000000180004bc0 f i Cooking.obj
 0001:00003c00       ?getNbColumns@HeightField@Gu@physx@@UEBAIXZ 0000000180004c00 f i Cooking.obj
 0001:00003c10       ?getNbPolygons@ConvexMesh@Gu@physx@@UEBAIXZ 0000000180004c10 f i Cooking.obj
 0001:00003c20       ?getNbRows@HeightField@Gu@physx@@UEBAIXZ 0000000180004c20 f i Cooking.obj
 0001:00003c30       ?getNbVertices@ConvexMesh@Gu@physx@@UEBAIXZ 0000000180004c30 f i Cooking.obj
 0001:00003c40       ?getPaddedBounds@HeightFieldData@Gu@physx@@QEBAAEBVCenterExtentsPadded@23@XZ 0000000180004c40 f i Cooking.obj
 0001:00003c50       ?getSample@HeightField@Gu@physx@@UEBAAEBUPxHeightFieldSample@3@II@Z 0000000180004c50 f i Cooking.obj
 0001:00003c60       ?getSampleStride@HeightField@Gu@physx@@UEBAIXZ 0000000180004c60 f i Cooking.obj
 0001:00003c70       ?getTimestamp@HeightField@Gu@physx@@UEBAIXZ 0000000180004c70 f i Cooking.obj
 0001:00003c80       ?getTriangleMaterialIndex@HeightField@Gu@physx@@UEBAGI@Z 0000000180004c80 f i Cooking.obj
 0001:00003cb0       ?getTriangleNormal@HeightField@Gu@physx@@UEBA?AVPxVec3@3@I@Z 0000000180004cb0 f i Cooking.obj
 0001:00003db0       ?getVertices@ConvexMesh@Gu@physx@@UEBAPEBVPxVec3@3@XZ 0000000180004db0 f i Cooking.obj
 0001:00003dd0       ?isKindOf@PxBase@physx@@MEBA_NPEBD@Z 0000000180004dd0 f i Cooking.obj
 0001:00003e00       ?isKindOf@PxConvexMesh@physx@@MEBA_NPEBD@Z 0000000180004e00 f i Cooking.obj
 0001:00003e50       ?isKindOf@PxHeightField@physx@@MEBA_NPEBD@Z 0000000180004e50 f i Cooking.obj
 0001:00003ea0       ?isReleasable@PxBase@physx@@UEBA_NXZ 0000000180004ea0 f i Cooking.obj
 0001:00003eb0       ?onRefCountZero@RefCountable@Cm@physx@@UEAAXXZ 0000000180004eb0 f i Cooking.obj
 0001:00003ed0       ?outputSegment@RenderOutput@Cm@physx@@QEAAXAEBVPxVec3@3@0@Z 0000000180004ed0 f i Cooking.obj
 0001:00003f90       ?recreate@?$Array@UPxDebugLine@physx@@VNamedAllocator@shdfnd@2@@shdfnd@physx@@IEAAXI@Z 0000000180004f90 f i Cooking.obj
 0001:00004030       ?requiresObjects@ConvexMesh@Gu@physx@@UEAAXAEAVPxProcessPxBaseCallback@3@@Z 0000000180005030 f i Cooking.obj
 0001:00004040       ?reserveSegments@RenderOutput@Cm@physx@@QEAAPEAUPxDebugLine@3@I@Z 0000000180005040 f i Cooking.obj
 0001:000040b0       ??0ReducedVertexCloud@physx@@QEAA@PEBVPxVec3@1@I@Z 00000001800050b0 f   CookingUtils.obj
 0001:000040d0       ??1ReducedVertexCloud@physx@@QEAA@XZ 00000001800050d0 f   CookingUtils.obj
 0001:000040e0       ?Clean@ReducedVertexCloud@physx@@QEAAAEAV12@XZ 00000001800050e0 f   CookingUtils.obj
 0001:00004150       ?Reduce@ReducedVertexCloud@physx@@QEAA_NPEAUREDUCEDCLOUD@2@@Z 0000000180005150 f   CookingUtils.obj
 0001:00004460       ??0EdgeList@Gu@physx@@QEAA@XZ 0000000180005460 f   EdgeList.obj
 0001:00004480       ??1EdgeList@Gu@physx@@QEAA@XZ 0000000180005480 f   EdgeList.obj
 0001:00004530       ?load@EdgeList@Gu@physx@@QEAA_NAEAVPxInputStream@3@@Z 0000000180005530 f   EdgeList.obj
 0001:00004740       ??0EdgeListBuilder@Gu@physx@@QEAA@XZ 0000000180005740 f   EdgeList.obj
 0001:00004760       ??1EdgeListBuilder@Gu@physx@@QEAA@XZ 0000000180005760 f   EdgeList.obj
 0001:00004770       ?init@EdgeListBuilder@Gu@physx@@QEAA_NAEBUEDGELISTCREATE@23@@Z 0000000180005770 f   EdgeList.obj
 0001:000048b0       ?createFacesToEdges@EdgeListBuilder@Gu@physx@@AEAA_NIPEBIPEBG@Z 00000001800058b0 f   EdgeList.obj
 0001:00004d10       ?createEdgesToFaces@EdgeListBuilder@Gu@physx@@AEAA_NIPEBIPEBG@Z 0000000180005d10 f   EdgeList.obj
 0001:00004f60       ?computeActiveEdges@EdgeListBuilder@Gu@physx@@AEAA_NIPEBIPEBGPEBVPxVec3@3@M@Z 0000000180005f60 f   EdgeList.obj
 0001:00006520       ??$?_UI@@YAPEAX_KV?$ReflectionAllocator@I@shdfnd@physx@@PEBDH@Z 0000000180007520 f i EdgeList.obj
 0001:000065c0       ??0PxVec3@physx@@QEAA@XZ   00000001800075c0 f i EdgeList.obj
 0001:00006620       ??0MeshCleaner@physx@@QEAA@IPEBVPxVec3@1@IPEBIM@Z 0000000180007620 f   MeshCleaner.obj
 0001:00006fd0       ??1MeshCleaner@physx@@QEAA@XZ 0000000180007fd0 f   MeshCleaner.obj
 0001:00007060       ?createQuantizer@physx@@YAPEAVQuantizer@1@XZ 0000000180008060 f   Quantizer.obj
 0001:00007180       ?kmeans_cluster3d@@YAIPEBVPxVec3@physx@@IIPEAV12@PEAIMM@Z 0000000180008180 f   Quantizer.obj
 0001:00007190       ??$kmeans_cluster@VPxVec3@physx@@M@@YAIPEBVPxVec3@physx@@IIPEAV01@PEAIMM@Z 0000000180008190 f i Quantizer.obj
 0001:00007a70       ??1Quantizer@physx@@MEAA@XZ 0000000180008a70 f i Quantizer.obj
 0001:00007a80       ??1QuantizerImpl@@EEAA@XZ  0000000180008a80 f i Quantizer.obj
 0001:00007b00       ??_GQuantizer@physx@@MEAAPEAXI@Z 0000000180008b00 f i Quantizer.obj
 0001:00007b00       ??_EQuantizer@physx@@MEAAPEAXI@Z 0000000180008b00 f i Quantizer.obj
 0001:00007b30       ??_EQuantizerImpl@@EEAAPEAXI@Z 0000000180008b30 f i Quantizer.obj
 0001:00007b30       ??_GQuantizerImpl@@EEAAPEAXI@Z 0000000180008b30 f i Quantizer.obj
 0001:00007c00       ?getDenormalizeCenter@QuantizerImpl@@UEBAAEBVPxVec3@physx@@XZ 0000000180008c00 f i Quantizer.obj
 0001:00007c10       ?getDenormalizeScale@QuantizerImpl@@UEBAAEBVPxVec3@physx@@XZ 0000000180008c10 f i Quantizer.obj
 0001:00007c20       ?growAndPushBack@?$Array@VPxVec3@physx@@VNamedAllocator@shdfnd@2@@shdfnd@physx@@IEAAAEAVPxVec3@3@AEBV43@@Z 0000000180008c20 f i Quantizer.obj
 0001:00007db0       ?kmeansQuantize3D@QuantizerImpl@@UEAAPEBVPxVec3@physx@@IPEBV23@I_NIAEAI@Z 0000000180008db0 f i Quantizer.obj
 0001:00008050       ?normalizeInput@QuantizerImpl@@AEAAXIPEBVPxVec3@physx@@I@Z 0000000180009050 f i Quantizer.obj
 0001:00008490       ?release@QuantizerImpl@@UEAAXXZ 0000000180009490 f i Quantizer.obj
 0001:000084b0       ??0BVHStructureBuilder@physx@@QEAA@XZ 00000001800094b0 f   BVHStructureBuilder.obj
 0001:000084d0       ??1BVHStructureBuilder@physx@@QEAA@XZ 00000001800094d0 f   BVHStructureBuilder.obj
 0001:00008560       ?loadFromDesc@BVHStructureBuilder@physx@@QEAA_NAEBVPxBVHStructureDesc@2@@Z 0000000180009560 f   BVHStructureBuilder.obj
 0001:000088c0       ?save@BVHStructureBuilder@physx@@QEBA_NAEAVPxOutputStream@2@_N@Z 00000001800098c0 f   BVHStructureBuilder.obj
 0001:00008a50       ?moveData@BVHStructureBuilder@physx@@QEAAXAEAUBVHStructureData@Gu@2@@Z 0000000180009a50 f   BVHStructureBuilder.obj
 0001:00008a90       ?flatten@@YAXAEBVNodeAllocator@Gu@physx@@PEAUBVHNode@23@@Z 0000000180009a90 f   BVHStructureBuilder.obj
 0001:00008c40       ??$copy@VNamedAllocator@shdfnd@physx@@@?$Array@USlab@NodeAllocator@Gu@physx@@VNamedAllocator@shdfnd@4@@shdfnd@physx@@IEAAXAEBV012@@Z 0000000180009c40 f i BVHStructureBuilder.obj
 0001:00008d00       ??0AABBTreeBuildNode@Gu@physx@@QEAA@AEBV012@@Z 0000000180009d00 f i BVHStructureBuilder.obj
 0001:00008d40       ??0AABBTreeBuildNode@Gu@physx@@QEAA@XZ 0000000180009d40 f i BVHStructureBuilder.obj
 0001:00008d50       ??0AABBTreeBuildParams@Gu@physx@@QEAA@IIPEBVPxBounds3@2@@Z 0000000180009d50 f i BVHStructureBuilder.obj
 0001:00008d70       ??0BuildStats@Gu@physx@@QEAA@XZ 0000000180009d70 f i BVHStructureBuilder.obj
 0001:00008d80       ??0NodeAllocator@Gu@physx@@QEAA@AEBV012@@Z 0000000180009d80 f i BVHStructureBuilder.obj
 0001:00008df0       ??1AABBTreeBuildNode@Gu@physx@@QEAA@XZ 0000000180009df0 f i BVHStructureBuilder.obj
 0001:00008e00       ??1AABBTreeBuildParams@Gu@physx@@QEAA@XZ 0000000180009e00 f i BVHStructureBuilder.obj
 0001:00008e60       ??4AABBTreeBuildNode@Gu@physx@@QEAAAEAV012@AEBV012@@Z 0000000180009e60 f i BVHStructureBuilder.obj
 0001:00008ea0       ??4AABBTreeBuildParams@Gu@physx@@QEAAAEAV012@AEBV012@@Z 0000000180009ea0 f i BVHStructureBuilder.obj
 0001:00008ec0       ??4BuildStats@Gu@physx@@QEAAAEAU012@$$QEAU012@@Z 0000000180009ec0 f i BVHStructureBuilder.obj
 0001:00008ed0       ??4BuildStats@Gu@physx@@QEAAAEAU012@AEBU012@@Z 0000000180009ed0 f i BVHStructureBuilder.obj
 0001:00008ee0       ??4NodeAllocator@Gu@physx@@QEAAAEAV012@AEBV012@@Z 0000000180009ee0 f i BVHStructureBuilder.obj
 0001:00008f90       ??_FAABBTreeBuildParams@Gu@physx@@QEAAXXZ 0000000180009f90 f i BVHStructureBuilder.obj
 0001:00008fb0       ?__global_array_delete@@YAXPEAX@Z 0000000180009fb0 f i BVHStructureBuilder.obj
 0001:00008fc0       ?__global_array_delete@@YAXPEAX_K@Z 0000000180009fc0 f i BVHStructureBuilder.obj
 0001:00008fd0       ?__global_delete@@YAXPEAX@Z 0000000180009fd0 f i BVHStructureBuilder.obj
 0001:00008fe0       ?__global_delete@@YAXPEAX_K@Z 0000000180009fe0 f i BVHStructureBuilder.obj
 0001:00008ff0       ?getAABB@AABBTreeBuildNode@Gu@physx@@QEBAAEBVPxBounds3@3@XZ 0000000180009ff0 f i BVHStructureBuilder.obj
 0001:00009000       ?getCount@BuildStats@Gu@physx@@QEBAIXZ 000000018000a000 f i BVHStructureBuilder.obj
 0001:00009010       ?getNbPrimitives@AABBTreeBuildNode@Gu@physx@@QEBAIXZ 000000018000a010 f i BVHStructureBuilder.obj
 0001:00009020       ?getNbRuntimePrimitives@AABBTreeBuildNode@Gu@physx@@QEBAIXZ 000000018000a020 f i BVHStructureBuilder.obj
 0001:00009030       ?getNeg@AABBTreeBuildNode@Gu@physx@@QEBAPEBV123@XZ 000000018000a030 f i BVHStructureBuilder.obj
 0001:00009050       ?getPos@AABBTreeBuildNode@Gu@physx@@QEBAPEBV123@XZ 000000018000a050 f i BVHStructureBuilder.obj
 0001:00009060       ?getPrimitives@AABBTreeBuildNode@Gu@physx@@QEAAPEAIPEAI@Z 000000018000a060 f i BVHStructureBuilder.obj
 0001:00009070       ?getPrimitives@AABBTreeBuildNode@Gu@physx@@QEBAPEBIPEBI@Z 000000018000a070 f i BVHStructureBuilder.obj
 0001:00009080       ?increaseCount@BuildStats@Gu@physx@@QEAAXI@Z 000000018000a080 f i BVHStructureBuilder.obj
 0001:00009090       ?isLeaf@AABBTreeBuildNode@Gu@physx@@QEBA_NXZ 000000018000a090 f i BVHStructureBuilder.obj
 0001:000090a0       ?recreate@?$Array@USlab@NodeAllocator@Gu@physx@@VNamedAllocator@shdfnd@4@@shdfnd@physx@@IEAAXI@Z 000000018000a0a0 f i BVHStructureBuilder.obj
 0001:00009170       ?reset@AABBTreeBuildParams@Gu@physx@@QEAAXXZ 000000018000a170 f i BVHStructureBuilder.obj
 0001:000091d0       ?reset@BuildStats@Gu@physx@@QEAAXXZ 000000018000a1d0 f i BVHStructureBuilder.obj
 0001:000091e0       ?setCount@BuildStats@Gu@physx@@QEAAXI@Z 000000018000a1e0 f i BVHStructureBuilder.obj
 0001:000091f0       ?setNbRunTimePrimitives@AABBTreeBuildNode@Gu@physx@@QEAAXI@Z 000000018000a1f0 f i BVHStructureBuilder.obj
 0001:00009200       ?saveHeightField@physx@@YA_NAEBVHeightField@Gu@1@AEAVPxOutputStream@1@_N@Z 000000018000a200 f   HeightFieldCooking.obj
 0001:00009440       ?buildFromTriangles@RTreeCooker@physx@@SAXAEAURTree@Gu@2@PEBVPxVec3@2@IPEBGPEBIIAEAV?$Array@IVNamedAllocator@shdfnd@physx@@@shdfnd@2@PEAURemapCallback@12@MW4Enum@PxMeshCookingHint@2@@Z 000000018000a440 f   RTreeCooking.obj
 0001:00009710       ??$partition@UBoundsLTE@physx@@@quickSelect@physx@@YAIPEIAIIIIAEBUBoundsLTE@1@@Z 000000018000a710 f i RTreeCooking.obj
 0001:000098b0       ??$quickSelectFirstK@UBoundsLTE@physx@@@quickSelect@physx@@YAXPEIAIIIIAEBUBoundsLTE@1@@Z 000000018000a8b0 f i RTreeCooking.obj
 0001:00009aa0       ??$smallSort@I$$CBUSortBoundsPredicate@physx@@@internal@shdfnd@physx@@YAXPEAIHHAEBUSortBoundsPredicate@2@@Z 000000018000aaa0 f i RTreeCooking.obj
 0001:00009d70       ??$sort@I@shdfnd@physx@@YAXPEAII@Z 000000018000ad70 f i RTreeCooking.obj
 0001:00009dc0       ??$sort@IU?$Less@I@shdfnd@physx@@VNamedAllocator@23@@shdfnd@physx@@YAXPEAIIAEBU?$Less@I@01@AEBVNamedAllocator@01@I@Z 000000018000adc0 f i RTreeCooking.obj
 0001:0000a150       ??$sort@IUSortBoundsPredicate@physx@@@shdfnd@physx@@YAXPEAIIAEBUSortBoundsPredicate@1@@Z 000000018000b150 f i RTreeCooking.obj
 0001:0000a1b0       ??$sort@IUSortBoundsPredicate@physx@@VNamedAllocator@shdfnd@2@@shdfnd@physx@@YAXPEAIIAEBUSortBoundsPredicate@1@AEBVNamedAllocator@01@I@Z 000000018000b1b0 f i RTreeCooking.obj
 0001:0000a600       ??0?$InlineArray@UInterval@physx@@$0EAA@VNamedAllocator@shdfnd@2@@shdfnd@physx@@QEAA@AEBVNamedAllocator@12@@Z 000000018000b600 f i RTreeCooking.obj
 0001:0000a6f0       ?allocate@?$Array@UInterval@physx@@V?$InlineAllocator@$0CAAA@VNamedAllocator@shdfnd@physx@@@shdfnd@2@@shdfnd@physx@@IEAAPEAUInterval@3@I@Z 000000018000b6f0 f i RTreeCooking.obj
 0001:0000b510       ?copy@?$Array@URTreeNodeNQ@physx@@VNamedAllocator@shdfnd@2@@shdfnd@physx@@KAXPEAURTreeNodeNQ@3@0PEBU43@@Z 000000018000c510 f i RTreeCooking.obj
 0001:0000b6d0       ?copy@?$Array@VPxVec3@physx@@VNamedAllocator@shdfnd@2@@shdfnd@physx@@KAXPEAVPxVec3@3@0PEBV43@@Z 000000018000c6d0 f i RTreeCooking.obj
 0001:0000b7a0       ?growAndPushBack@?$Array@IVNamedAllocator@shdfnd@physx@@@shdfnd@physx@@IEAAAEAIAEBI@Z 000000018000c7a0 f i RTreeCooking.obj
 0001:0000b890       ?growAndPushBack@?$Array@UInterval@physx@@V?$InlineAllocator@$0CAAA@VNamedAllocator@shdfnd@physx@@@shdfnd@2@@shdfnd@physx@@IEAAAEAUInterval@3@AEBU43@@Z 000000018000c890 f i RTreeCooking.obj
 0001:0000b990       ?growAndPushBack@?$Array@UPxBounds3V@physx@@VNamedAllocator@shdfnd@2@@shdfnd@physx@@IEAAAEAUPxBounds3V@3@AEBU43@@Z 000000018000c990 f i RTreeCooking.obj
 0001:0000ba90       ?growAndPushBack@?$Array@URTreeNodeNQ@physx@@VNamedAllocator@shdfnd@2@@shdfnd@physx@@IEAAAEAURTreeNodeNQ@3@AEBU43@@Z 000000018000ca90 f i RTreeCooking.obj
 0001:0000bb90       ?growAndPushBack@?$Array@URTreeNodeQ@Gu@physx@@VNamedAllocator@shdfnd@3@@shdfnd@physx@@IEAAAEAURTreeNodeQ@Gu@3@AEBU453@@Z 000000018000cb90 f i RTreeCooking.obj
 0001:0000bc90       ?recreate@?$Array@IVNamedAllocator@shdfnd@physx@@@shdfnd@physx@@IEAAXI@Z 000000018000cc90 f i RTreeCooking.obj
 0001:0000bd70       ?recreate@?$Array@UPxBounds3V@physx@@VNamedAllocator@shdfnd@2@@shdfnd@physx@@IEAAXI@Z 000000018000cd70 f i RTreeCooking.obj
 0001:0000be40       ?recreate@?$Array@URTreeNodeNQ@physx@@VNamedAllocator@shdfnd@2@@shdfnd@physx@@IEAAXI@Z 000000018000ce40 f i RTreeCooking.obj
 0001:0000bee0       ?recreate@?$Array@URTreeNodeQ@Gu@physx@@VNamedAllocator@shdfnd@3@@shdfnd@physx@@IEAAXI@Z 000000018000cee0 f i RTreeCooking.obj
 0001:0000bfc0       ?recreate@?$Array@VPxVec3@physx@@VNamedAllocator@shdfnd@2@@shdfnd@physx@@IEAAXI@Z 000000018000cfc0 f i RTreeCooking.obj
 0001:0000c060       ?resize@?$Array@IVNamedAllocator@shdfnd@physx@@@shdfnd@physx@@QEAAXIAEBI@Z 000000018000d060 f i RTreeCooking.obj
 0001:0000c140       ?resizeUninitialized@?$Array@URTreeNodeNQ@physx@@VNamedAllocator@shdfnd@2@@shdfnd@physx@@QEAAXI@Z 000000018000d140 f i RTreeCooking.obj
 0001:0000c180       ?sort4@SubSortQuick@physx@@QEAAXPEIAIIAEAV?$Array@URTreeNodeNQ@physx@@VNamedAllocator@shdfnd@2@@shdfnd@2@AEAIAEAUPxBounds3V@2@I@Z 000000018000d180 f i RTreeCooking.obj
 0001:0000c510       ?sort4@SubSortSAH@physx@@QEAAXPEAIIAEAV?$Array@URTreeNodeNQ@physx@@VNamedAllocator@shdfnd@2@@shdfnd@2@AEAIIPEAURTreeNodeNQ@2@@Z 000000018000d510 f i RTreeCooking.obj
 0001:0000cc20       ?split@SubSortSAH@physx@@QEAAIPEAII@Z 000000018000dc20 f i RTreeCooking.obj
 0001:0000d3c0       ?computeLocalBounds@MeshBulider@physx@@IEAAXAEAVMeshDataBase@Gu@2@@Z 000000018000e3c0 f   MeshBuilder.obj
 0001:0000d450       ??0TriangleMeshBuilder@physx@@QEAA@AEAVTriangleMeshData@Gu@1@AEBUPxCookingParams@1@@Z 000000018000e450 f   TriangleMeshBuilder.obj
 0001:0000d480       ??1TriangleMeshBuilder@physx@@UEAA@XZ 000000018000e480 f   TriangleMeshBuilder.obj
 0001:0000d4f0       ?cleanMesh@TriangleMeshBuilder@physx@@QEAA_N_NPEAW4Enum@PxTriangleMeshCookingResult@2@@Z 000000018000e4f0 f   TriangleMeshBuilder.obj
 0001:0000d9b0       ?remapTopology@TriangleMeshBuilder@physx@@QEAAXPEBI@Z 000000018000e9b0 f   TriangleMeshBuilder.obj
 0001:0000dcb0       ?createSharedEdgeData@TriangleMeshBuilder@physx@@QEAAX_N0@Z 000000018000ecb0 f   TriangleMeshBuilder.obj
 0001:0000e120       ?recordTriangleIndices@TriangleMeshBuilder@physx@@QEAAXXZ 000000018000f120 f   TriangleMeshBuilder.obj
 0001:0000e1c0       ?createGRBMidPhaseAndData@TriangleMeshBuilder@physx@@QEAAXI@Z 000000018000f1c0 f   TriangleMeshBuilder.obj
 0001:0000e550       ?createGRBData@TriangleMeshBuilder@physx@@QEAAXXZ 000000018000f550 f   TriangleMeshBuilder.obj
 0001:0000e630       ?loadFromDesc@TriangleMeshBuilder@physx@@QEAA_NAEBVPxTriangleMeshDesc@2@PEAW4Enum@PxTriangleMeshCookingResult@2@_N@Z 000000018000f630 f   TriangleMeshBuilder.obj
 0001:0000ea10       ?save@TriangleMeshBuilder@physx@@QEBA_NAEAVPxOutputStream@2@_NAEBUPxCookingParams@2@@Z 000000018000fa10 f   TriangleMeshBuilder.obj
 0001:0000efe0       ?checkMeshIndicesSize@TriangleMeshBuilder@physx@@QEAAXXZ 000000018000ffe0 f   TriangleMeshBuilder.obj
 0001:0000f0f0       ?importMesh@TriangleMeshBuilder@physx@@IEAA_NAEBVPxTriangleMeshDesc@2@AEBUPxCookingParams@2@PEAW4Enum@PxTriangleMeshCookingResult@2@_N@Z 00000001800100f0 f   TriangleMeshBuilder.obj
 0001:0000f490       ?releaseEdgeList@TriangleMeshBuilder@physx@@IEAAXXZ 0000000180010490 f   TriangleMeshBuilder.obj
 0001:0000f4f0       ?createEdgeList@TriangleMeshBuilder@physx@@IEAAXXZ 00000001800104f0 f   TriangleMeshBuilder.obj
 0001:0000f610       ??0RTreeTriangleMeshBuilder@physx@@QEAA@AEBUPxCookingParams@1@@Z 0000000180010610 f   TriangleMeshBuilder.obj
 0001:0000f6d0       ??1RTreeTriangleMeshBuilder@physx@@UEAA@XZ 00000001800106d0 f   TriangleMeshBuilder.obj
 0001:0000f700       ?createMidPhaseStructure@RTreeTriangleMeshBuilder@physx@@UEAAXXZ 0000000180010700 f   TriangleMeshBuilder.obj
 0001:0000f830       ?saveMidPhaseStructure@RTreeTriangleMeshBuilder@physx@@UEBAXAEAVPxOutputStream@2@_N@Z 0000000180010830 f   TriangleMeshBuilder.obj
 0001:0000fa70       ??0BV4TriangleMeshBuilder@physx@@QEAA@AEBUPxCookingParams@1@@Z 0000000180010a70 f   TriangleMeshBuilder.obj
 0001:0000fb40       ??1BV4TriangleMeshBuilder@physx@@UEAA@XZ 0000000180010b40 f   TriangleMeshBuilder.obj
 0001:0000fba0       ?createMidPhaseStructure@BV4TriangleMeshBuilder@physx@@UEAAXXZ 0000000180010ba0 f   TriangleMeshBuilder.obj
 0001:0000fe70       ?saveMidPhaseStructure@BV4TriangleMeshBuilder@physx@@UEBAXAEAVPxOutputStream@2@_N@Z 0000000180010e70 f   TriangleMeshBuilder.obj
 0001:00010010       ?onMeshIndexFormatChange@BV4TriangleMeshBuilder@physx@@UEAAXXZ 0000000180011010 f   TriangleMeshBuilder.obj
 0001:00010050       ?createMidPhaseStructure@BV32TriangleMeshBuilder@physx@@SAXAEBUPxCookingParams@2@AEAVTriangleMeshData@Gu@2@AEAVBV32Tree@52@@Z 0000000180011050 f   TriangleMeshBuilder.obj
 0001:000101d0       ?saveMidPhaseStructure@BV32TriangleMeshBuilder@physx@@SAXPEAVBV32Tree@Gu@2@AEAVPxOutputStream@2@_N@Z 00000001800111d0 f   TriangleMeshBuilder.obj
 0001:00010370       ?findSharpVertices@GrbTrimeshCookerHelper@physx@@YAXAEAV?$Array@USortedNeighbor@GrbTrimeshCookerHelper@physx@@VNamedAllocator@shdfnd@3@@shdfnd@2@AEAV?$Array@USharpEdgeRange@GrbTrimeshCookerHelper@physx@@VNamedAllocator@shdfnd@3@@42@PEBUuint3@2@PEBUuint4@2@II@Z 0000000180011370 f   TriangleMeshBuilder.obj
 0001:00010730       ?buildVertexConnectionNew_p1@GrbTrimeshCookerHelper@physx@@YAIAEAV?$Array@USortedNeighbor@GrbTrimeshCookerHelper@physx@@VNamedAllocator@shdfnd@3@@shdfnd@2@AEAV?$Array@USharpEdgeRange@GrbTrimeshCookerHelper@physx@@VNamedAllocator@shdfnd@3@@42@PEBUuint3@2@PEBUuint4@2@II@Z 0000000180011730 f   TriangleMeshBuilder.obj
 0001:000108e0       ?buildVertexConnectionNew_p2@GrbTrimeshCookerHelper@physx@@YAXPEAI00AEAV?$Array@USortedNeighbor@GrbTrimeshCookerHelper@physx@@VNamedAllocator@shdfnd@3@@shdfnd@2@AEAV?$Array@USharpEdgeRange@GrbTrimeshCookerHelper@physx@@VNamedAllocator@shdfnd@3@@42@I@Z 00000001800118e0 f   TriangleMeshBuilder.obj
 0001:00010990       ??$?_UG@@YAPEAX_KV?$ReflectionAllocator@G@shdfnd@physx@@PEBDH@Z 0000000180011990 f i TriangleMeshBuilder.obj
 0001:00010a30       ??$median3@USortedNeighbor@GrbTrimeshCookerHelper@physx@@$$CBU?$Less@USortedNeighbor@GrbTrimeshCookerHelper@physx@@@shdfnd@3@@internal@shdfnd@physx@@YAXPEAUSortedNeighbor@GrbTrimeshCookerHelper@2@HHAEBU?$Less@USortedNeighbor@GrbTrimeshCookerHelper@physx@@@12@@Z 0000000180011a30 f i TriangleMeshBuilder.obj
 0001:00010b60       ??$sort@UEdgeTriLookup@physx@@@shdfnd@physx@@YAXPEAUEdgeTriLookup@1@I@Z 0000000180011b60 f i TriangleMeshBuilder.obj
 0001:00010bb0       ??$sort@UEdgeTriLookup@physx@@U?$Less@UEdgeTriLookup@physx@@@shdfnd@2@VNamedAllocator@42@@shdfnd@physx@@YAXPEAUEdgeTriLookup@1@IAEBU?$Less@UEdgeTriLookup@physx@@@01@AEBVNamedAllocator@01@I@Z 0000000180011bb0 f i TriangleMeshBuilder.obj
 0001:00011090       ??$sort@USortedNeighbor@GrbTrimeshCookerHelper@physx@@@shdfnd@physx@@YAXPEAUSortedNeighbor@GrbTrimeshCookerHelper@1@I@Z 0000000180012090 f i TriangleMeshBuilder.obj
 0001:000110e0       ??$sort@USortedNeighbor@GrbTrimeshCookerHelper@physx@@U?$Less@USortedNeighbor@GrbTrimeshCookerHelper@physx@@@shdfnd@3@VNamedAllocator@53@@shdfnd@physx@@YAXPEAUSortedNeighbor@GrbTrimeshCookerHelper@1@IAEBU?$Less@USortedNeighbor@GrbTrimeshCookerHelper@physx@@@01@AEBVNamedAllocator@01@I@Z 00000001800120e0 f i TriangleMeshBuilder.obj
 0001:00011540       ??0PxVec4@physx@@QEAA@XZ   0000000180012540 f i TriangleMeshBuilder.obj
 0001:00011550       ??1BV4TriangleData@Gu@physx@@UEAA@XZ 0000000180012550 f i TriangleMeshBuilder.obj
 0001:00011590       ??1MeshDataBase@Gu@physx@@UEAA@XZ 0000000180012590 f i TriangleMeshBuilder.obj
 0001:00011670       ??1RTreeTriangleData@Gu@physx@@UEAA@XZ 0000000180012670 f i TriangleMeshBuilder.obj
 0001:000116e0       ??1RemapCallback@RTreeCooker@physx@@UEAA@XZ 00000001800126e0 f i TriangleMeshBuilder.obj
 0001:000116f0       ??1TriangleMeshData@Gu@physx@@UEAA@XZ 00000001800126f0 f i TriangleMeshBuilder.obj
 0001:000117c0       ??_EBV4TriangleData@Gu@physx@@UEAAPEAXI@Z 00000001800127c0 f i TriangleMeshBuilder.obj
 0001:000117c0       ??_GBV4TriangleData@Gu@physx@@UEAAPEAXI@Z 00000001800127c0 f i TriangleMeshBuilder.obj
 0001:00011840       ??_GBV4TriangleMeshBuilder@physx@@UEAAPEAXI@Z 0000000180012840 f i TriangleMeshBuilder.obj
 0001:00011840       ??_EBV4TriangleMeshBuilder@physx@@UEAAPEAXI@Z 0000000180012840 f i TriangleMeshBuilder.obj
 0001:000118c0       ??_EMeshDataBase@Gu@physx@@UEAAPEAXI@Z 00000001800128c0 f i TriangleMeshBuilder.obj
 0001:000118c0       ??_GMeshDataBase@Gu@physx@@UEAAPEAXI@Z 00000001800128c0 f i TriangleMeshBuilder.obj
 0001:00011920       ??_ERTreeCookerRemap@physx@@UEAAPEAXI@Z 0000000180012920 f i TriangleMeshBuilder.obj
 0001:00011920       ??_GRTreeCookerRemap@physx@@UEAAPEAXI@Z 0000000180012920 f i TriangleMeshBuilder.obj
 0001:00011950       ??_GRTreeTriangleData@Gu@physx@@UEAAPEAXI@Z 0000000180012950 f i TriangleMeshBuilder.obj
 0001:00011950       ??_ERTreeTriangleData@Gu@physx@@UEAAPEAXI@Z 0000000180012950 f i TriangleMeshBuilder.obj
 0001:000119b0       ??_GRTreeTriangleMeshBuilder@physx@@UEAAPEAXI@Z 00000001800129b0 f i TriangleMeshBuilder.obj
 0001:000119b0       ??_ERTreeTriangleMeshBuilder@physx@@UEAAPEAXI@Z 00000001800129b0 f i TriangleMeshBuilder.obj
 0001:00011a00       ??_ERemapCallback@RTreeCooker@physx@@UEAAPEAXI@Z 0000000180012a00 f i TriangleMeshBuilder.obj
 0001:00011a00       ??_GRemapCallback@RTreeCooker@physx@@UEAAPEAXI@Z 0000000180012a00 f i TriangleMeshBuilder.obj
 0001:00011a30       ??_ETriangleMeshBuilder@physx@@UEAAPEAXI@Z 0000000180012a30 f i TriangleMeshBuilder.obj
 0001:00011a30       ??_GTriangleMeshBuilder@physx@@UEAAPEAXI@Z 0000000180012a30 f i TriangleMeshBuilder.obj
 0001:00011a70       ??_GTriangleMeshData@Gu@physx@@UEAAPEAXI@Z 0000000180012a70 f i TriangleMeshBuilder.obj
 0001:00011a70       ??_ETriangleMeshData@Gu@physx@@UEAAPEAXI@Z 0000000180012a70 f i TriangleMeshBuilder.obj
 0001:00011ad0       ?allocateTriangles@TriangleMeshData@Gu@physx@@QEAAPEAXI_NI@Z 0000000180012ad0 f i TriangleMeshBuilder.obj
 0001:00011ba0       ?allocateVertices@MeshDataBase@Gu@physx@@QEAAPEAVPxVec3@3@I@Z 0000000180012ba0 f i TriangleMeshBuilder.obj
 0001:00012280       ?getMidphaseID@BV4TriangleMeshBuilder@physx@@UEBA?AW4Enum@PxMeshMidPhase@2@XZ 0000000180013280 f i TriangleMeshBuilder.obj
 0001:00012290       ?getMidphaseID@RTreeTriangleMeshBuilder@physx@@UEBA?AW4Enum@PxMeshMidPhase@2@XZ 0000000180013290 f i TriangleMeshBuilder.obj
 0001:000122a0       ?growAndPushBack@?$Array@USortedNeighbor@GrbTrimeshCookerHelper@physx@@VNamedAllocator@shdfnd@3@@shdfnd@physx@@IEAAAEAUSortedNeighbor@GrbTrimeshCookerHelper@3@AEBU453@@Z 00000001800132a0 f i TriangleMeshBuilder.obj
 0001:000123a0       ?onMeshIndexFormatChange@TriangleMeshBuilder@physx@@UEAAXXZ 00000001800133a0 f i TriangleMeshBuilder.obj
 0001:000123b0       ?recreate@?$Array@USharpEdgeRange@GrbTrimeshCookerHelper@physx@@VNamedAllocator@shdfnd@3@@shdfnd@physx@@IEAAXI@Z 00000001800133b0 f i TriangleMeshBuilder.obj
 0001:00012490       ?recreate@?$Array@USortedNeighbor@GrbTrimeshCookerHelper@physx@@VNamedAllocator@shdfnd@3@@shdfnd@physx@@IEAAXI@Z 0000000180013490 f i TriangleMeshBuilder.obj
 0001:00012570       ?remap@RTreeCookerRemap@physx@@UEAAXPEAIII@Z 0000000180013570 f i TriangleMeshBuilder.obj
 0001:00012590       ?resize@?$Array@USharpEdgeRange@GrbTrimeshCookerHelper@physx@@VNamedAllocator@shdfnd@3@@shdfnd@physx@@QEAAXIAEBUSharpEdgeRange@GrbTrimeshCookerHelper@3@@Z 0000000180013590 f i TriangleMeshBuilder.obj
 0001:00012670       ?resizeUninitialized@?$Array@USortedNeighbor@GrbTrimeshCookerHelper@physx@@VNamedAllocator@shdfnd@3@@shdfnd@physx@@QEAAXI@Z 0000000180013670 f i TriangleMeshBuilder.obj
 0001:000126b0       ??0BigConvexDataBuilder@physx@@QEAA@PEBUConvexHullData@Gu@1@PEAVBigConvexData@1@PEBVPxVec3@1@@Z 00000001800136b0 f   BigConvexDataBuilder.obj
 0001:000126d0       ??1BigConvexDataBuilder@physx@@QEAA@XZ 00000001800136d0 f   BigConvexDataBuilder.obj
 0001:000126e0       ?precompute@BigConvexDataBuilder@physx@@QEAA_NI@Z 00000001800136e0 f   BigConvexDataBuilder.obj
 0001:00013330       ?initialize@BigConvexDataBuilder@physx@@QEAA_NXZ 0000000180014330 f   BigConvexDataBuilder.obj
 0001:000133e0       ?save@BigConvexDataBuilder@physx@@QEBA_NAEAVPxOutputStream@2@_N@Z 00000001800143e0 f   BigConvexDataBuilder.obj
 0001:00013620       ?computeValencies@BigConvexDataBuilder@physx@@QEAA_NAEBVConvexHullBuilder@2@@Z 0000000180014620 f   BigConvexDataBuilder.obj
 0001:00013a10       ?saveValencies@BigConvexDataBuilder@physx@@QEBA_NAEAVPxOutputStream@2@_N@Z 0000000180014a10 f   BigConvexDataBuilder.obj
 0001:00013bc0       ??0BigConvexData@physx@@QEAA@W4PxEMPTY@1@@Z 0000000180014bc0 f i BigConvexDataBuilder.obj
 0001:00013bd0       ??4BigConvexData@physx@@QEAAAEAV01@AEBV01@@Z 0000000180014bd0 f i BigConvexDataBuilder.obj
 0001:00013bf0       ?GetAdjacentVerts@BigConvexData@physx@@QEBAPEBEXZ 0000000180014bf0 f i BigConvexDataBuilder.obj
 0001:00013c00       ?GetNbNeighbors@BigConvexData@physx@@QEBAGI@Z 0000000180014c00 f i BigConvexDataBuilder.obj
 0001:00013c10       ?GetNbSamples@BigConvexData@physx@@QEBAIXZ 0000000180014c10 f i BigConvexDataBuilder.obj
 0001:00013c20       ?GetNbVerts@BigConvexData@physx@@QEBAIXZ 0000000180014c20 f i BigConvexDataBuilder.obj
 0001:00013c30       ?GetNeighbors@BigConvexData@physx@@QEBAPEBEI@Z 0000000180014c30 f i BigConvexDataBuilder.obj
 0001:00013c40       ?GetOffset@BigConvexData@physx@@QEBAGI@Z 0000000180014c40 f i BigConvexDataBuilder.obj
 0001:00013c50       ?GetSubdiv@BigConvexData@physx@@QEBAIXZ 0000000180014c50 f i BigConvexDataBuilder.obj
 0001:00013c60       ?GetValencies@BigConvexData@physx@@QEBAPEBUValency@Gu@2@XZ 0000000180014c60 f i BigConvexDataBuilder.obj
 0001:00013c70       ?GetValency@BigConvexData@physx@@QEBAGI@Z 0000000180014c70 f i BigConvexDataBuilder.obj
 0001:00013c80       ??0ConvexHullBuilder@physx@@QEAA@PEAUConvexHullData@Gu@1@_N@Z 0000000180014c80 f   ConvexHullBuilder.obj
 0001:00013cb0       ??1ConvexHullBuilder@physx@@QEAA@XZ 0000000180014cb0 f   ConvexHullBuilder.obj
 0001:00013dc0       ?init@ConvexHullBuilder@physx@@QEAA_NIPEBVPxVec3@2@PEBIIIPEBUPxHullPolygon@2@_NPEAVConvexHullLib@2@@Z 0000000180014dc0 f   ConvexHullBuilder.obj
 0001:00014190       ?save@ConvexHullBuilder@physx@@QEBA_NAEAVPxOutputStream@2@_N@Z 0000000180015190 f   ConvexHullBuilder.obj
 0001:000144d0       ?copy@ConvexHullBuilder@physx@@QEAA_NAEAUConvexHullData@Gu@2@AEAI@Z 00000001800154d0 f   ConvexHullBuilder.obj
 0001:00014730       ?createEdgeList@ConvexHullBuilder@physx@@QEAA_N_NI@Z 0000000180015730 f   ConvexHullBuilder.obj
 0001:00014fb0       ?checkHullPolygons@ConvexHullBuilder@physx@@QEBA_NXZ 0000000180015fb0 f   ConvexHullBuilder.obj
 0001:00015590       ?calculateVertexMapTable@ConvexHullBuilder@physx@@QEAA_NI_N@Z 0000000180016590 f   ConvexHullBuilder.obj
 0001:000157a0       ?computeGeomCenter@ConvexHullBuilder@physx@@IEBA_NAEAVPxVec3@2@IPEAUHullTriangleData@2@@Z 00000001800167a0 f   ConvexHullBuilder.obj
 0001:00015a60       ??$?_UE@@YAPEAX_KV?$ReflectionAllocator@E@shdfnd@physx@@PEBDH@Z 0000000180016a60 f i ConvexHullBuilder.obj
 0001:00015b00       ??1ConvexHullLib@physx@@UEAA@XZ 0000000180016b00 f   ConvexHullLib.obj
 0001:00015b60       ?cleanupVertices@ConvexHullLib@physx@@IEAA_NIPEBVPxVec3@2@IAEAIPEAV32@AEAV32@3@Z 0000000180016b60 f   ConvexHullLib.obj
 0001:00015fb0       ?shiftAndcleanupVertices@ConvexHullLib@physx@@IEAA_NIPEBVPxVec3@2@IAEAIPEAV32@AEAV32@3@Z 0000000180016fb0 f   ConvexHullLib.obj
 0001:000164b0       ?swapLargestFace@ConvexHullLib@physx@@IEAAXAEAVPxConvexMeshDesc@2@@Z 00000001800174b0 f   ConvexHullLib.obj
 0001:000166a0       ?shiftConvexMeshDesc@ConvexHullLib@physx@@IEAAXAEAVPxConvexMeshDesc@2@@Z 00000001800176a0 f   ConvexHullLib.obj
 0001:00016760       ??_EConvexHullLib@physx@@UEAAPEAXI@Z 0000000180017760 f i ConvexHullLib.obj
 0001:00016760       ??_GConvexHullLib@physx@@UEAAPEAXI@Z 0000000180017760 f i ConvexHullLib.obj
 0001:00016cd0       ??0ConvexHull@physx@@QEAA@AEBVPxVec3@1@0AEBV?$Array@VPxPlane@physx@@VNamedAllocator@shdfnd@2@@shdfnd@1@@Z 0000000180017cd0 f   ConvexHullUtils.obj
 0001:00017740       ??0ConvexHull@physx@@QEAA@AEBVPxVec3@1@AEBVPxTransform@1@AEBV?$Array@VPxPlane@physx@@VNamedAllocator@shdfnd@2@@shdfnd@1@@Z 0000000180018740 f   ConvexHullUtils.obj
 0001:00018a70       ?findCandidatePlane@ConvexHull@physx@@QEBAHMM@Z 0000000180019a70 f   ConvexHullUtils.obj
 0001:00018ed0       ?assertIntact@ConvexHull@physx@@QEBA_NM@Z 0000000180019ed0 f   ConvexHullUtils.obj
 0001:000191f0       ?maxNumVertsPerFace@ConvexHull@physx@@QEBAIXZ 000000018001a1f0 f   ConvexHullUtils.obj
 0001:00019270       ?convexHullCrop@physx@@YAPEAVConvexHull@1@AEBV21@AEBVPxPlane@1@M@Z 000000018001a270 f   ConvexHullUtils.obj
 0001:0001a0f0       ?computeOBBFromConvex@physx@@YA_NAEBVPxConvexMeshDesc@1@AEAVPxVec3@1@AEAVPxTransform@1@@Z 000000018001b0f0 f   ConvexHullUtils.obj
 0001:0001a7e0       ?computeOBBSIMD@local@@YAXIPEBT__m128@@AEAT2@AEBT2@1@Z 000000018001b7e0 f   ConvexHullUtils.obj
 0001:0001aa40       ??0Box@Gu@physx@@QEAA@AEBV012@@Z 000000018001ba40 f i ConvexHullUtils.obj
 0001:0001aaa0       ??0Box@Gu@physx@@QEAA@AEBVPxVec3@2@0AEBVPxMat33@2@@Z 000000018001baa0 f i ConvexHullUtils.obj
 0001:0001ab10       ??0Box@Gu@physx@@QEAA@XZ   000000018001bb10 f i ConvexHullUtils.obj
 0001:0001ab20       ??0HalfEdge@ConvexHull@physx@@QEAA@XZ 000000018001bb20 f i ConvexHullUtils.obj
 0001:0001ab30       ??0PxPlane@physx@@QEAA@XZ  000000018001bb30 f i ConvexHullUtils.obj
 0001:0001ab40       ??0PxQuat@physx@@QEAA@AEBVPxMat33@1@@Z 000000018001bb40 f i ConvexHullUtils.obj
 0001:0001ad30       ??1Box@Gu@physx@@QEAA@XZ   000000018001bd30 f i ConvexHullUtils.obj
 0001:0001ad40       ??4Box@Gu@physx@@QEAAAEBV012@AEBV012@@Z 000000018001bd40 f i ConvexHullUtils.obj
 0001:0001ada0       ?computeAABBExtent@Box@Gu@physx@@QEBA?AVPxVec3@3@XZ 000000018001bda0 f i ConvexHullUtils.obj
 0001:0001ae60       ?computeBoxPoints@Box@Gu@physx@@QEBAXPEIAVPxVec3@3@@Z 000000018001be60 f i ConvexHullUtils.obj
 0001:0001aea0       ?copy@?$Array@VPxPlane@physx@@VNamedAllocator@shdfnd@2@@shdfnd@physx@@KAXPEAVPxPlane@3@0PEBV43@@Z 000000018001bea0 f i ConvexHullUtils.obj
 0001:0001afa0       ?getInverse@PxMat33@physx@@QEBA?BV12@XZ 000000018001bfa0 f i ConvexHullUtils.obj
 0001:0001b1f0       ?getTransform@Box@Gu@physx@@QEBA?AVPxTransform@3@XZ 000000018001c1f0 f i ConvexHullUtils.obj
 0001:0001b250       ?growAndPushBack@?$Array@VHalfEdge@ConvexHull@physx@@VNamedAllocator@shdfnd@3@@shdfnd@physx@@IEAAAEAVHalfEdge@ConvexHull@3@AEBV453@@Z 000000018001c250 f i ConvexHullUtils.obj
 0001:0001b340       ?growAndPushBack@?$Array@VPxPlane@physx@@VNamedAllocator@shdfnd@2@@shdfnd@physx@@IEAAAEAVPxPlane@3@AEBV43@@Z 000000018001c340 f i ConvexHullUtils.obj
 0001:0001b420       ?isValid@Box@Gu@physx@@QEBA_NXZ 000000018001c420 f i ConvexHullUtils.obj
 0001:0001b440       ?recreate@?$Array@VHalfEdge@ConvexHull@physx@@VNamedAllocator@shdfnd@3@@shdfnd@physx@@IEAAXI@Z 000000018001c440 f i ConvexHullUtils.obj
 0001:0001b520       ?recreate@?$Array@VPxPlane@physx@@VNamedAllocator@shdfnd@2@@shdfnd@physx@@IEAAXI@Z 000000018001c520 f i ConvexHullUtils.obj
 0001:0001b5c0       ?resize@?$Array@VHalfEdge@ConvexHull@physx@@VNamedAllocator@shdfnd@3@@shdfnd@physx@@QEAAXIAEBVHalfEdge@ConvexHull@3@@Z 000000018001c5c0 f i ConvexHullUtils.obj
 0001:0001b6a0       ?resize@?$Array@VPxPlane@physx@@VNamedAllocator@shdfnd@2@@shdfnd@physx@@QEAAXIAEBVPxPlane@3@@Z 000000018001c6a0 f i ConvexHullUtils.obj
 0001:0001b7c0       ?resize@?$Array@VPxVec3@physx@@VNamedAllocator@shdfnd@2@@shdfnd@physx@@QEAAXIAEBVPxVec3@3@@Z 000000018001c7c0 f i ConvexHullUtils.obj
 0001:0001b8b0       ?rotate@Box@Gu@physx@@QEBA?AVPxVec3@3@AEBV43@@Z 000000018001c8b0 f i ConvexHullUtils.obj
 0001:0001b940       ?rotateInv@Box@Gu@physx@@QEBA?AVPxVec3@3@AEBV43@@Z 000000018001c940 f i ConvexHullUtils.obj
 0001:0001b9d0       ?setAxes@Box@Gu@physx@@QEAAXAEBVPxVec3@3@00@Z 000000018001c9d0 f i ConvexHullUtils.obj
 0001:0001ba10       ?setEmpty@Box@Gu@physx@@QEAAXXZ 000000018001ca10 f i ConvexHullUtils.obj
 0001:0001ba50       ?transform@Box@Gu@physx@@QEBA?AVPxVec3@3@AEBV43@@Z 000000018001ca50 f i ConvexHullUtils.obj
 0001:0001baf0       ??0ConvexMeshBuilder@physx@@QEAA@_N@Z 000000018001caf0 f   ConvexMeshBuilder.obj
 0001:0001bb60       ??1ConvexMeshBuilder@physx@@QEAA@XZ 000000018001cb60 f   ConvexMeshBuilder.obj
 0001:0001bbc0       ?build@ConvexMeshBuilder@physx@@QEAA_NAEBVPxConvexMeshDesc@2@I_NPEAVConvexHullLib@2@@Z 000000018001cbc0 f   ConvexMeshBuilder.obj
 0001:0001bf10       ?save@ConvexMeshBuilder@physx@@QEBA_NAEAVPxOutputStream@2@_N@Z 000000018001cf10 f   ConvexMeshBuilder.obj
 0001:0001c130       ?copy@ConvexMeshBuilder@physx@@QEAA_NAEAUConvexHullData@Gu@2@AEAI@Z 000000018001d130 f   ConvexMeshBuilder.obj
 0001:0001c1c0       ?loadConvexHull@ConvexMeshBuilder@physx@@QEAA_NAEBVPxConvexMeshDesc@2@PEAVConvexHullLib@2@@Z 000000018001d1c0 f   ConvexMeshBuilder.obj
 0001:0001c470       ?computeHullPolygons@ConvexMeshBuilder@physx@@QEAA_NAEBIPEBVPxVec3@2@0PEBIAEAVPxAllocatorCallback@2@AEAIAEAPEAV32@4AEAPEAI4AEAPEAUPxHullPolygon@2@@Z 000000018001d470 f   ConvexMeshBuilder.obj
 0001:0001c690       ?computeGaussMaps@ConvexMeshBuilder@physx@@QEAA_NXZ 000000018001d690 f   ConvexMeshBuilder.obj
 0001:0001c7a0       ?computeMassInfo@ConvexMeshBuilder@physx@@QEAAX_N@Z 000000018001d7a0 f   ConvexMeshBuilder.obj
 0001:0001cb70       ?computeInternalObjects@ConvexMeshBuilder@physx@@QEAAXXZ 000000018001db70 f   ConvexMeshBuilder.obj
 0001:0001cff0       ?isFinite@PxVec3@physx@@QEBA_NXZ 000000018001dff0 f i ConvexMeshBuilder.obj
 0001:0001d050       ??0ConvexPolygonsBuilder@physx@@QEAA@PEAUConvexHullData@Gu@1@_N@Z 000000018001e050 f   ConvexPolygonsBuilder.obj
 0001:0001d080       ??1ConvexPolygonsBuilder@physx@@QEAA@XZ 000000018001e080 f   ConvexPolygonsBuilder.obj
 0001:0001d0d0       ?computeHullPolygons@ConvexPolygonsBuilder@physx@@QEAA_NAEBIPEBVPxVec3@2@0PEBI@Z 000000018001e0d0 f   ConvexPolygonsBuilder.obj
 0001:0001d3d0       ?createPolygonData@ConvexPolygonsBuilder@physx@@AEAA_NXZ 000000018001e3d0 f   ConvexPolygonsBuilder.obj
 0001:0001e000       ?createTrianglesFromPolygons@ConvexPolygonsBuilder@physx@@AEAA_NXZ 000000018001f000 f   ConvexPolygonsBuilder.obj
 0001:0001e920       ??$copy@VNamedAllocator@shdfnd@physx@@@?$Array@VPair@@VNamedAllocator@shdfnd@physx@@@shdfnd@physx@@IEAAXAEBV012@@Z 000000018001f920 f i ConvexPolygonsBuilder.obj
 0001:00020cb0       ?growAndPushBack@?$Array@VPair@@VNamedAllocator@shdfnd@physx@@@shdfnd@physx@@IEAAAEAVPair@@AEBV4@@Z 0000000180021cb0 f i ConvexPolygonsBuilder.obj
 0001:00020db0       ??0QuickHullConvexHullLib@physx@@QEAA@AEBVPxConvexMeshDesc@1@AEBUPxCookingParams@1@@Z 0000000180021db0 f   QuickHullConvexHullLib.obj
 0001:00020ea0       ??1QuickHullConvexHullLib@physx@@UEAA@XZ 0000000180021ea0 f   QuickHullConvexHullLib.obj
 0001:00020f70       ?createConvexHull@QuickHullConvexHullLib@physx@@UEAA?AW4Enum@PxConvexMeshCookingResult@2@XZ 0000000180021f70 f   QuickHullConvexHullLib.obj
 0001:00021510       ?fillConvexMeshDesc@QuickHullConvexHullLib@physx@@UEAAXAEAVPxConvexMeshDesc@2@@Z 0000000180022510 f   QuickHullConvexHullLib.obj
 0001:00021560       ?createEdgeList@QuickHullConvexHullLib@physx@@UEAA_NIPEBEPEAPEAEPEAPEAG2@Z 0000000180022560 f   QuickHullConvexHullLib.obj
 0001:000217a0       ?expandHullOBB@QuickHullConvexHullLib@physx@@IEAA?AW4Enum@PxConvexMeshCookingResult@2@XZ 00000001800227a0 f   QuickHullConvexHullLib.obj
 0001:00021be0       ?expandHull@QuickHullConvexHullLib@physx@@IEAA?AW4Enum@PxConvexMeshCookingResult@2@XZ 0000000180022be0 f   QuickHullConvexHullLib.obj
 0001:00022490       ?cleanupForSimplex@QuickHullConvexHullLib@physx@@IEAA_NPEAVPxVec3@2@IPEAUQuickHullVertex@local@@1AEAM2@Z 0000000180023490 f   QuickHullConvexHullLib.obj
 0001:00023010       ?fillConvexMeshDescFromQuickHull@QuickHullConvexHullLib@physx@@IEAAXAEAVPxConvexMeshDesc@2@@Z 0000000180024010 f   QuickHullConvexHullLib.obj
 0001:000233a0       ?fillConvexMeshDescFromCroppedHull@QuickHullConvexHullLib@physx@@IEAAXAEAVPxConvexMeshDesc@2@@Z 00000001800243a0 f   QuickHullConvexHullLib.obj
 0001:000235a0       ?getOppositeFaceDistance@QuickHullHalfEdge@local@@QEBAMXZ 00000001800245a0 f   QuickHullConvexHullLib.obj
 0001:000235e0       ?mergeAdjacentFace@QuickHullFace@local@@QEAA_NPEAUQuickHullHalfEdge@2@AEAV?$Array@PEAUQuickHullFace@local@@VNamedAllocator@shdfnd@physx@@@shdfnd@physx@@@Z 00000001800245e0 f   QuickHullConvexHullLib.obj
 0001:00023a30       ?checkFaceConsistency@QuickHullFace@local@@QEAA_NXZ 0000000180024a30 f   QuickHullConvexHullLib.obj
 0001:00023a40       ?connectHalfEdges@QuickHullFace@local@@AEAAPEAU12@PEAUQuickHullHalfEdge@2@0@Z 0000000180024a40 f   QuickHullConvexHullLib.obj
 0001:00023db0       ??0QuickHull@local@@QEAA@AEBUPxCookingParams@physx@@AEBVPxConvexMeshDesc@3@@Z 0000000180024db0 f   QuickHullConvexHullLib.obj
 0001:00023fb0       ??1QuickHull@local@@QEAA@XZ 0000000180024fb0 f   QuickHullConvexHullLib.obj
 0001:00024100       ?preallocate@QuickHull@local@@QEAAXI@Z 0000000180025100 f   QuickHullConvexHullLib.obj
 0001:00024250       ?parseInputVertices@QuickHull@local@@QEAAXPEBVPxVec3@physx@@I@Z 0000000180025250 f   QuickHullConvexHullLib.obj
 0001:000243c0       ?releaseHull@QuickHull@local@@QEAAXXZ 00000001800253c0 f   QuickHullConvexHullLib.obj
 0001:00024420       ?setPrecomputedMinMax@QuickHull@local@@QEAAXPEBUQuickHullVertex@2@0MM@Z 0000000180025420 f   QuickHullConvexHullLib.obj
 0001:000245b0       ?buildHull@QuickHull@local@@QEAA?AW4Enum@QuickHullResult@2@XZ 00000001800255b0 f   QuickHullConvexHullLib.obj
 0001:00024810       ?maxNumVertsPerFace@QuickHull@local@@QEBAIXZ 0000000180025810 f   QuickHullConvexHullLib.obj
 0001:00024850       ?computeMinMaxVerts@QuickHull@local@@IEAAXXZ 0000000180025850 f   QuickHullConvexHullLib.obj
 0001:00024c30       ?findSimplex@QuickHull@local@@IEAA_NXZ 0000000180025c30 f   QuickHullConvexHullLib.obj
 0001:000258b0       ?addSimplex@QuickHull@local@@IEAAXPEAUQuickHullVertex@2@_N@Z 00000001800268b0 f   QuickHullConvexHullLib.obj
 0001:00025d80       ?nextPointToAdd@QuickHull@local@@IEAAPEAUQuickHullVertex@2@AEAPEAUQuickHullFace@2@@Z 0000000180026d80 f   QuickHullConvexHullLib.obj
 0001:00025ee0       ?addPointToHull@QuickHull@local@@IEAA_NPEBUQuickHullVertex@2@AEAUQuickHullFace@2@AEA_N@Z 0000000180026ee0 f   QuickHullConvexHullLib.obj
 0001:000262d0       ?createTriangle@QuickHull@local@@IEAAPEAUQuickHullFace@2@AEBUQuickHullVertex@2@00@Z 00000001800272d0 f   QuickHullConvexHullLib.obj
 0001:00026680       ?addPointToFace@QuickHull@local@@IEAAXAEAUQuickHullFace@2@PEAUQuickHullVertex@2@M@Z 0000000180027680 f   QuickHullConvexHullLib.obj
 0001:000266d0       ?removeEyePointFromFace@QuickHull@local@@IEAAXAEAUQuickHullFace@2@PEBUQuickHullVertex@2@@Z 00000001800276d0 f   QuickHullConvexHullLib.obj
 0001:000266f0       ?calculateHorizon@QuickHull@local@@IEAAXAEBVPxVec3@physx@@PEAUQuickHullHalfEdge@2@AEAUQuickHullFace@2@AEAV?$Array@PEAUQuickHullHalfEdge@local@@VNamedAllocator@shdfnd@physx@@@shdfnd@4@AEAV?$Array@PEAUQuickHullFace@local@@VNamedAllocator@shdfnd@physx@@@84@@Z 00000001800276f0 f   QuickHullConvexHullLib.obj
 0001:000268a0       ?addNewFacesFromHorizon@QuickHull@local@@IEAAXPEBUQuickHullVertex@2@AEBV?$Array@PEAUQuickHullHalfEdge@local@@VNamedAllocator@shdfnd@physx@@@shdfnd@physx@@AEAV?$Array@PEAUQuickHullFace@local@@VNamedAllocator@shdfnd@physx@@@56@@Z 00000001800278a0 f   QuickHullConvexHullLib.obj
 0001:000269f0       ?doAdjacentMerge@QuickHull@local@@IEAA_NAEAUQuickHullFace@2@_NAEA_N@Z 00000001800279f0 f   QuickHullConvexHullLib.obj
 0001:00026c60       ?doPostAdjacentMerge@QuickHull@local@@IEAA_NAEAUQuickHullFace@2@M@Z 0000000180027c60 f   QuickHullConvexHullLib.obj
 0001:00026da0       ?deleteFacePoints@QuickHull@local@@IEAAXAEAUQuickHullFace@2@PEAU32@@Z 0000000180027da0 f   QuickHullConvexHullLib.obj
 0001:00026eb0       ?resolveUnclaimedPoints@QuickHull@local@@IEAAXAEBV?$Array@PEAUQuickHullFace@local@@VNamedAllocator@shdfnd@physx@@@shdfnd@physx@@@Z 0000000180027eb0 f   QuickHullConvexHullLib.obj
 0001:00027100       ?postMergeHull@QuickHull@local@@IEAAXXZ 0000000180028100 f   QuickHullConvexHullLib.obj
 0001:00027280       ?canMergeFaces@QuickHull@local@@IEAA_NAEBUQuickHullHalfEdge@2@@Z 0000000180028280 f   QuickHullConvexHullLib.obj
 0001:00027ac0       ?getExpandPoint@local@@YAXAEBUQuickHullHalfEdge@1@AEAUExpandPoint@1@PEBV?$Array@IVNamedAllocator@shdfnd@physx@@@shdfnd@physx@@@Z 0000000180028ac0 f   QuickHullConvexHullLib.obj
 0001:00027b50       ?addExpandPoint@local@@YAXAEBUExpandPoint@1@AEAV?$Array@UExpandPoint@local@@VNamedAllocator@shdfnd@physx@@@shdfnd@physx@@@Z 0000000180028b50 f   QuickHullConvexHullLib.obj
 0001:00027c30       ??0PxPlane@physx@@QEAA@AEBV01@@Z 0000000180028c30 f i QuickHullConvexHullLib.obj
 0001:00027c50       ??0QuickHullVertex@local@@QEAA@XZ 0000000180028c50 f i QuickHullConvexHullLib.obj
 0001:00027c60       ??1?$MemBlock@UQuickHullFace@local@@$00@local@@QEAA@XZ 0000000180028c60 f i QuickHullConvexHullLib.obj
 0001:00027ce0       ??1?$MemBlock@UQuickHullHalfEdge@local@@$0A@@local@@QEAA@XZ 0000000180028ce0 f i QuickHullConvexHullLib.obj
 0001:00027d60       ??_GConvexHull@physx@@QEAAPEAXI@Z 0000000180028d60 f i QuickHullConvexHullLib.obj
 0001:00027e30       ??_GQuickHullConvexHullLib@physx@@UEAAPEAXI@Z 0000000180028e30 f i QuickHullConvexHullLib.obj
 0001:00027e30       ??_EQuickHullConvexHullLib@physx@@UEAAPEAXI@Z 0000000180028e30 f i QuickHullConvexHullLib.obj
 0001:00027f30       ??__G@YAXPEAX0_K1P6APEAX00@Z@Z 0000000180028f30 f i QuickHullConvexHullLib.obj
 0001:00027f90       ?copy@?$Array@UExpandPoint@local@@VNamedAllocator@shdfnd@physx@@@shdfnd@physx@@KAXPEAUExpandPoint@local@@0PEBU45@@Z 0000000180028f90 f i QuickHullConvexHullLib.obj
 0001:00028040       ?getFreeItem@?$MemBlock@UQuickHullFace@local@@$00@local@@QEAAPEAUQuickHullFace@2@XZ 0000000180029040 f i QuickHullConvexHullLib.obj
 0001:00028170       ?getFreeItem@?$MemBlock@UQuickHullHalfEdge@local@@$0A@@local@@QEAAPEAUQuickHullHalfEdge@2@XZ 0000000180029170 f i QuickHullConvexHullLib.obj
 0001:00028250       ?growAndPushBack@?$Array@PEAUQuickHullFace@local@@VNamedAllocator@shdfnd@physx@@@shdfnd@physx@@IEAAAEAPEAUQuickHullFace@local@@AEBQEAU45@@Z 0000000180029250 f i QuickHullConvexHullLib.obj
 0001:00028340       ?growAndPushBack@?$Array@PEAUQuickHullHalfEdge@local@@VNamedAllocator@shdfnd@physx@@@shdfnd@physx@@IEAAAEAPEAUQuickHullHalfEdge@local@@AEBQEAU45@@Z 0000000180029340 f i QuickHullConvexHullLib.obj
 0001:00028430       ?growAndPushBack@?$Array@PEAUQuickHullVertex@local@@VNamedAllocator@shdfnd@physx@@@shdfnd@physx@@IEAAAEAPEAUQuickHullVertex@local@@AEBQEAU45@@Z 0000000180029430 f i QuickHullConvexHullLib.obj
 0001:00028520       ?growAndPushBack@?$Array@UExpandPoint@local@@VNamedAllocator@shdfnd@physx@@@shdfnd@physx@@IEAAAEAUExpandPoint@local@@AEBU45@@Z 0000000180029520 f i QuickHullConvexHullLib.obj
 0001:00028650       ?init@?$MemBlock@UQuickHullFace@local@@$00@local@@QEAAXI@Z 0000000180029650 f i QuickHullConvexHullLib.obj
 0001:00028730       ?init@?$MemBlock@UQuickHullHalfEdge@local@@$0A@@local@@QEAAXI@Z 0000000180029730 f i QuickHullConvexHullLib.obj
 0001:000287d0       ?recreate@?$Array@PEAUQuickHullFace@local@@VNamedAllocator@shdfnd@physx@@@shdfnd@physx@@IEAAXI@Z 00000001800297d0 f i QuickHullConvexHullLib.obj
 0001:000288b0       ?recreate@?$Array@PEAUQuickHullHalfEdge@local@@VNamedAllocator@shdfnd@physx@@@shdfnd@physx@@IEAAXI@Z 00000001800298b0 f i QuickHullConvexHullLib.obj
 0001:00028990       ?recreate@?$Array@PEAUQuickHullVertex@local@@VNamedAllocator@shdfnd@physx@@@shdfnd@physx@@IEAAXI@Z 0000000180029990 f i QuickHullConvexHullLib.obj
 0001:00028a70       ?recreate@?$Array@UExpandPoint@local@@VNamedAllocator@shdfnd@physx@@@shdfnd@physx@@IEAAXI@Z 0000000180029a70 f i QuickHullConvexHullLib.obj
 0001:00028b10       ?computeVolumeIntegrals@physx@@YA_NAEBVPxSimpleTriangleMesh@1@MAEAUPxIntegrals@1@@Z 0000000180029b10 f   VolumeIntegration.obj
 0001:00028b80       ?computeVolumeIntegralsEberly@physx@@YA_NAEBVPxConvexMeshDesc@1@MAEAUPxIntegrals@1@AEBVPxVec3@1@@Z 0000000180029b80 f   VolumeIntegration.obj
 0001:00028bd0       ?computeVolumeIntegralsEberlySIMD@physx@@YA_NAEBVPxConvexMeshDesc@1@MAEAUPxIntegrals@1@AEBVPxVec3@1@@Z 0000000180029bd0 f   VolumeIntegration.obj
 0001:0002b050       PxSetPhysXCookingDelayLoadHook 000000018002c050 f   WindowsCookingDelayLoadHook.obj
 0001:0002b060       ?delayHook@@YAP6A_JXZIPEAUDelayLoadInfo@@@Z 000000018002c060 f   WindowsCookingDelayLoadHook.obj
 0001:0002b138       __imp_load_??0RadixSortBuffered@Cm@physx@@QEAA@XZ 000000018002c138 f   PhysXCommon_64:PhysXCommon_64.dll
 0001:0002b144       ??0RadixSortBuffered@Cm@physx@@QEAA@XZ 000000018002c144 f   PhysXCommon_64:PhysXCommon_64.dll
 0001:0002b14a       __tailMerge_physxcommon_64_dll 000000018002c14a     PhysXCommon_64:PhysXCommon_64.dll
 0001:0002b1c3       __imp_load_??1RadixSortBuffered@Cm@physx@@UEAA@XZ 000000018002c1c3 f   PhysXCommon_64:PhysXCommon_64.dll
 0001:0002b1cf       ??1RadixSortBuffered@Cm@physx@@UEAA@XZ 000000018002c1cf f   PhysXCommon_64:PhysXCommon_64.dll
 0001:0002b1d5       __imp_load_?Sort@RadixSortBuffered@Cm@physx@@QEAAAEAV123@PEBIIW4RadixHint@23@@Z 000000018002c1d5 f   PhysXCommon_64:PhysXCommon_64.dll
 0001:0002b1e1       ?Sort@RadixSortBuffered@Cm@physx@@QEAAAEAV123@PEBIIW4RadixHint@23@@Z 000000018002c1e1 f   PhysXCommon_64:PhysXCommon_64.dll
 0001:0002b1e7       __imp_load_?readDword@physx@@YAI_NAEAVPxInputStream@1@@Z 000000018002c1e7 f   PhysXCommon_64:PhysXCommon_64.dll
 0001:0002b1f3       ?readDword@physx@@YAI_NAEAVPxInputStream@1@@Z 000000018002c1f3 f   PhysXCommon_64:PhysXCommon_64.dll
 0001:0002b1f9       __imp_load_?ReadHeader@Gu@physx@@YA_NEEEEAEAIAEA_NAEAVPxInputStream@2@@Z 000000018002c1f9 f   PhysXCommon_64:PhysXCommon_64.dll
 0001:0002b205       ?ReadHeader@Gu@physx@@YA_NEEEEAEAIAEA_NAEAVPxInputStream@2@@Z 000000018002c205 f   PhysXCommon_64:PhysXCommon_64.dll
 0001:0002b20b       __imp_load_?exportExtraData@ConvexMesh@Gu@physx@@UEAAXAEAVPxSerializationContext@3@@Z 000000018002c20b f   PhysXCommon_64:PhysXCommon_64.dll
 0001:0002b217       ?exportExtraData@ConvexMesh@Gu@physx@@UEAAXAEAVPxSerializationContext@3@@Z 000000018002c217 f   PhysXCommon_64:PhysXCommon_64.dll
 0001:0002b21d       __imp_load_?onRefCountZero@ConvexMesh@Gu@physx@@UEAAXXZ 000000018002c21d f   PhysXCommon_64:PhysXCommon_64.dll
 0001:0002b229       ?onRefCountZero@ConvexMesh@Gu@physx@@UEAAXXZ 000000018002c229 f   PhysXCommon_64:PhysXCommon_64.dll
 0001:0002b22f       __imp_load_?release@ConvexMesh@Gu@physx@@UEAAXXZ 000000018002c22f f   PhysXCommon_64:PhysXCommon_64.dll
 0001:0002b23b       ?release@ConvexMesh@Gu@physx@@UEAAXXZ 000000018002c23b f   PhysXCommon_64:PhysXCommon_64.dll
 0001:0002b241       __imp_load_?getPolygonData@ConvexMesh@Gu@physx@@UEBA_NIAEAUPxHullPolygon@3@@Z 000000018002c241 f   PhysXCommon_64:PhysXCommon_64.dll
 0001:0002b24d       ?getPolygonData@ConvexMesh@Gu@physx@@UEBA_NIAEAUPxHullPolygon@3@@Z 000000018002c24d f   PhysXCommon_64:PhysXCommon_64.dll
 0001:0002b253       __imp_load_?isGpuCompatible@ConvexMesh@Gu@physx@@UEBA_NXZ 000000018002c253 f   PhysXCommon_64:PhysXCommon_64.dll
 0001:0002b25f       ?isGpuCompatible@ConvexMesh@Gu@physx@@UEBA_NXZ 000000018002c25f f   PhysXCommon_64:PhysXCommon_64.dll
 0001:0002b265       __imp_load_?getReferenceCount@ConvexMesh@Gu@physx@@UEBAIXZ 000000018002c265 f   PhysXCommon_64:PhysXCommon_64.dll
 0001:0002b271       ?getReferenceCount@ConvexMesh@Gu@physx@@UEBAIXZ 000000018002c271 f   PhysXCommon_64:PhysXCommon_64.dll
 0001:0002b277       __imp_load_?acquireReference@ConvexMesh@Gu@physx@@UEAAXXZ 000000018002c277 f   PhysXCommon_64:PhysXCommon_64.dll
 0001:0002b283       ?acquireReference@ConvexMesh@Gu@physx@@UEAAXXZ 000000018002c283 f   PhysXCommon_64:PhysXCommon_64.dll
 0001:0002b289       __imp_load_?getMassInformation@ConvexMesh@Gu@physx@@UEBAXAEAMAEAVPxMat33@3@AEAVPxVec3@3@@Z 000000018002c289 f   PhysXCommon_64:PhysXCommon_64.dll
 0001:0002b295       ?getMassInformation@ConvexMesh@Gu@physx@@UEBAXAEAMAEAVPxMat33@3@AEAVPxVec3@3@@Z 000000018002c295 f   PhysXCommon_64:PhysXCommon_64.dll
 0001:0002b29b       __imp_load_?getLocalBounds@ConvexMesh@Gu@physx@@UEBA?AVPxBounds3@3@XZ 000000018002c29b f   PhysXCommon_64:PhysXCommon_64.dll
 0001:0002b2a7       ?getLocalBounds@ConvexMesh@Gu@physx@@UEBA?AVPxBounds3@3@XZ 000000018002c2a7 f   PhysXCommon_64:PhysXCommon_64.dll
 0001:0002b2ad       __imp_load_??1ConvexMesh@Gu@physx@@UEAA@XZ 000000018002c2ad f   PhysXCommon_64:PhysXCommon_64.dll
 0001:0002b2b9       ??1ConvexMesh@Gu@physx@@UEAA@XZ 000000018002c2b9 f   PhysXCommon_64:PhysXCommon_64.dll
 0001:0002b2bf       __imp_load_??0HeightField@Gu@physx@@QEAA@PEAVGuMeshFactory@2@@Z 000000018002c2bf f   PhysXCommon_64:PhysXCommon_64.dll
 0001:0002b2cb       ??0HeightField@Gu@physx@@QEAA@PEAVGuMeshFactory@2@@Z 000000018002c2cb f   PhysXCommon_64:PhysXCommon_64.dll
 0001:0002b2d1       __imp_load_?loadFromDesc@HeightField@Gu@physx@@QEAA_NAEBVPxHeightFieldDesc@3@@Z 000000018002c2d1 f   PhysXCommon_64:PhysXCommon_64.dll
 0001:0002b2dd       ?loadFromDesc@HeightField@Gu@physx@@QEAA_NAEBVPxHeightFieldDesc@3@@Z 000000018002c2dd f   PhysXCommon_64:PhysXCommon_64.dll
 0001:0002b2e3       __imp_load_?computeCellCoordinates@HeightField@Gu@physx@@QEBAIMMAEAM0@Z 000000018002c2e3 f   PhysXCommon_64:PhysXCommon_64.dll
 0001:0002b2ef       ?computeCellCoordinates@HeightField@Gu@physx@@QEBAIMMAEAM0@Z 000000018002c2ef f   PhysXCommon_64:PhysXCommon_64.dll
 0001:0002b2f5       __imp_load_?releaseMemory@HeightField@Gu@physx@@QEAAXXZ 000000018002c2f5 f   PhysXCommon_64:PhysXCommon_64.dll
 0001:0002b301       ?releaseMemory@HeightField@Gu@physx@@QEAAXXZ 000000018002c301 f   PhysXCommon_64:PhysXCommon_64.dll
 0001:0002b307       __imp_load_??1HeightField@Gu@physx@@UEAA@XZ 000000018002c307 f   PhysXCommon_64:PhysXCommon_64.dll
 0001:0002b313       ??1HeightField@Gu@physx@@UEAA@XZ 000000018002c313 f   PhysXCommon_64:PhysXCommon_64.dll
 0001:0002b319       __imp_load_??0NodeAllocator@Gu@physx@@QEAA@XZ 000000018002c319 f   PhysXCommon_64:PhysXCommon_64.dll
 0001:0002b325       ??0NodeAllocator@Gu@physx@@QEAA@XZ 000000018002c325 f   PhysXCommon_64:PhysXCommon_64.dll
 0001:0002b32b       __imp_load_??1NodeAllocator@Gu@physx@@QEAA@XZ 000000018002c32b f   PhysXCommon_64:PhysXCommon_64.dll
 0001:0002b337       ??1NodeAllocator@Gu@physx@@QEAA@XZ 000000018002c337 f   PhysXCommon_64:PhysXCommon_64.dll
 0001:0002b33d       __imp_load_?release@NodeAllocator@Gu@physx@@QEAAXXZ 000000018002c33d f   PhysXCommon_64:PhysXCommon_64.dll
 0001:0002b349       ?release@NodeAllocator@Gu@physx@@QEAAXXZ 000000018002c349 f   PhysXCommon_64:PhysXCommon_64.dll
 0001:0002b34f       __imp_load_?buildAABBTree@Gu@physx@@YA_NAEAVAABBTreeBuildParams@12@AEAVNodeAllocator@12@AEAUBuildStats@12@AEAPEAI@Z 000000018002c34f f   PhysXCommon_64:PhysXCommon_64.dll
 0001:0002b35b       ?buildAABBTree@Gu@physx@@YA_NAEAVAABBTreeBuildParams@12@AEAVNodeAllocator@12@AEAUBuildStats@12@AEAPEAI@Z 000000018002c35b f   PhysXCommon_64:PhysXCommon_64.dll
 0001:0002b361       __imp_load_?writeDword@physx@@YAXI_NAEAVPxOutputStream@1@@Z 000000018002c361 f   PhysXCommon_64:PhysXCommon_64.dll
 0001:0002b36d       ?writeDword@physx@@YAXI_NAEAVPxOutputStream@1@@Z 000000018002c36d f   PhysXCommon_64:PhysXCommon_64.dll
 0001:0002b373       __imp_load_?writeFloatBuffer@physx@@YAXPEBMI_NAEAVPxOutputStream@1@@Z 000000018002c373 f   PhysXCommon_64:PhysXCommon_64.dll
 0001:0002b37f       ?writeFloatBuffer@physx@@YAXPEBMI_NAEAVPxOutputStream@1@@Z 000000018002c37f f   PhysXCommon_64:PhysXCommon_64.dll
 0001:0002b385       __imp_load_?writeHeader@physx@@YA_NCCCCI_NAEAVPxOutputStream@1@@Z 000000018002c385 f   PhysXCommon_64:PhysXCommon_64.dll
 0001:0002b391       ?writeHeader@physx@@YA_NCCCCI_NAEAVPxOutputStream@1@@Z 000000018002c391 f   PhysXCommon_64:PhysXCommon_64.dll
 0001:0002b397       __imp_load_?writeWord@physx@@YAXG_NAEAVPxOutputStream@1@@Z 000000018002c397 f   PhysXCommon_64:PhysXCommon_64.dll
 0001:0002b3a3       ?writeWord@physx@@YAXG_NAEAVPxOutputStream@1@@Z 000000018002c3a3 f   PhysXCommon_64:PhysXCommon_64.dll
 0001:0002b3a9       __imp_load_?writeFloat@physx@@YAXM_NAEAVPxOutputStream@1@@Z 000000018002c3a9 f   PhysXCommon_64:PhysXCommon_64.dll
 0001:0002b3b5       ?writeFloat@physx@@YAXM_NAEAVPxOutputStream@1@@Z 000000018002c3b5 f   PhysXCommon_64:PhysXCommon_64.dll
 0001:0002b3bb       __imp_load_?computeBoundsAroundVertices@Gu@physx@@YAXAEAVPxBounds3@2@IPEIBVPxVec3@2@@Z 000000018002c3bb f   PhysXCommon_64:PhysXCommon_64.dll
 0001:0002b3c7       ?computeBoundsAroundVertices@Gu@physx@@YAXAEAVPxBounds3@2@IPEIBVPxVec3@2@@Z 000000018002c3c7 f   PhysXCommon_64:PhysXCommon_64.dll
 0001:0002b3cd       __imp_load_??0SourceMesh@Gu@physx@@QEAA@XZ 000000018002c3cd f   PhysXCommon_64:PhysXCommon_64.dll
 0001:0002b3d9       ??0SourceMesh@Gu@physx@@QEAA@XZ 000000018002c3d9 f   PhysXCommon_64:PhysXCommon_64.dll
 0001:0002b3df       __imp_load_??1SourceMesh@Gu@physx@@QEAA@XZ 000000018002c3df f   PhysXCommon_64:PhysXCommon_64.dll
 0001:0002b3eb       ??1SourceMesh@Gu@physx@@QEAA@XZ 000000018002c3eb f   PhysXCommon_64:PhysXCommon_64.dll
 0001:0002b3f1       __imp_load_??0BV4Tree@Gu@physx@@QEAA@XZ 000000018002c3f1 f   PhysXCommon_64:PhysXCommon_64.dll
 0001:0002b3fd       ??0BV4Tree@Gu@physx@@QEAA@XZ 000000018002c3fd f   PhysXCommon_64:PhysXCommon_64.dll
 0001:0002b403       __imp_load_??1BV4Tree@Gu@physx@@QEAA@XZ 000000018002c403 f   PhysXCommon_64:PhysXCommon_64.dll
 0001:0002b40f       ??1BV4Tree@Gu@physx@@QEAA@XZ 000000018002c40f f   PhysXCommon_64:PhysXCommon_64.dll
 0001:0002b415       __imp_load_??0BV32Tree@Gu@physx@@QEAA@XZ 000000018002c415 f   PhysXCommon_64:PhysXCommon_64.dll
 0001:0002b421       ??0BV32Tree@Gu@physx@@QEAA@XZ 000000018002c421 f   PhysXCommon_64:PhysXCommon_64.dll
 0001:0002b427       __imp_load_??1BV32Tree@Gu@physx@@QEAA@XZ 000000018002c427 f   PhysXCommon_64:PhysXCommon_64.dll
 0001:0002b433       ??1BV32Tree@Gu@physx@@QEAA@XZ 000000018002c433 f   PhysXCommon_64:PhysXCommon_64.dll
 0001:0002b439       __imp_load_?writeWordBuffer@physx@@YAXPEBGI_NAEAVPxOutputStream@1@@Z 000000018002c439 f   PhysXCommon_64:PhysXCommon_64.dll
 0001:0002b445       ?writeWordBuffer@physx@@YAXPEBGI_NAEAVPxOutputStream@1@@Z 000000018002c445 f   PhysXCommon_64:PhysXCommon_64.dll
 0001:0002b44b       __imp_load_?computeMaxIndex@physx@@YAIPEBII@Z 000000018002c44b f   PhysXCommon_64:PhysXCommon_64.dll
 0001:0002b457       ?computeMaxIndex@physx@@YAIPEBII@Z 000000018002c457 f   PhysXCommon_64:PhysXCommon_64.dll
 0001:0002b45d       __imp_load_?storeIndices@physx@@YAXIIPEBIAEAVPxOutputStream@1@_N@Z 000000018002c45d f   PhysXCommon_64:PhysXCommon_64.dll
 0001:0002b469       ?storeIndices@physx@@YAXIIPEBIAEAVPxOutputStream@1@_N@Z 000000018002c469 f   PhysXCommon_64:PhysXCommon_64.dll
 0001:0002b46f       __imp_load_?BuildBV4Ex@Gu@physx@@YA_NAEAVBV4Tree@12@AEAVSourceMesh@12@MI@Z 000000018002c46f f   PhysXCommon_64:PhysXCommon_64.dll
 0001:0002b47b       ?BuildBV4Ex@Gu@physx@@YA_NAEAVBV4Tree@12@AEAVSourceMesh@12@MI@Z 000000018002c47b f   PhysXCommon_64:PhysXCommon_64.dll
 0001:0002b481       __imp_load_?BuildBV32Ex@Gu@physx@@YA_NAEAVBV32Tree@12@AEAVSourceMesh@12@MI@Z 000000018002c481 f   PhysXCommon_64:PhysXCommon_64.dll
 0001:0002b48d       ?BuildBV32Ex@Gu@physx@@YA_NAEAVBV32Tree@12@AEAVSourceMesh@12@MI@Z 000000018002c48d f   PhysXCommon_64:PhysXCommon_64.dll
 0001:0002b493       __imp_load_?computeMaxIndex@physx@@YAGPEBGI@Z 000000018002c493 f   PhysXCommon_64:PhysXCommon_64.dll
 0001:0002b49f       ?computeMaxIndex@physx@@YAGPEBGI@Z 000000018002c49f f   PhysXCommon_64:PhysXCommon_64.dll
 0001:0002b4a5       __imp_load_?WriteHeader@Gu@physx@@YA_NEEEEI_NAEAVPxOutputStream@2@@Z 000000018002c4a5 f   PhysXCommon_64:PhysXCommon_64.dll
 0001:0002b4b1       ?WriteHeader@Gu@physx@@YA_NEEEEI_NAEAVPxOutputStream@2@@Z 000000018002c4b1 f   PhysXCommon_64:PhysXCommon_64.dll
 0001:0002b4b7       __imp_load_?StoreIndices@Gu@physx@@YAXGIPEBGAEAVPxOutputStream@2@_N@Z 000000018002c4b7 f   PhysXCommon_64:PhysXCommon_64.dll
 0001:0002b4c3       ?StoreIndices@Gu@physx@@YAXGIPEBGAEAVPxOutputStream@2@_N@Z 000000018002c4c3 f   PhysXCommon_64:PhysXCommon_64.dll
 0001:0002b4c9       __imp_load_?CreateOffsets@BigConvexData@physx@@IEAAXXZ 000000018002c4c9 f   PhysXCommon_64:PhysXCommon_64.dll
 0001:0002b4d5       ?CreateOffsets@BigConvexData@physx@@IEAAXXZ 000000018002c4d5 f   PhysXCommon_64:PhysXCommon_64.dll
 0001:0002b4db       __imp_load_?computeOBBPoints@Gu@physx@@YAXPEIAVPxVec3@2@AEBV32@1111@Z 000000018002c4db f   PhysXCommon_64:PhysXCommon_64.dll
 0001:0002b4e7       ?computeOBBPoints@Gu@physx@@YAXPEIAVPxVec3@2@AEBV32@1111@Z 000000018002c4e7 f   PhysXCommon_64:PhysXCommon_64.dll
 0001:0002b4ed       __imp_load_??0BigConvexData@physx@@QEAA@XZ 000000018002c4ed f   PhysXCommon_64:PhysXCommon_64.dll
 0001:0002b4f9       ??0BigConvexData@physx@@QEAA@XZ 000000018002c4f9 f   PhysXCommon_64:PhysXCommon_64.dll
 0001:0002b4ff       __imp_load_??1BigConvexData@physx@@QEAA@XZ 000000018002c4ff f   PhysXCommon_64:PhysXCommon_64.dll
 0001:0002b50b       ??1BigConvexData@physx@@QEAA@XZ 000000018002c50b f   PhysXCommon_64:PhysXCommon_64.dll
 0001:0002b511       __imp_load_PxGetFoundation 000000018002c511 f   PhysXFoundation_64:PhysXFoundation_64.dll
 0001:0002b51d       PxGetFoundation            000000018002c51d f   PhysXFoundation_64:PhysXFoundation_64.dll
 0001:0002b523       __tailMerge_physxfoundation_64_dll 000000018002c523     PhysXFoundation_64:PhysXFoundation_64.dll
 0001:0002b59c       __imp_load_?getAllocator@shdfnd@physx@@YAAEAVPxAllocatorCallback@2@XZ 000000018002c59c f   PhysXFoundation_64:PhysXFoundation_64.dll
 0001:0002b5a8       ?getAllocator@shdfnd@physx@@YAAEAVPxAllocatorCallback@2@XZ 000000018002c5a8 f   PhysXFoundation_64:PhysXFoundation_64.dll
 0001:0002b5ae       __imp_load_??0NamedAllocator@shdfnd@physx@@QEAA@PEBD@Z 000000018002c5ae f   PhysXFoundation_64:PhysXFoundation_64.dll
 0001:0002b5ba       ??0NamedAllocator@shdfnd@physx@@QEAA@PEBD@Z 000000018002c5ba f   PhysXFoundation_64:PhysXFoundation_64.dll
 0001:0002b5c0       __imp_load_?getInstance@Foundation@shdfnd@physx@@SAAEAV123@XZ 000000018002c5c0 f   PhysXFoundation_64:PhysXFoundation_64.dll
 0001:0002b5cc       ?getInstance@Foundation@shdfnd@physx@@SAAEAV123@XZ 000000018002c5cc f   PhysXFoundation_64:PhysXFoundation_64.dll
 0001:0002b5d2       __imp_load_?error@Foundation@shdfnd@physx@@QEAAXW4Enum@PxErrorCode@3@PEBDH1ZZ 000000018002c5d2 f   PhysXFoundation_64:PhysXFoundation_64.dll
 0001:0002b5de       ?error@Foundation@shdfnd@physx@@QEAAXW4Enum@PxErrorCode@3@PEBDH1ZZ 000000018002c5de f   PhysXFoundation_64:PhysXFoundation_64.dll
 0001:0002b5e4       __imp_load_?allocate@NamedAllocator@shdfnd@physx@@QEAAPEAX_KPEBDH@Z 000000018002c5e4 f   PhysXFoundation_64:PhysXFoundation_64.dll
 0001:0002b5f0       ?allocate@NamedAllocator@shdfnd@physx@@QEAAPEAX_KPEBDH@Z 000000018002c5f0 f   PhysXFoundation_64:PhysXFoundation_64.dll
 0001:0002b5f6       __imp_load_?deallocate@NamedAllocator@shdfnd@physx@@QEAAXPEAX@Z 000000018002c5f6 f   PhysXFoundation_64:PhysXFoundation_64.dll
 0001:0002b602       ?deallocate@NamedAllocator@shdfnd@physx@@QEAAXPEAX@Z 000000018002c602 f   PhysXFoundation_64:PhysXFoundation_64.dll
 0001:0002b608       __imp_load_?incRefCount@Foundation@shdfnd@physx@@SAXXZ 000000018002c608 f   PhysXFoundation_64:PhysXFoundation_64.dll
 0001:0002b614       ?incRefCount@Foundation@shdfnd@physx@@SAXXZ 000000018002c614 f   PhysXFoundation_64:PhysXFoundation_64.dll
 0001:0002b61a       __imp_load_?decRefCount@Foundation@shdfnd@physx@@SAXXZ 000000018002c61a f   PhysXFoundation_64:PhysXFoundation_64.dll
 0001:0002b626       ?decRefCount@Foundation@shdfnd@physx@@SAXXZ 000000018002c626 f   PhysXFoundation_64:PhysXFoundation_64.dll
 0001:0002b62c       __imp_load_??0FPUGuard@shdfnd@physx@@QEAA@XZ 000000018002c62c f   PhysXFoundation_64:PhysXFoundation_64.dll
 0001:0002b638       ??0FPUGuard@shdfnd@physx@@QEAA@XZ 000000018002c638 f   PhysXFoundation_64:PhysXFoundation_64.dll
 0001:0002b63e       __imp_load_??1FPUGuard@shdfnd@physx@@QEAA@XZ 000000018002c63e f   PhysXFoundation_64:PhysXFoundation_64.dll
 0001:0002b64a       ??1FPUGuard@shdfnd@physx@@QEAA@XZ 000000018002c64a f   PhysXFoundation_64:PhysXFoundation_64.dll
 0001:0002b650       __imp_load_??1NamedAllocator@shdfnd@physx@@QEAA@XZ 000000018002c650 f   PhysXFoundation_64:PhysXFoundation_64.dll
 0001:0002b65c       ??1NamedAllocator@shdfnd@physx@@QEAA@XZ 000000018002c65c f   PhysXFoundation_64:PhysXFoundation_64.dll
 0001:0002b662       __imp_load_??0NamedAllocator@shdfnd@physx@@QEAA@AEBV012@@Z 000000018002c662 f   PhysXFoundation_64:PhysXFoundation_64.dll
 0001:0002b66e       ??0NamedAllocator@shdfnd@physx@@QEAA@AEBV012@@Z 000000018002c66e f   PhysXFoundation_64:PhysXFoundation_64.dll
 0001:0002b674       __imp_load_?allocate@TempAllocator@shdfnd@physx@@QEAAPEAX_KPEBDH@Z 000000018002c674 f   PhysXFoundation_64:PhysXFoundation_64.dll
 0001:0002b680       ?allocate@TempAllocator@shdfnd@physx@@QEAAPEAX_KPEBDH@Z 000000018002c680 f   PhysXFoundation_64:PhysXFoundation_64.dll
 0001:0002b686       __imp_load_?deallocate@TempAllocator@shdfnd@physx@@QEAAXPEAX@Z 000000018002c686 f   PhysXFoundation_64:PhysXFoundation_64.dll
 0001:0002b692       ?deallocate@TempAllocator@shdfnd@physx@@QEAAXPEAX@Z 000000018002c692 f   PhysXFoundation_64:PhysXFoundation_64.dll
 0001:0002b698       __imp_load_?PxDiagonalize@physx@@YA?AVPxVec3@1@AEBVPxMat33@1@AEAVPxQuat@1@@Z 000000018002c698 f   PhysXFoundation_64:PhysXFoundation_64.dll
 0001:0002b6a4       ?PxDiagonalize@physx@@YA?AVPxVec3@1@AEBVPxMat33@1@AEAVPxQuat@1@@Z 000000018002c6a4 f   PhysXFoundation_64:PhysXFoundation_64.dll
 0001:0002b6aa       LoadLibraryA               000000018002c6aa f   kernel32:KERNEL32.dll
 0001:0002b6b0       ??$PFromRva@PEAP6A_JXZ@@YAPEAP6A_JXZK@Z 000000018002c6b0 f i Delayimp:delayhlp.obj
 0001:0002b6c0       ??$PFromRva@PEAPEAUHINSTANCE__@@@@YAPEAPEAUHINSTANCE__@@K@Z 000000018002c6c0 f i Delayimp:delayhlp.obj
 0001:0002b6d0       ??$PFromRva@PEAU_IMAGE_IMPORT_BY_NAME@@@@YAPEAU_IMAGE_IMPORT_BY_NAME@@K@Z 000000018002c6d0 f i Delayimp:delayhlp.obj
 0001:0002b6e0       ??$PFromRva@PEAU_IMAGE_THUNK_DATA64@@@@YAPEAU_IMAGE_THUNK_DATA64@@K@Z 000000018002c6e0 f i Delayimp:delayhlp.obj
 0001:0002b6f0       ??$PFromRva@PEBD@@YAPEBDK@Z 000000018002c6f0 f i Delayimp:delayhlp.obj
 0001:0002b700       ??$PFromRva@PEBUImgDelayDescr@@@@YAPEBUImgDelayDescr@@K@Z 000000018002c700 f i Delayimp:delayhlp.obj
 0001:0002b710       ??$PFromRva@PEBU_IMAGE_THUNK_DATA64@@@@YAPEBU_IMAGE_THUNK_DATA64@@K@Z 000000018002c710 f i Delayimp:delayhlp.obj
 0001:0002b720       ?CountOfImports@@YAIPEBU_IMAGE_THUNK_DATA64@@@Z 000000018002c720 f i Delayimp:delayhlp.obj
 0001:0002b734       ?DloadAcquireSectionWriteAccess@@YAXXZ 000000018002c734 f i Delayimp:delayhlp.obj
 0001:0002b7e0       ?DloadGetSRWLockFunctionPointers@@YAEXZ 000000018002c7e0 f i Delayimp:delayhlp.obj
 0001:0002b87c       ?DloadLock@@YAXXZ          000000018002c87c f i Delayimp:delayhlp.obj
 0001:0002b8c4       ?DloadMakePermanentImageCommit@@YAXPEAX_K@Z 000000018002c8c4 f i Delayimp:delayhlp.obj
 0001:0002b95c       ?DloadObtainSection@@YAPEAXPEAK0@Z 000000018002c95c f i Delayimp:delayhlp.obj
 0001:0002b9f8       ?DloadProtectSection@@YAXKPEAK@Z 000000018002c9f8 f i Delayimp:delayhlp.obj
 0001:0002ba88       ?DloadReleaseSectionWriteAccess@@YAXXZ 000000018002ca88 f i Delayimp:delayhlp.obj
 0001:0002bb1c       ?DloadUnlock@@YAXXZ        000000018002cb1c f i Delayimp:delayhlp.obj
 0001:0002bb5c       ?IndexFromPImgThunkData@@YAIPEBU_IMAGE_THUNK_DATA64@@0@Z 000000018002cb5c f i Delayimp:delayhlp.obj
 0001:0002bca4       HRESULT_FROM_WIN32         000000018002cca4 f i Delayimp:delayhlp.obj
 0001:0002bcb4       ReadAcquire64              000000018002ccb4 f i Delayimp:delayhlp.obj
 0001:0002bcb8       ReadPointerAcquire         000000018002ccb8 f i Delayimp:delayhlp.obj
 0001:0002bcbc       WritePointerRelease        000000018002ccbc f i Delayimp:delayhlp.obj
 0001:0002bcc0       WriteRelease64             000000018002ccc0 f i Delayimp:delayhlp.obj
 0001:0002bcc4       __FUnloadDelayLoadedDLL2   000000018002ccc4 f   Delayimp:delayhlp.obj
 0001:0002bd80       __HrLoadAllImportsForDll   000000018002cd80 f   Delayimp:delayhlp.obj
 0001:0002bdf4       __delayLoadHelper2         000000018002cdf4 f   Delayimp:delayhlp.obj
 0001:0002c0b4       ??3@YAXPEAX_K@Z            000000018002d0b4 f   MSVCRT:delete_scalar_size.obj
 0001:0002c0bc       ??_V@YAXPEAX_K@Z           000000018002d0bc f   MSVCRT:delete_array_size.obj
 0001:0002c0c4       ?__scrt_initialize_type_info@@YAXXZ 000000018002d0c4 f   MSVCRT:tncleanup.obj
 0001:0002c0d4       ?__scrt_uninitialize_type_info@@YAXXZ 000000018002d0d4 f   MSVCRT:tncleanup.obj
 0001:0002c0e0       ??1type_info@@UEAA@XZ      000000018002d0e0 f   MSVCRT:std_type_info_static.obj
 0001:0002c0ec       ??_Gtype_info@@UEAAPEAXI@Z 000000018002d0ec f i MSVCRT:std_type_info_static.obj
 0001:0002c0ec       ??_Etype_info@@UEAAPEAXI@Z 000000018002d0ec f i MSVCRT:std_type_info_static.obj
 0001:0002c130       __chkstk                   000000018002d130 f   MSVCRT:chkstk.obj
 0001:0002c130       _alloca_probe              000000018002d130 f   MSVCRT:chkstk.obj
 0001:0002c184       ??3@YAXPEAX@Z              000000018002d184 f   MSVCRT:delete_scalar.obj
 0001:0002c18c       ??_V@YAXPEAX@Z             000000018002d18c f   MSVCRT:delete_array.obj
 0001:0002c1a0       __vdecl_sinf4              000000018002d1a0 f   MSVCRT:svml_ssinf4_dispatch.obj
 0001:0002c1b0       __libm_sse2_sincosf_       000000018002d1b0 f   MSVCRT:svml_ssinf4_dispatch.obj
 0001:0002c1f6       __libm_sse2_sincosf4_      000000018002d1f6 f   MSVCRT:svml_ssinf4_dispatch.obj
 0001:0002c554       _CRT_INIT                  000000018002d554 f   MSVCRT:dll_dllmain.obj
 0001:0002c55c       _DllMainCRTStartup         000000018002d55c f   MSVCRT:dll_dllmain.obj
 0001:0002c59c       _guard_check_icall_nop     000000018002d59c f i MSVCRT:guard_support.obj
 0001:0002c5a0       ReadNoFence64              000000018002d5a0 f i MSVCRT:guard_support.obj
 0001:0002c5a4       ReadPointerNoFence         000000018002d5a4 f i MSVCRT:guard_support.obj
 0001:0002c5a8       _guard_icall_checks_enforced 000000018002d5a8 f i MSVCRT:guard_support.obj
 0001:0002c5c0       _guard_rf_checks_enforced  000000018002d5c0 f i MSVCRT:guard_support.obj
 0001:0002c5d0       __sse2_sinf4               000000018002d5d0 f   MSVCRT:svml_ssinf4_sse2.obj
 0001:0002cefc       __security_init_cookie     000000018002defc f   MSVCRT:gs_support.obj
 0001:0002cfa8       DllMain                    000000018002dfa8 f   MSVCRT:dll_dllmain_stub.obj
 0001:0002cfcc       __local_stdio_printf_options 000000018002dfcc f i MSVCRT:default_local_stdio_options.obj
 0001:0002cfd4       __local_stdio_scanf_options 000000018002dfd4 f i MSVCRT:default_local_stdio_options.obj
 0001:0002cfdc       __scrt_initialize_default_local_stdio_options 000000018002dfdc f   MSVCRT:default_local_stdio_options.obj
 0001:0002cff8       ??$__crt_fast_decode_pointer@PEAP6AXXZ@@YAPEAP6AXXZQEAP6AXXZ@Z 000000018002dff8 f i MSVCRT:utility.obj
 0001:0002d010       ??$__crt_fast_encode_pointer@PEAP6AXXZ@@YAPEAP6AXXZQEAP6AXXZ@Z 000000018002e010 f i MSVCRT:utility.obj
 0001:0002d030       ?__crt_rotate_pointer_value@@YA_K_KH@Z 000000018002e030 f i MSVCRT:utility.obj
 0001:0002d03c       ?configure_argv@__scrt_narrow_argv_policy@@SAHXZ 000000018002e03c f i MSVCRT:utility.obj
 0001:0002d09c       ?initialize_environment@__scrt_narrow_environment_policy@@SAHXZ 000000018002e09c f i MSVCRT:utility.obj
 0001:0002d0d4       NtCurrentTeb               000000018002e0d4 f i MSVCRT:utility.obj
 0001:0002d0e0       __scrt_acquire_startup_lock 000000018002e0e0 f   MSVCRT:utility.obj
 0001:0002d11c       __scrt_dllmain_after_initialize_c 000000018002e11c f   MSVCRT:utility.obj
 0001:0002d150       __scrt_dllmain_before_initialize_c 000000018002e150 f   MSVCRT:utility.obj
 0001:0002d168       __scrt_dllmain_crt_thread_attach 000000018002e168 f   MSVCRT:utility.obj
 0001:0002d190       __scrt_dllmain_crt_thread_detach 000000018002e190 f   MSVCRT:utility.obj
 0001:0002d1a8       __scrt_dllmain_exception_filter 000000018002e1a8 f   MSVCRT:utility.obj
 0001:0002d208       __scrt_dllmain_uninitialize_c 000000018002e208 f   MSVCRT:utility.obj
 0001:0002d238       __scrt_dllmain_uninitialize_critical 000000018002e238 f   MSVCRT:utility.obj
 0001:0002d24c       __scrt_initialize_crt      000000018002e24c f   MSVCRT:utility.obj
 0001:0002d298       __scrt_initialize_onexit_tables 000000018002e298 f   MSVCRT:utility.obj
 0001:0002d370       __scrt_is_nonwritable_in_current_image 000000018002e370 f   MSVCRT:utility.obj
 0001:0002d40c       __scrt_release_startup_lock 000000018002e40c f   MSVCRT:utility.obj
 0001:0002d430       __scrt_uninitialize_crt    000000018002e430 f   MSVCRT:utility.obj
 0001:0002d45c       _onexit                    000000018002e45c f   MSVCRT:utility.obj
 0001:0002d4ac       at_quick_exit              000000018002e4ac f   MSVCRT:utility.obj
 0001:0002d4e4       atexit                     000000018002e4e4 f   MSVCRT:utility.obj
 0001:0002d4fc       __scrt_get_dyn_tls_init_callback 000000018002e4fc f   MSVCRT:dyn_tls_init.obj
 0001:0002d504       __crt_debugger_hook        000000018002e504 f   MSVCRT:utility_desktop.obj
 0001:0002d50c       __scrt_fastfail            000000018002e50c f   MSVCRT:utility_desktop.obj
 0001:0002d658       __scrt_get_show_window_mode 000000018002e658 f   MSVCRT:utility_desktop.obj
 0001:0002d694       __scrt_initialize_mta      000000018002e694 f   MSVCRT:utility_desktop.obj
 0001:0002d69c       __scrt_initialize_winrt    000000018002e69c f   MSVCRT:utility_desktop.obj
 0001:0002d6a0       __scrt_is_managed_app      000000018002e6a0 f   MSVCRT:utility_desktop.obj
 0001:0002d6f4       __scrt_set_unhandled_exception_filter 000000018002e6f4 f   MSVCRT:utility_desktop.obj
 0001:0002d704       __scrt_exe_initialize_mta  000000018002e704 f   MSVCRT:utility_desktop.obj
 0001:0002d704       __scrt_stub_for_initialize_mta 000000018002e704 f   MSVCRT:utility_desktop.obj
 0001:0002d708       __scrt_unhandled_exception_filter 000000018002e708 f   MSVCRT:utility_desktop.obj
 0001:0002d740       _RTC_Initialize            000000018002e740 f   MSVCRT:initsect.obj
 0001:0002d77c       _RTC_Terminate             000000018002e77c f   MSVCRT:initsect.obj
 0001:0002d7c0       __isa_available_init       000000018002e7c0 f   MSVCRT:cpu_disp.obj
 0001:0002d97c       _get_startup_argv_mode     000000018002e97c f   MSVCRT:argv_mode.obj
 0001:0002d984       __scrt_is_ucrt_dll_in_use  000000018002e984 f   MSVCRT:ucrt_detection.obj
 0001:0002d990       _purecall                  000000018002e990 f   vcruntime:VCRUNTIME140.dll
 0001:0002d996       __std_type_info_name       000000018002e996 f   vcruntime:VCRUNTIME140.dll
 0001:0002d99c       memset                     000000018002e99c f   vcruntime:VCRUNTIME140.dll
 0001:0002d9a2       memcpy                     000000018002e9a2 f   vcruntime:VCRUNTIME140.dll
 0001:0002d9a8       strstr                     000000018002e9a8 f   vcruntime:VCRUNTIME140.dll
 0001:0002d9ae       __std_type_info_destroy_list 000000018002e9ae f   vcruntime:VCRUNTIME140.dll
 0001:0002d9b4       __C_specific_handler       000000018002e9b4 f   vcruntime:VCRUNTIME140.dll
 0001:0002d9ba       strcmp                     000000018002e9ba f   ucrt:api-ms-win-crt-string-l1-1-0.dll
 0001:0002d9c0       atan2f                     000000018002e9c0 f   ucrt:api-ms-win-crt-math-l1-1-0.dll
 0001:0002d9c6       _fpclass                   000000018002e9c6 f   ucrt:api-ms-win-crt-math-l1-1-0.dll
 0001:0002d9cc       cosf                       000000018002e9cc f   ucrt:api-ms-win-crt-math-l1-1-0.dll
 0001:0002d9d2       sinf                       000000018002e9d2 f   ucrt:api-ms-win-crt-math-l1-1-0.dll
 0001:0002d9d8       free                       000000018002e9d8 f   ucrt:api-ms-win-crt-heap-l1-1-0.dll
 0001:0002d9de       _initterm                  000000018002e9de f   ucrt:api-ms-win-crt-runtime-l1-1-0.dll
 0001:0002d9e4       _initterm_e                000000018002e9e4 f   ucrt:api-ms-win-crt-runtime-l1-1-0.dll
 0001:0002d9ea       _seh_filter_dll            000000018002e9ea f   ucrt:api-ms-win-crt-runtime-l1-1-0.dll
 0001:0002d9f0       _configure_narrow_argv     000000018002e9f0 f   ucrt:api-ms-win-crt-runtime-l1-1-0.dll
 0001:0002d9f6       _initialize_narrow_environment 000000018002e9f6 f   ucrt:api-ms-win-crt-runtime-l1-1-0.dll
 0001:0002d9fc       _initialize_onexit_table   000000018002e9fc f   ucrt:api-ms-win-crt-runtime-l1-1-0.dll
 0001:0002da02       _register_onexit_function  000000018002ea02 f   ucrt:api-ms-win-crt-runtime-l1-1-0.dll
 0001:0002da08       _execute_onexit_table      000000018002ea08 f   ucrt:api-ms-win-crt-runtime-l1-1-0.dll
 0001:0002da0e       _crt_atexit                000000018002ea0e f   ucrt:api-ms-win-crt-runtime-l1-1-0.dll
 0001:0002da14       _crt_at_quick_exit         000000018002ea14 f   ucrt:api-ms-win-crt-runtime-l1-1-0.dll
 0001:0002da1a       _cexit                     000000018002ea1a f   ucrt:api-ms-win-crt-runtime-l1-1-0.dll
 0001:0002da20       terminate                  000000018002ea20 f   ucrt:api-ms-win-crt-runtime-l1-1-0.dll
 0001:0002da26       RaiseException             000000018002ea26 f   kernel32:KERNEL32.dll
 0001:0002da2c       GetLastError               000000018002ea2c f   kernel32:KERNEL32.dll
 0001:0002da32       GetSystemInfo              000000018002ea32 f   kernel32:KERNEL32.dll
 0001:0002da38       VirtualProtect             000000018002ea38 f   kernel32:KERNEL32.dll
 0001:0002da3e       VirtualQuery               000000018002ea3e f   kernel32:KERNEL32.dll
 0001:0002da44       FreeLibrary                000000018002ea44 f   kernel32:KERNEL32.dll
 0001:0002da4a       GetModuleHandleW           000000018002ea4a f   kernel32:KERNEL32.dll
 0001:0002da50       GetProcAddress             000000018002ea50 f   kernel32:KERNEL32.dll
 0001:0002da56       LoadLibraryExA             000000018002ea56 f   kernel32:KERNEL32.dll
 0001:0002da5c       InitializeSListHead        000000018002ea5c f   kernel32:KERNEL32.dll
 0001:0002da62       QueryPerformanceCounter    000000018002ea62 f   kernel32:KERNEL32.dll
 0001:0002da68       GetCurrentProcessId        000000018002ea68 f   kernel32:KERNEL32.dll
 0001:0002da6e       GetCurrentThreadId         000000018002ea6e f   kernel32:KERNEL32.dll
 0001:0002da74       GetSystemTimeAsFileTime    000000018002ea74 f   kernel32:KERNEL32.dll
 0001:0002da7a       DisableThreadLibraryCalls  000000018002ea7a f   kernel32:KERNEL32.dll
 0001:0002da80       RtlCaptureContext          000000018002ea80 f   kernel32:KERNEL32.dll
 0001:0002da86       RtlLookupFunctionEntry     000000018002ea86 f   kernel32:KERNEL32.dll
 0001:0002da8c       RtlVirtualUnwind           000000018002ea8c f   kernel32:KERNEL32.dll
 0001:0002da92       IsDebuggerPresent          000000018002ea92 f   kernel32:KERNEL32.dll
 0001:0002da98       UnhandledExceptionFilter   000000018002ea98 f   kernel32:KERNEL32.dll
 0001:0002da9e       SetUnhandledExceptionFilter 000000018002ea9e f   kernel32:KERNEL32.dll
 0001:0002daa4       GetStartupInfoW            000000018002eaa4 f   kernel32:KERNEL32.dll
 0001:0002daaa       IsProcessorFeaturePresent  000000018002eaaa f   kernel32:KERNEL32.dll
 0001:0002dab0       __scrt_stub_for_acrt_initialize 000000018002eab0 f   MSVCRT:ucrt_stubs.obj
 0001:0002dab0       __acrt_initialize          000000018002eab0 f   MSVCRT:ucrt_stubs.obj
 0001:0002dab0       __vcrt_initialize          000000018002eab0 f   MSVCRT:ucrt_stubs.obj
 0001:0002dab4       __scrt_stub_for_acrt_thread_attach 000000018002eab4 f   MSVCRT:ucrt_stubs.obj
 0001:0002dab4       __vcrt_thread_attach       000000018002eab4 f   MSVCRT:ucrt_stubs.obj
 0001:0002dab4       __acrt_thread_attach       000000018002eab4 f   MSVCRT:ucrt_stubs.obj
 0001:0002dab8       __scrt_stub_for_acrt_thread_detach 000000018002eab8 f   MSVCRT:ucrt_stubs.obj
 0001:0002dab8       __vcrt_thread_detach       000000018002eab8 f   MSVCRT:ucrt_stubs.obj
 0001:0002dab8       __acrt_thread_detach       000000018002eab8 f   MSVCRT:ucrt_stubs.obj
 0001:0002dabc       __scrt_stub_for_acrt_uninitialize 000000018002eabc f   MSVCRT:ucrt_stubs.obj
 0001:0002dabc       __acrt_uninitialize        000000018002eabc f   MSVCRT:ucrt_stubs.obj
 0001:0002dabc       __vcrt_uninitialize        000000018002eabc f   MSVCRT:ucrt_stubs.obj
 0001:0002dac0       __vcrt_uninitialize_critical 000000018002eac0 f   MSVCRT:ucrt_stubs.obj
 0001:0002dac0       __acrt_uninitialize_critical 000000018002eac0 f   MSVCRT:ucrt_stubs.obj
 0001:0002dac0       __scrt_stub_for_acrt_uninitialize_critical 000000018002eac0 f   MSVCRT:ucrt_stubs.obj
 0001:0002dac4       _is_c_termination_complete 000000018002eac4 f   MSVCRT:ucrt_stubs.obj
 0001:0002dac4       __scrt_stub_for_is_c_termination_complete 000000018002eac4 f   MSVCRT:ucrt_stubs.obj
 0001:0002dae0       _guard_dispatch_icall_nop  000000018002eae0 f   MSVCRT:guard_dispatch.obj
 0002:00000000       __imp_LoadLibraryA         000000018002f000     kernel32:KERNEL32.dll
 0002:00000008       __imp_GetStartupInfoW      000000018002f008     kernel32:KERNEL32.dll
 0002:00000010       __imp_SetUnhandledExceptionFilter 000000018002f010     kernel32:KERNEL32.dll
 0002:00000018       __imp_UnhandledExceptionFilter 000000018002f018     kernel32:KERNEL32.dll
 0002:00000020       __imp_IsDebuggerPresent    000000018002f020     kernel32:KERNEL32.dll
 0002:00000028       __imp_RtlVirtualUnwind     000000018002f028     kernel32:KERNEL32.dll
 0002:00000030       __imp_RtlLookupFunctionEntry 000000018002f030     kernel32:KERNEL32.dll
 0002:00000038       __imp_RtlCaptureContext    000000018002f038     kernel32:KERNEL32.dll
 0002:00000040       __imp_DisableThreadLibraryCalls 000000018002f040     kernel32:KERNEL32.dll
 0002:00000048       __imp_GetSystemTimeAsFileTime 000000018002f048     kernel32:KERNEL32.dll
 0002:00000050       __imp_GetCurrentThreadId   000000018002f050     kernel32:KERNEL32.dll
 0002:00000058       __imp_GetCurrentProcessId  000000018002f058     kernel32:KERNEL32.dll
 0002:00000060       __imp_QueryPerformanceCounter 000000018002f060     kernel32:KERNEL32.dll
 0002:00000068       __imp_InitializeSListHead  000000018002f068     kernel32:KERNEL32.dll
 0002:00000070       __imp_LoadLibraryExA       000000018002f070     kernel32:KERNEL32.dll
 0002:00000078       __imp_GetProcAddress       000000018002f078     kernel32:KERNEL32.dll
 0002:00000080       __imp_GetModuleHandleW     000000018002f080     kernel32:KERNEL32.dll
 0002:00000088       __imp_FreeLibrary          000000018002f088     kernel32:KERNEL32.dll
 0002:00000090       __imp_VirtualQuery         000000018002f090     kernel32:KERNEL32.dll
 0002:00000098       __imp_VirtualProtect       000000018002f098     kernel32:KERNEL32.dll
 0002:000000a0       __imp_GetSystemInfo        000000018002f0a0     kernel32:KERNEL32.dll
 0002:000000a8       __imp_GetLastError         000000018002f0a8     kernel32:KERNEL32.dll
 0002:000000b0       __imp_RaiseException       000000018002f0b0     kernel32:KERNEL32.dll
 0002:000000b8       __imp_IsProcessorFeaturePresent 000000018002f0b8     kernel32:KERNEL32.dll
 0002:000000c0       \177KERNEL32_NULL_THUNK_DATA 000000018002f0c0     kernel32:KERNEL32.dll
 0002:000000c8       __imp_memcpy               000000018002f0c8     vcruntime:VCRUNTIME140.dll
 0002:000000d0       __imp_strstr               000000018002f0d0     vcruntime:VCRUNTIME140.dll
 0002:000000d8       __imp___std_type_info_destroy_list 000000018002f0d8     vcruntime:VCRUNTIME140.dll
 0002:000000e0       __imp_memset               000000018002f0e0     vcruntime:VCRUNTIME140.dll
 0002:000000e8       __imp___C_specific_handler 000000018002f0e8     vcruntime:VCRUNTIME140.dll
 0002:000000f0       __imp__purecall            000000018002f0f0     vcruntime:VCRUNTIME140.dll
 0002:000000f8       __imp___std_type_info_name 000000018002f0f8     vcruntime:VCRUNTIME140.dll
 0002:00000100       \177VCRUNTIME140_NULL_THUNK_DATA 000000018002f100     vcruntime:VCRUNTIME140.dll
 0002:00000108       __imp_free                 000000018002f108     ucrt:api-ms-win-crt-heap-l1-1-0.dll
 0002:00000110       \177api-ms-win-crt-heap-l1-1-0_NULL_THUNK_DATA 000000018002f110     ucrt:api-ms-win-crt-heap-l1-1-0.dll
 0002:00000118       __imp__fpclass             000000018002f118     ucrt:api-ms-win-crt-math-l1-1-0.dll
 0002:00000120       __imp_atan2f               000000018002f120     ucrt:api-ms-win-crt-math-l1-1-0.dll
 0002:00000128       __imp_cosf                 000000018002f128     ucrt:api-ms-win-crt-math-l1-1-0.dll
 0002:00000130       __imp_sinf                 000000018002f130     ucrt:api-ms-win-crt-math-l1-1-0.dll
 0002:00000138       \177api-ms-win-crt-math-l1-1-0_NULL_THUNK_DATA 000000018002f138     ucrt:api-ms-win-crt-math-l1-1-0.dll
 0002:00000140       __imp__initialize_onexit_table 000000018002f140     ucrt:api-ms-win-crt-runtime-l1-1-0.dll
 0002:00000148       __imp__initialize_narrow_environment 000000018002f148     ucrt:api-ms-win-crt-runtime-l1-1-0.dll
 0002:00000150       __imp__seh_filter_dll      000000018002f150     ucrt:api-ms-win-crt-runtime-l1-1-0.dll
 0002:00000158       __imp__register_onexit_function 000000018002f158     ucrt:api-ms-win-crt-runtime-l1-1-0.dll
 0002:00000160       __imp__configure_narrow_argv 000000018002f160     ucrt:api-ms-win-crt-runtime-l1-1-0.dll
 0002:00000168       __imp__initterm            000000018002f168     ucrt:api-ms-win-crt-runtime-l1-1-0.dll
 0002:00000170       __imp__crt_atexit          000000018002f170     ucrt:api-ms-win-crt-runtime-l1-1-0.dll
 0002:00000178       __imp__execute_onexit_table 000000018002f178     ucrt:api-ms-win-crt-runtime-l1-1-0.dll
 0002:00000180       __imp__cexit               000000018002f180     ucrt:api-ms-win-crt-runtime-l1-1-0.dll
 0002:00000188       __imp__crt_at_quick_exit   000000018002f188     ucrt:api-ms-win-crt-runtime-l1-1-0.dll
 0002:00000190       __imp__initterm_e          000000018002f190     ucrt:api-ms-win-crt-runtime-l1-1-0.dll
 0002:00000198       __imp_terminate            000000018002f198     ucrt:api-ms-win-crt-runtime-l1-1-0.dll
 0002:000001a0       \177api-ms-win-crt-runtime-l1-1-0_NULL_THUNK_DATA 000000018002f1a0     ucrt:api-ms-win-crt-runtime-l1-1-0.dll
 0002:000001a8       __imp_strcmp               000000018002f1a8     ucrt:api-ms-win-crt-string-l1-1-0.dll
 0002:000001b0       \177api-ms-win-crt-string-l1-1-0_NULL_THUNK_DATA 000000018002f1b0     ucrt:api-ms-win-crt-string-l1-1-0.dll
 0002:000001b8       __guard_check_icall_fptr   000000018002f1b8     MSVCRT:guard_support.obj
 0002:000001c0       __guard_dispatch_icall_fptr 000000018002f1c0     MSVCRT:guard_support.obj
 0002:000001c8       __xc_a                     000000018002f1c8     MSVCRT:initializers.obj
 0002:000003b0       __xc_z                     000000018002f3b0     MSVCRT:initializers.obj
 0002:000003b8       __xi_a                     000000018002f3b8     MSVCRT:initializers.obj
 0002:000003c0       __xi_z                     000000018002f3c0     MSVCRT:initializers.obj
 0002:000003c8       __xp_a                     000000018002f3c8     MSVCRT:initializers.obj
 0002:000003d0       __xp_z                     000000018002f3d0     MSVCRT:initializers.obj
 0002:000003d8       __xt_a                     000000018002f3d8     MSVCRT:initializers.obj
 0002:000003e0       __xt_z                     000000018002f3e0     MSVCRT:initializers.obj
 0002:000003f0       ??_7PxFoundation@physx@@6B@ 000000018002f3f0     Adjacencies.obj
 0002:00000430       ??_C@_0DC@DMHHONHL@Adjacencies?3?3GetBoundaryVertice@ 000000018002f430     Adjacencies.obj
 0002:00000470       ??_C@_0FK@NFALIBFC@C?3?2Users?2h?4shin?2Desktop?2PhysX?94@ 000000018002f470     Adjacencies.obj
 0002:000004d0       ??_C@_0CK@KKNAOLHI@Adjacencies?3?3MakeLastRef?3?5NULL?5@ 000000018002f4d0     Adjacencies.obj
 0002:00000500       ??_C@_0DA@FMEHLBKI@Adjacencies?3?3UpdateLink?3?5invali@ 000000018002f500     Adjacencies.obj
 0002:00000530       ??_C@_0EA@CPHOACLK@Adjacencies?3?3CreateDatabase?3?5ca@ 000000018002f530     Adjacencies.obj
 0002:00000570       ??_C@_0BM@OIFKLHDN@?$DMallocation?5names?5disabled?$DO@ 000000018002f570     Adjacencies.obj
 0002:00000590       ?g_PXSinCoefficients0@aos@shdfnd@physx@@3UPX_VECTORF32@123@B 000000018002f590     Cooking.obj
 0002:000005a0       ?g_PXSinCoefficients1@aos@shdfnd@physx@@3UPX_VECTORF32@123@B 000000018002f5a0     Cooking.obj
 0002:000005b0       ?g_PXSinCoefficients2@aos@shdfnd@physx@@3UPX_VECTORF32@123@B 000000018002f5b0     Cooking.obj
 0002:000005c0       ?g_PXCosCoefficients0@aos@shdfnd@physx@@3UPX_VECTORF32@123@B 000000018002f5c0     Cooking.obj
 0002:000005d0       ?g_PXCosCoefficients1@aos@shdfnd@physx@@3UPX_VECTORF32@123@B 000000018002f5d0     Cooking.obj
 0002:000005e0       ?g_PXCosCoefficients2@aos@shdfnd@physx@@3UPX_VECTORF32@123@B 000000018002f5e0     Cooking.obj
 0002:000005f0       ?g_PXTanCoefficients0@aos@shdfnd@physx@@3UPX_VECTORF32@123@B 000000018002f5f0     Cooking.obj
 0002:00000600       ?g_PXTanCoefficients1@aos@shdfnd@physx@@3UPX_VECTORF32@123@B 000000018002f600     Cooking.obj
 0002:00000610       ?g_PXTanCoefficients2@aos@shdfnd@physx@@3UPX_VECTORF32@123@B 000000018002f610     Cooking.obj
 0002:00000620       ?g_PXASinCoefficients0@aos@shdfnd@physx@@3UPX_VECTORF32@123@B 000000018002f620     Cooking.obj
 0002:00000630       ?g_PXASinCoefficients1@aos@shdfnd@physx@@3UPX_VECTORF32@123@B 000000018002f630     Cooking.obj
 0002:00000640       ?g_PXASinCoefficients2@aos@shdfnd@physx@@3UPX_VECTORF32@123@B 000000018002f640     Cooking.obj
 0002:00000650       ?g_PXATanCoefficients0@aos@shdfnd@physx@@3UPX_VECTORF32@123@B 000000018002f650     Cooking.obj
 0002:00000660       ?g_PXATanCoefficients1@aos@shdfnd@physx@@3UPX_VECTORF32@123@B 000000018002f660     Cooking.obj
 0002:00000670       ?g_PXATanCoefficients2@aos@shdfnd@physx@@3UPX_VECTORF32@123@B 000000018002f670     Cooking.obj
 0002:00000680       ?g_PXSinEstCoefficients@aos@shdfnd@physx@@3UPX_VECTORF32@123@B 000000018002f680     Cooking.obj
 0002:00000690       ?g_PXCosEstCoefficients@aos@shdfnd@physx@@3UPX_VECTORF32@123@B 000000018002f690     Cooking.obj
 0002:000006a0       ?g_PXTanEstCoefficients@aos@shdfnd@physx@@3UPX_VECTORF32@123@B 000000018002f6a0     Cooking.obj
 0002:000006b0       ?g_PXATanEstCoefficients@aos@shdfnd@physx@@3UPX_VECTORF32@123@B 000000018002f6b0     Cooking.obj
 0002:000006c0       ?g_PXASinEstCoefficients@aos@shdfnd@physx@@3UPX_VECTORF32@123@B 000000018002f6c0     Cooking.obj
 0002:000006d0       ?g_PXASinEstConstants@aos@shdfnd@physx@@3UPX_VECTORF32@123@B 000000018002f6d0     Cooking.obj
 0002:000006e0       ?g_PXPiConstants0@aos@shdfnd@physx@@3UPX_VECTORF32@123@B 000000018002f6e0     Cooking.obj
 0002:000006f0       ?g_PXReciprocalTwoPi@aos@shdfnd@physx@@3UPX_VECTORF32@123@B 000000018002f6f0     Cooking.obj
 0002:00000700       ?g_PXTwoPi@aos@shdfnd@physx@@3UPX_VECTORF32@123@B 000000018002f700     Cooking.obj
 0002:00000730       ?sBufferSize@DebugText@Cm@physx@@2HB 000000018002f730     Cooking.obj
 0002:00000734       ??_C@_06EJKDJEDO@PxBase@   000000018002f734     Cooking.obj
 0002:00000740       ??_C@_0N@CDGINLLF@PxConvexMesh@ 000000018002f740     Cooking.obj
 0002:00000750       ??_C@_0O@PBAKPCEC@PxHeightField@ 000000018002f750     Cooking.obj
 0002:00000760       ??_7PxBase@physx@@6B@      000000018002f760     Cooking.obj
 0002:00000788       ??_7PxConvexMesh@physx@@6B@ 000000018002f788     Cooking.obj
 0002:00000800       ??_7PxCooking@physx@@6B@   000000018002f800     Cooking.obj
 0002:00000880       ??_7Cooking@physx@@6B@     000000018002f880     Cooking.obj
 0002:00000900       ??_7RefCountable@Cm@physx@@6B@ 000000018002f900     Cooking.obj
 0002:00000910       ??_7ConvexMesh@Gu@physx@@6BPxConvexMesh@2@@ 000000018002f910     Cooking.obj
 0002:00000998       ??_7ConvexMesh@Gu@physx@@6BRefCountable@Cm@2@@ 000000018002f998     Cooking.obj
 0002:000009b0       ??_C@_0FC@PJIHAFK@Cooking?3?3validateTriangleMesh?3?5@ 000000018002f9b0     Cooking.obj
 0002:00000a10       ??_C@_0FG@MCCOKLDJ@C?3?2Users?2h?4shin?2Desktop?2PhysX?94@ 000000018002fa10     Cooking.obj
 0002:00000a70       ??_C@_0EK@EKAIJEBL@Cooking?3?3cookConvexMesh?3?5user?9p@ 000000018002fa70     Cooking.obj
 0002:00000ac0       ??_C@_0FA@GFFGAPML@Cooking?3?3cookConvexMesh?3?5provid@ 000000018002fac0     Cooking.obj
 0002:00000b10       ??_C@_0EP@PKDCPNNO@Cooking?3?3cookConvexMesh?3?5provid@ 000000018002fb10     Cooking.obj
 0002:00000b60       ??_C@_0EO@LKFMMDE@Cooking?3?3cookConvexMesh?3?5user?9p@ 000000018002fb60     Cooking.obj
 0002:00000bb0       ??_C@_0EN@FCEPCAFC@Cooking?3?3createHeightField?3?5use@ 000000018002fbb0     Cooking.obj
 0002:00000c00       ??_C@_0FG@FKIMIHO@c?3?2users?2h?4shin?2desktop?2physx?94@ 000000018002fc00     Cooking.obj
 0002:00000c58       __real@3a83126f            000000018002fc58     Cooking.obj
 0002:00000c5c       __real@3f800000            000000018002fc5c     Cooking.obj
 0002:00000c60       __real@ba83126f            000000018002fc60     Cooking.obj
 0002:00000c70       __xmm@000000003a83126f3a83126f3a83126f 000000018002fc70     Cooking.obj
 0002:00000c80       __xmm@00000000ba83126fba83126fba83126f 000000018002fc80     Cooking.obj
 0002:00000c90       __xmm@80000000800000008000000080000000 000000018002fc90     Cooking.obj
 0002:00000ca0       ??_C@_0FL@FJNMLAPJ@C?3?2Users?2h?4shin?2Desktop?2PhysX?94@ 000000018002fca0     CookingUtils.obj
 0002:00000cfc       ??_C@_06KDGGGLIJ@PxVec3@   000000018002fcfc     CookingUtils.obj
 0002:00000d08       ??_C@_08MOINBLFP@EdgeData@ 000000018002fd08     EdgeList.obj
 0002:00000d20       ??_C@_0FH@BLGNEMEA@C?3?2Users?2h?4shin?2Desktop?2PhysX?94@ 000000018002fd20     EdgeList.obj
 0002:00000d78       ??_C@_0BB@OMGANHJB@EdgeTriangleData@ 000000018002fd78     EdgeList.obj
 0002:00000d90       ??_C@_0N@HMDODPCO@EdgeDescData@ 000000018002fd90     EdgeList.obj
 0002:00000da0       ??_C@_0BG@GLJDPFLF@EdgeList?5FacesByEdges@ 000000018002fda0     EdgeList.obj
 0002:00000db8       ??_C@_0CO@GBNJFPN@EdgeList?3?3CreateFacesToEdges?3?5N@ 000000018002fdb8     EdgeList.obj
 0002:00000de8       ??_C@_0BN@EPPJDECF@EdgeListBuilder?5FacesByEdges@ 000000018002fde8     EdgeList.obj
 0002:00000e08       ??_C@_0CO@EHJBBMNK@EdgeList?3?3ComputeActiveEdges?3?5N@ 000000018002fe08     EdgeList.obj
 0002:00000e38       ??_C@_0DI@GBHLFOFP@ActiveEdges?3?3ComputeConvexEdges@ 000000018002fe38     EdgeList.obj
 0002:00000e70       ??_C@_0DM@JOGBLHDI@ActiveEdges?3?3ComputeConvexEdges@ 000000018002fe70     EdgeList.obj
 0002:00000eb0       ??_C@_0ED@FEMJKPEL@ActiveEdges?3?3ComputeConvexEdges@ 000000018002feb0     EdgeList.obj
 0002:00000f00       ??_C@_0EB@BFDPMFCD@ActiveEdges?3?3ComputeConvexEdges@ 000000018002ff00     EdgeList.obj
 0002:00000f44       ??_C@_04DDKJGDCM@bool@     000000018002ff44     EdgeList.obj
 0002:00000f4c       __real@bf7fbe77            000000018002ff4c     EdgeList.obj
 0002:00000f50       __xmm@7fffffff7fffffff7fffffff7fffffff 000000018002ff50     EdgeList.obj
 0002:00000f60       ??_C@_0M@GOCDBJNH@MeshCleaner@ 000000018002ff60     MeshCleaner.obj
 0002:00000f70       ??_C@_0FK@PAFAKMAG@C?3?2Users?2h?4shin?2Desktop?2PhysX?94@ 000000018002ff70     MeshCleaner.obj
 0002:00000fcc       __real@3f000000            000000018002ffcc     MeshCleaner.obj
 0002:00000fd0       ??_7Quantizer@physx@@6B@   000000018002ffd0     Quantizer.obj
 0002:00000ff8       ??_7QuantizerImpl@@6B@     000000018002fff8     Quantizer.obj
 0002:00001020       ??_C@_0FI@LPCKFJDO@C?3?2Users?2h?4shin?2Desktop?2PhysX?94@ 0000000180030020     Quantizer.obj
 0002:00001078       ??_C@_05LMJPANIN@PxU32@    0000000180030078     Quantizer.obj
 0002:00001080       ??_C@_0FG@MJEGMPFE@C?3?2Users?2h?4shin?2Desktop?2PhysX?94@ 0000000180030080     Quantizer.obj
 0002:000010d8       __real@38d1b717            00000001800300d8     Quantizer.obj
 0002:000010dc       __real@3c23d70a            00000001800300dc     Quantizer.obj
 0002:000010e0       __real@3f0020c5            00000001800300e0     Quantizer.obj
 0002:000010e4       __real@3f8020c5            00000001800300e4     Quantizer.obj
 0002:000010e8       __real@7e7fffff            00000001800300e8     Quantizer.obj
 0002:000010ec       __real@7f7fffff            00000001800300ec     Quantizer.obj
 0002:000010f0       __real@fe7fffff            00000001800300f0     Quantizer.obj
 0002:00001100       __xmm@fe7fffff7e7fffff7e7fffff7e7fffff 0000000180030100     Quantizer.obj
 0002:00001130       ??_C@_09JDCJAPKD@PxBounds3@ 0000000180030130     BVHStructureBuilder.obj
 0002:00001140       ??_C@_0GC@KJAAGMNP@C?3?2Users?2h?4shin?2Desktop?2PhysX?94@ 0000000180030140     BVHStructureBuilder.obj
 0002:000011a8       ??_C@_0BA@KPLGFFHA@AABB?5tree?5nodes@ 00000001800301a8     BVHStructureBuilder.obj
 0002:000011b8       __real@3ba3d70a            00000001800301b8     BVHStructureBuilder.obj
 0002:000011c0       ?reductionFactors@SubSortQuick@physx@@2QBMB 00000001800301c0     RTreeCooking.obj
 0002:000011d0       ?stopAtTrisPerLeaf1@SubSortQuick@physx@@2QBIB 00000001800301d0     RTreeCooking.obj
 0002:000012a0       ??_C@_0BA@DLCJDKDM@NonTrackedAlloc@ 00000001800302a0     RTreeCooking.obj
 0002:000012b0       ??_C@_07ELGPMHDP@metricL@  00000001800302b0     RTreeCooking.obj
 0002:000012c0       ??_C@_0GA@FNEGLEOB@C?3?2Users?2h?4shin?2Desktop?2PhysX?94@ 00000001800302c0     RTreeCooking.obj
 0002:00001320       ??_C@_07JPCOPIOA@metricR@  0000000180030320     RTreeCooking.obj
 0002:00001328       ??_C@_0M@OKCMHFAG@tempPermute@ 0000000180030328     RTreeCooking.obj
 0002:00001338       ??_C@_09CMNIGKAE@tempRanks@ 0000000180030338     RTreeCooking.obj
 0002:00001350       ??_C@_0FF@OOJINAKA@C?3?2Users?2h?4shin?2Desktop?2PhysX?94@ 0000000180030350     RTreeCooking.obj
 0002:000013b0       ??_C@_0FO@KOKIEFHN@c?3?2users?2h?4shin?2desktop?2physx?94@ 00000001800303b0     RTreeCooking.obj
 0002:00001410       __real@37800080            0000000180030410     RTreeCooking.obj
 0002:00001414       __real@3a03126f            0000000180030414     RTreeCooking.obj
 0002:00001418       __real@41100000            0000000180030418     RTreeCooking.obj
 0002:0000141c       __real@41700000            000000018003041c     RTreeCooking.obj
 0002:00001420       __real@42200000            0000000180030420     RTreeCooking.obj
 0002:00001424       __real@b7800080            0000000180030424     RTreeCooking.obj
 0002:00001428       __real@ff7fffff            0000000180030428     RTreeCooking.obj
 0002:00001430       __xmm@00000001000000010000000100000001 0000000180030430     RTreeCooking.obj
 0002:00001440       __xmm@00000003000000020000000100000000 0000000180030440     RTreeCooking.obj
 0002:00001470       __real@34800000            0000000180030470     MeshBuilder.obj
 0002:000014a0       ??_7MeshDataBase@Gu@physx@@6B@ 00000001800304a0     TriangleMeshBuilder.obj
 0002:000014b0       ??_C@_0FJ@EKODBAFA@C?3?2Users?2h?4shin?2Desktop?2PhysX?94@ 00000001800304b0     TriangleMeshBuilder.obj
 0002:00001510       ??_7TriangleMeshData@Gu@physx@@6B@ 0000000180030510     TriangleMeshBuilder.obj
 0002:00001518       ??_C@_0L@KBOFAKLO@mTriangles@ 0000000180030518     TriangleMeshBuilder.obj
 0002:00001528       ??_C@_0BA@OCOIGPII@mGRB_triIndices@ 0000000180030528     TriangleMeshBuilder.obj
 0002:00001538       ??_7RTreeTriangleData@Gu@physx@@6B@ 0000000180030538     TriangleMeshBuilder.obj
 0002:00001540       ??_7BV4TriangleData@Gu@physx@@6B@ 0000000180030540     TriangleMeshBuilder.obj
 0002:00001548       ??_7RemapCallback@RTreeCooker@physx@@6B@ 0000000180030548     TriangleMeshBuilder.obj
 0002:00001558       ??_7TriangleMeshBuilder@physx@@6B@ 0000000180030558     TriangleMeshBuilder.obj
 0002:00001580       ??_7RTreeTriangleMeshBuilder@physx@@6B@ 0000000180030580     TriangleMeshBuilder.obj
 0002:000015a8       ??_7BV4TriangleMeshBuilder@physx@@6B@ 00000001800305a8     TriangleMeshBuilder.obj
 0002:000015d0       ??_C@_0M@OJJHBOGG@edgeLookups@ 00000001800305d0     TriangleMeshBuilder.obj
 0002:000015e0       ??_C@_0GI@NOANOOIH@c?3?2users?2h?4shin?2desktop?2physx?94@ 00000001800305e0     TriangleMeshBuilder.obj
 0002:00001648       ??_C@_0BF@CCKBOJFO@Gu?3?3TriangleT?$DMPxU32?$DO@ 0000000180030648     TriangleMeshBuilder.obj
 0002:00001660       ??_C@_0GH@GBBFCCDF@C?3?2Users?2h?4shin?2Desktop?2PhysX?94@ 0000000180030660     TriangleMeshBuilder.obj
 0002:000016c8       ??_C@_0DJ@IGODLHLP@TriangleMesh?3?5Enable?5mesh?5weldi@ 00000001800306c8     TriangleMeshBuilder.obj
 0002:00001710       ??_C@_0FJ@HHJLKGDF@TriangleMesh?3?5triangles?5are?5too@ 0000000180030710     TriangleMeshBuilder.obj
 0002:00001770       ??_C@_0CN@KGPHHHLK@TriangleMesh?3?5mesh?5is?5too?5big?5f@ 0000000180030770     TriangleMeshBuilder.obj
 0002:000017a0       ??_C@_0BL@DLEDFNFP@tempNormalsPerTri_prealloc@ 00000001800307a0     TriangleMeshBuilder.obj
 0002:000017c0       ??_C@_0BD@NDAFHHFF@GRB_triAdjacencies@ 00000001800307c0     TriangleMeshBuilder.obj
 0002:000017d8       ??_C@_0DD@CMJGDCNN@TriangleMesh?3?3loadFromDesc?3?5des@ 00000001800307d8     TriangleMeshBuilder.obj
 0002:00001810       ??_C@_0ED@ILJJNHIP@TriangleMesh?3?3loadFromDesc?3?5mPa@ 0000000180030810     TriangleMeshBuilder.obj
 0002:00001858       ??_C@_0CK@BJFFGDPK@input?5mesh?5contains?5corrupted?5v@ 0000000180030858     TriangleMeshBuilder.obj
 0002:00001888       ??_C@_0BJ@BKHDBBHO@cleaning?5the?5mesh?5failed@ 0000000180030888     TriangleMeshBuilder.obj
 0002:000018a8       ??_C@_0BK@JIDHMMCE@BV4?5tree?5failed?5to?5build?4@ 00000001800308a8     TriangleMeshBuilder.obj
 0002:000018c8       ??_C@_0BL@DHNECNBE@BV32?5tree?5failed?5to?5build?4@ 00000001800308c8     TriangleMeshBuilder.obj
 0002:000018e8       ??_7RTreeCookerRemap@physx@@6B@ 00000001800308e8     TriangleMeshBuilder.obj
 0002:000018f8       __real@3951b717            00000001800308f8     TriangleMeshBuilder.obj
 0002:000018fc       __real@3dcccccd            00000001800308fc     TriangleMeshBuilder.obj
 0002:00001900       __real@48742400            0000000180030900     TriangleMeshBuilder.obj
 0002:00001930       ??_C@_0GK@NFKINKOB@C?3?2Users?2h?4shin?2Desktop?2PhysX?94@ 0000000180030930     BigConvexDataBuilder.obj
 0002:000019a0       ??_C@_0BD@PGLLAGCI@BigConvexData?5data@ 00000001800309a0     BigConvexDataBuilder.obj
 0002:000019b4       __real@40000000            00000001800309b4     BigConvexDataBuilder.obj
 0002:000019e0       ??_C@_0GH@PDKLMAFA@C?3?2Users?2h?4shin?2Desktop?2PhysX?94@ 00000001800309e0     ConvexHullBuilder.obj
 0002:00001a50       ??_C@_0EB@DCEIFDGC@ConvexHullBuilder?3?3init?3?5convex@ 0000000180030a50     ConvexHullBuilder.obj
 0002:00001a98       ??_C@_0BE@KOOOMNLC@Gu?3?3HullPolygonData@ 0000000180030a98     ConvexHullBuilder.obj
 0002:00001ab0       ??_C@_0FM@KICBLCBH@Gu?3?3ConvexMesh?3?3checkHullPolygo@ 0000000180030ab0     ConvexHullBuilder.obj
 0002:00001b10       ??_C@_0GO@HBFIOGLL@Gu?3?3ConvexMesh?3?3checkHullPolygo@ 0000000180030b10     ConvexHullBuilder.obj
 0002:00001b80       ??_C@_0BE@EJGGFHND@ConvexHullData?5data@ 0000000180030b80     ConvexHullBuilder.obj
 0002:00001ba0       ??_C@_0HF@OLJFBIEL@ConvexHullBuilder?3?5convex?5hull?5@ 0000000180030ba0     ConvexHullBuilder.obj
 0002:00001c20       ??_C@_0OG@JNHFOIL@ConvexHullBuilder?3?5convex?5hull?5@ 0000000180030c20     ConvexHullBuilder.obj
 0002:00001d10       ??_C@_0EJ@NIOIBAKH@Cooking?3?3cookConvexMesh?3?5non?9ma@ 0000000180030d10     ConvexHullBuilder.obj
 0002:00001d5c       __real@3ca3d70a            0000000180030d5c     ConvexHullBuilder.obj
 0002:00001d60       __real@3eaaaaab            0000000180030d60     ConvexHullBuilder.obj
 0002:00001d68       ??_7ConvexHullLib@physx@@6B@ 0000000180030d68     ConvexHullLib.obj
 0002:00001d90       ??_C@_0GD@NBCDGDIA@C?3?2Users?2h?4shin?2Desktop?2PhysX?94@ 0000000180030d90     ConvexHullLib.obj
 0002:00001df4       __real@358637bd            0000000180030df4     ConvexHullLib.obj
 0002:00001df8       __real@3d4ccccd            0000000180030df8     ConvexHullLib.obj
 0002:00001e20       ??_C@_0GF@FKGFJEGO@C?3?2Users?2h?4shin?2Desktop?2PhysX?94@ 0000000180030e20     ConvexHullUtils.obj
 0002:00001e88       ??_C@_04NCKNBPPK@PxU8@     0000000180030e88     ConvexHullUtils.obj
 0002:00001e90       ??_C@_05CDCIKCPI@Vec4V@    0000000180030e90     ConvexHullUtils.obj
 0002:00001e98       __real@00800000            0000000180030e98     ConvexHullUtils.obj
 0002:00001e9c       __real@3c8efa35            0000000180030e9c     ConvexHullUtils.obj
 0002:00001ea0       __real@3e20d97c            0000000180030ea0     ConvexHullUtils.obj
 0002:00001ea4       __real@4e6e6b28            0000000180030ea4     ConvexHullUtils.obj
 0002:00001ea8       __real@bf000000            0000000180030ea8     ConvexHullUtils.obj
 0002:00001ed0       ??_C@_0DF@LLFJIJGM@Gu?3?3ConvexMesh?3?3loadFromDesc?3?5d@ 0000000180030ed0     ConvexMeshBuilder.obj
 0002:00001f10       ??_C@_0GH@DNAPGAAF@C?3?2Users?2h?4shin?2Desktop?2PhysX?94@ 0000000180030f10     ConvexMeshBuilder.obj
 0002:00001f80       ??_C@_0HK@JOGKIEAA@Gu?3?3ConvexMesh?3?5Mesh?5has?5a?5nega@ 0000000180030f80     ConvexMeshBuilder.obj
 0002:00002000       ??_C@_0DH@NJPPHFFD@Gu?3?3ConvexMesh?3?5Error?5computing@ 0000000180031000     ConvexMeshBuilder.obj
 0002:00002038       ??_C@_0DJ@LJDLGLDJ@Gu?3?3ConvexMesh?3?3loadConvexHull?3@ 0000000180031038     ConvexMeshBuilder.obj
 0002:00002080       ??_C@_0HJ@KJANPPOE@ConvexMeshBuilder?3?3computeHullP@ 0000000180031080     ConvexMeshBuilder.obj
 0002:00002100       ??_C@_0O@JMAGMMGG@PxHullPolygon@ 0000000180031100     ConvexMeshBuilder.obj
 0002:00002110       __real@33d6bf95            0000000180031110     ConvexMeshBuilder.obj
 0002:00002114       __real@3f13cd3a            0000000180031114     ConvexMeshBuilder.obj
 0002:00002118       __real@b3d6bf95            0000000180031118     ConvexMeshBuilder.obj
 0002:0000211c       __real@bf800000            000000018003111c     ConvexMeshBuilder.obj
 0002:00002120       __xmm@80000000000000008000000000000000 0000000180031120     ConvexMeshBuilder.obj
 0002:00002130       ??_C@_0DP@PJBJBEGF@Meshmerizer?3?3extractHullPolygon@ 0000000180031130     ConvexPolygonsBuilder.obj
 0002:00002170       ??_C@_0GL@FDHGMCHL@C?3?2Users?2h?4shin?2Desktop?2PhysX?94@ 0000000180031170     ConvexPolygonsBuilder.obj
 0002:000021e0       ??_C@_0BL@MFNKFFFN@Reduced?5vertices?5hull?5data@ 00000001800311e0     ConvexPolygonsBuilder.obj
 0002:00002200       ??_C@_0DL@IAFKOCCK@ConvexHullBuilder?3?5convex?5hull?5@ 0000000180031200     ConvexPolygonsBuilder.obj
 0002:00002240       ??_C@_0GF@OJLJHAMH@ConvexHullBuilder?3?3CreateTriang@ 0000000180031240     ConvexPolygonsBuilder.obj
 0002:000022a8       ??_7QuickHullConvexHullLib@physx@@6B@ 00000001800312a8     QuickHullConvexHullLib.obj
 0002:000022c8       ??_C@_0BA@BPKNMKIA@QuickHullVertex@ 00000001800312c8     QuickHullConvexHullLib.obj
 0002:000022e0       ??_C@_0GM@CMAFPFGC@C?3?2Users?2h?4shin?2Desktop?2PhysX?94@ 00000001800312e0     QuickHullConvexHullLib.obj
 0002:00002350       ??_C@_0GA@EPPAEJPM@QuickHullConvexHullLib?3?3findSim@ 0000000180031350     QuickHullConvexHullLib.obj
 0002:000023b0       ??_C@_0FB@NEBIJMML@QuickHullConvexHullLib?3?3findSim@ 00000001800313b0     QuickHullConvexHullLib.obj
 0002:00002410       ??_C@_0FB@CLLCBEMM@QuickHullConvexHullLib?3?3findSim@ 0000000180031410     QuickHullConvexHullLib.obj
 0002:00002468       ??_C@_0P@OFIBMBPE@ConvexMeshDesc@ 0000000180031468     QuickHullConvexHullLib.obj
 0002:00002478       ??_C@_0BD@NDHBJDBB@Quickhull?5MemBlock@ 0000000180031478     QuickHullConvexHullLib.obj
 0002:0000248c       __real@34c00000            000000018003148c     QuickHullConvexHullLib.obj
 0002:00002490       __real@3e800000            0000000180031490     QuickHullConvexHullLib.obj
 0002:000024c0       __real@00000000            00000001800314c0     VolumeIntegration.obj
 0002:000024c4       __real@3c088889            00000001800314c4     VolumeIntegration.obj
 0002:000024c8       __real@3c888889            00000001800314c8     VolumeIntegration.obj
 0002:000024cc       __real@3d2aaaab            00000001800314cc     VolumeIntegration.obj
 0002:000024d0       __real@3e2aaaab            00000001800314d0     VolumeIntegration.obj
 0002:000024d8       __real@3f91111111111111    00000001800314d8     VolumeIntegration.obj
 0002:000024e0       __real@3fa5555555555555    00000001800314e0     VolumeIntegration.obj
 0002:000024e8       __real@3fa999999999999a    00000001800314e8     VolumeIntegration.obj
 0002:000024f0       __real@3fb5555555555555    00000001800314f0     VolumeIntegration.obj
 0002:000024f8       __real@3fc5555555555555    00000001800314f8     VolumeIntegration.obj
 0002:00002500       __real@3fd5555555555555    0000000180031500     VolumeIntegration.obj
 0002:00002508       __real@3fe0000000000000    0000000180031508     VolumeIntegration.obj
 0002:00002510       __real@3ff0000000000000    0000000180031510     VolumeIntegration.obj
 0002:00002518       __real@4008000000000000    0000000180031518     VolumeIntegration.obj
 0002:00002520       __real@4010000000000000    0000000180031520     VolumeIntegration.obj
 0002:00002528       __real@bf91111111111111    0000000180031528     VolumeIntegration.obj
 0002:00002530       __real@bfa999999999999a    0000000180031530     VolumeIntegration.obj
 0002:00002538       __real@bfb5555555555555    0000000180031538     VolumeIntegration.obj
 0002:00002540       __real@bfc5555555555555    0000000180031540     VolumeIntegration.obj
 0002:00002550       __xmm@3f811111111111113f81111111111111 0000000180031550     VolumeIntegration.obj
 0002:00002560       __xmm@3f811111111111113f91111111111111 0000000180031560     VolumeIntegration.obj
 0002:00002570       __xmm@3f911111111111113f91111111111111 0000000180031570     VolumeIntegration.obj
 0002:00002580       __xmm@3fa55555555555553fa5555555555555 0000000180031580     VolumeIntegration.obj
 0002:00002590       __xmm@3fa55555555555553fc5555555555555 0000000180031590     VolumeIntegration.obj
 0002:000025a0       ??_C@_0BA@EGLNOO@PhysXFoundation@ 00000001800315a0     WindowsCookingDelayLoadHook.obj
 0002:000025b0       ??_C@_0M@ILKNCJKN@PhysXCommon@ 00000001800315b0     WindowsCookingDelayLoadHook.obj
 0002:000025c0       __sz_PhysXCommon_64_dll    00000001800315c0     PhysXCommon_64:PhysXCommon_64.dll
 0002:000025e0       __sz_PhysXFoundation_64_dll 00000001800315e0     PhysXFoundation_64:PhysXFoundation_64.dll
 0002:000025f8       ??_C@_1BK@DBDEIDLH@?$AAK?$AAE?$AAR?$AAN?$AAE?$AAL?$AA3?$AA2?$AA?4?$AAD?$AAL?$AAL@ 00000001800315f8     Delayimp:delayhlp.obj
 0002:00002618       ??_C@_0BI@OMNLIJDB@AcquireSRWLockExclusive@ 0000000180031618     Delayimp:delayhlp.obj
 0002:00002630       ??_C@_0BI@HMIEPCNJ@ReleaseSRWLockExclusive@ 0000000180031630     Delayimp:delayhlp.obj
 0002:00002648       __pfnDliFailureHook2       0000000180031648     Delayimp:delayhk1.obj
 0002:00002658       ??_7type_info@@6B@         0000000180031658     MSVCRT:std_type_info_static.obj
 0002:000026c0       _pDefaultRawDllMain        00000001800316c0     MSVCRT:dll_dllmain.obj
 0002:000026c0       _pRawDllMain               00000001800316c0     MSVCRT:dll_dllmain.obj
 0002:000026d0       _load_config_used          00000001800316d0     MSVCRT:loadcfg.obj
 0002:00002828       ??_R4type_info@@6B@        0000000180031828     MSVCRT:std_type_info_static.obj
 0002:00002850       ??_R3type_info@@8          0000000180031850     MSVCRT:std_type_info_static.obj
 0002:00002868       ??_R2type_info@@8          0000000180031868     MSVCRT:std_type_info_static.obj
 0002:00002878       ??_R1A@?0A@EA@type_info@@8 0000000180031878     MSVCRT:std_type_info_static.obj
 0002:00002c48       __rtc_iaa                  0000000180031c48     MSVCRT:initsect.obj
 0002:00002c50       __rtc_izz                  0000000180031c50     MSVCRT:initsect.obj
 0002:00002c58       __rtc_taa                  0000000180031c58     MSVCRT:initsect.obj
 0002:00002c60       __rtc_tzz                  0000000180031c60     MSVCRT:initsect.obj
 0002:000061f8       __DELAY_IMPORT_DESCRIPTOR_PhysXCommon_64_dll 00000001800351f8     PhysXCommon_64:PhysXCommon_64.dll
 0002:00006218       __DELAY_IMPORT_DESCRIPTOR_PhysXFoundation_64_dll 0000000180035218     PhysXFoundation_64:PhysXFoundation_64.dll
 0002:00006238       __NULL_DELAY_IMPORT_DESCRIPTOR 0000000180035238     PhysXCommon_64:PhysXCommon_64.dll
 0002:000063d8       \177PhysXCommon_64_NULL_THUNK_DATA_DLN 00000001800353d8     PhysXCommon_64:PhysXCommon_64.dll
 0002:00006460       \177PhysXFoundation_64_NULL_THUNK_DATA_DLN 0000000180035460     PhysXFoundation_64:PhysXFoundation_64.dll
 0002:00007160       \177PhysXCommon_64_NULL_THUNK_DATA_DLB 0000000180036160     PhysXCommon_64:PhysXCommon_64.dll
 0002:000072e8       \177PhysXFoundation_64_NULL_THUNK_DATA_DLB 00000001800362e8     PhysXFoundation_64:PhysXFoundation_64.dll
 0002:00009080       __IMPORT_DESCRIPTOR_KERNEL32 0000000180038080     kernel32:KERNEL32.dll
 0002:00009094       __IMPORT_DESCRIPTOR_VCRUNTIME140 0000000180038094     vcruntime:VCRUNTIME140.dll
 0002:000090a8       __IMPORT_DESCRIPTOR_api-ms-win-crt-string-l1-1-0 00000001800380a8     ucrt:api-ms-win-crt-string-l1-1-0.dll
 0002:000090bc       __IMPORT_DESCRIPTOR_api-ms-win-crt-math-l1-1-0 00000001800380bc     ucrt:api-ms-win-crt-math-l1-1-0.dll
 0002:000090d0       __IMPORT_DESCRIPTOR_api-ms-win-crt-heap-l1-1-0 00000001800380d0     ucrt:api-ms-win-crt-heap-l1-1-0.dll
 0002:000090e4       __IMPORT_DESCRIPTOR_api-ms-win-crt-runtime-l1-1-0 00000001800380e4     ucrt:api-ms-win-crt-runtime-l1-1-0.dll
 0002:000090f8       __NULL_IMPORT_DESCRIPTOR   00000001800380f8     kernel32:KERNEL32.dll
 0003:00000008       __pfnDliNotifyHook2        0000000180039008     WindowsCookingDelayLoadHook.obj
 0003:00000010       _fltused                   0000000180039010     MSVCRT:fltused.obj
 0003:00000020       __scrt_native_dllmain_reason 0000000180039020     MSVCRT:utility.obj
 0003:00000028       __security_cookie_complement 0000000180039028     MSVCRT:gs_cookie.obj
 0003:00000030       __security_cookie          0000000180039030     MSVCRT:gs_cookie.obj
 0003:00000040       __isa_available            0000000180039040     MSVCRT:cpu_disp.obj
 0003:00000044       __isa_enabled              0000000180039044     MSVCRT:cpu_disp.obj
 0003:00000048       __memcpy_nt_iters          0000000180039048     MSVCRT:cpu_disp.obj
 0003:00000050       __scrt_ucrt_dll_is_in_use  0000000180039050     MSVCRT:ucrt_stubs.obj
 0003:00000058       ??_R0?AVAdjEdge@@@8        0000000180039058     Adjacencies.obj
 0003:00000078       ??_R0I@8                   0000000180039078     Adjacencies.obj
 0003:00000090       ??_R0?AVAdjTriangle@physx@@@8 0000000180039090     Adjacencies.obj
 0003:000000b8       ??_R0?AVHeightField@Gu@physx@@@8 00000001800390b8     Cooking.obj
 0003:000000e8       ??_R0?AVCooking@physx@@@8  00000001800390e8     Cooking.obj
 0003:00000110       ??_R0?AVQuickHullConvexHullLib@physx@@@8 0000000180039110     Cooking.obj
 0003:00000148       ??_R0M@8                   0000000180039148     CookingUtils.obj
 0003:00000160       ??_R0?AUEdgeData@Gu@physx@@@8 0000000180039160     EdgeList.obj
 0003:00000188       ??_R0?AUEdgeTriangleData@Gu@physx@@@8 0000000180039188     EdgeList.obj
 0003:000001b8       ??_R0?AVQuantizerImpl@@@8  00000001800391b8     Quantizer.obj
 0003:000001e0       ??_R0?AVEdgeListBuilder@Gu@physx@@@8 00000001800391e0     TriangleMeshBuilder.obj
 0003:00000210       ??_R0?AVBV32Tree@Gu@physx@@@8 0000000180039210     TriangleMeshBuilder.obj
 0003:00000238       ??_R0E@8                   0000000180039238     TriangleMeshBuilder.obj
 0003:00000250       ??_R0G@8                   0000000180039250     TriangleMeshBuilder.obj
 0003:00000268       ??_R0?AUEdgeDescData@Gu@physx@@@8 0000000180039268     ConvexHullBuilder.obj
 0003:00000298       ??_R0_N@8                  0000000180039298     ConvexHullBuilder.obj
 0003:000002b0       ??_R0?AVConvexHull@physx@@@8 00000001800392b0     ConvexHullUtils.obj
 0003:000002d8       ??_R0?AVBigConvexData@physx@@@8 00000001800392d8     ConvexMeshBuilder.obj
 0003:00000308       ??_R0?AUHullTriangleData@physx@@@8 0000000180039308     ConvexPolygonsBuilder.obj
 0003:00000338       ??_R0?AVQuickHull@local@@@8 0000000180039338     QuickHullConvexHullLib.obj
 0003:00000360       ??_R0?AVtype_info@@@8      0000000180039360     MSVCRT:std_type_info_static.obj
 0003:00000380       __imp_??0RadixSortBuffered@Cm@physx@@QEAA@XZ 0000000180039380     PhysXCommon_64:PhysXCommon_64.dll
 0003:00000388       __imp_??1BigConvexData@physx@@QEAA@XZ 0000000180039388     PhysXCommon_64:PhysXCommon_64.dll
 0003:00000390       __imp_??1RadixSortBuffered@Cm@physx@@UEAA@XZ 0000000180039390     PhysXCommon_64:PhysXCommon_64.dll
 0003:00000398       __imp_?Sort@RadixSortBuffered@Cm@physx@@QEAAAEAV123@PEBIIW4RadixHint@23@@Z 0000000180039398     PhysXCommon_64:PhysXCommon_64.dll
 0003:000003a0       __imp_?readDword@physx@@YAI_NAEAVPxInputStream@1@@Z 00000001800393a0     PhysXCommon_64:PhysXCommon_64.dll
 0003:000003a8       __imp_?ReadHeader@Gu@physx@@YA_NEEEEAEAIAEA_NAEAVPxInputStream@2@@Z 00000001800393a8     PhysXCommon_64:PhysXCommon_64.dll
 0003:000003b0       __imp_?exportExtraData@ConvexMesh@Gu@physx@@UEAAXAEAVPxSerializationContext@3@@Z 00000001800393b0     PhysXCommon_64:PhysXCommon_64.dll
 0003:000003b8       __imp_?onRefCountZero@ConvexMesh@Gu@physx@@UEAAXXZ 00000001800393b8     PhysXCommon_64:PhysXCommon_64.dll
 0003:000003c0       __imp_?release@ConvexMesh@Gu@physx@@UEAAXXZ 00000001800393c0     PhysXCommon_64:PhysXCommon_64.dll
 0003:000003c8       __imp_?getPolygonData@ConvexMesh@Gu@physx@@UEBA_NIAEAUPxHullPolygon@3@@Z 00000001800393c8     PhysXCommon_64:PhysXCommon_64.dll
 0003:000003d0       __imp_?isGpuCompatible@ConvexMesh@Gu@physx@@UEBA_NXZ 00000001800393d0     PhysXCommon_64:PhysXCommon_64.dll
 0003:000003d8       __imp_?getReferenceCount@ConvexMesh@Gu@physx@@UEBAIXZ 00000001800393d8     PhysXCommon_64:PhysXCommon_64.dll
 0003:000003e0       __imp_?acquireReference@ConvexMesh@Gu@physx@@UEAAXXZ 00000001800393e0     PhysXCommon_64:PhysXCommon_64.dll
 0003:000003e8       __imp_?getMassInformation@ConvexMesh@Gu@physx@@UEBAXAEAMAEAVPxMat33@3@AEAVPxVec3@3@@Z 00000001800393e8     PhysXCommon_64:PhysXCommon_64.dll
 0003:000003f0       __imp_?getLocalBounds@ConvexMesh@Gu@physx@@UEBA?AVPxBounds3@3@XZ 00000001800393f0     PhysXCommon_64:PhysXCommon_64.dll
 0003:000003f8       __imp_??1ConvexMesh@Gu@physx@@UEAA@XZ 00000001800393f8     PhysXCommon_64:PhysXCommon_64.dll
 0003:00000400       __imp_??0HeightField@Gu@physx@@QEAA@PEAVGuMeshFactory@2@@Z 0000000180039400     PhysXCommon_64:PhysXCommon_64.dll
 0003:00000408       __imp_?loadFromDesc@HeightField@Gu@physx@@QEAA_NAEBVPxHeightFieldDesc@3@@Z 0000000180039408     PhysXCommon_64:PhysXCommon_64.dll
 0003:00000410       __imp_?computeCellCoordinates@HeightField@Gu@physx@@QEBAIMMAEAM0@Z 0000000180039410     PhysXCommon_64:PhysXCommon_64.dll
 0003:00000418       __imp_?releaseMemory@HeightField@Gu@physx@@QEAAXXZ 0000000180039418     PhysXCommon_64:PhysXCommon_64.dll
 0003:00000420       __imp_??1HeightField@Gu@physx@@UEAA@XZ 0000000180039420     PhysXCommon_64:PhysXCommon_64.dll
 0003:00000428       __imp_??0NodeAllocator@Gu@physx@@QEAA@XZ 0000000180039428     PhysXCommon_64:PhysXCommon_64.dll
 0003:00000430       __imp_??1NodeAllocator@Gu@physx@@QEAA@XZ 0000000180039430     PhysXCommon_64:PhysXCommon_64.dll
 0003:00000438       __imp_?release@NodeAllocator@Gu@physx@@QEAAXXZ 0000000180039438     PhysXCommon_64:PhysXCommon_64.dll
 0003:00000440       __imp_?buildAABBTree@Gu@physx@@YA_NAEAVAABBTreeBuildParams@12@AEAVNodeAllocator@12@AEAUBuildStats@12@AEAPEAI@Z 0000000180039440     PhysXCommon_64:PhysXCommon_64.dll
 0003:00000448       __imp_?writeDword@physx@@YAXI_NAEAVPxOutputStream@1@@Z 0000000180039448     PhysXCommon_64:PhysXCommon_64.dll
 0003:00000450       __imp_?writeFloatBuffer@physx@@YAXPEBMI_NAEAVPxOutputStream@1@@Z 0000000180039450     PhysXCommon_64:PhysXCommon_64.dll
 0003:00000458       __imp_?writeHeader@physx@@YA_NCCCCI_NAEAVPxOutputStream@1@@Z 0000000180039458     PhysXCommon_64:PhysXCommon_64.dll
 0003:00000460       __imp_?writeWord@physx@@YAXG_NAEAVPxOutputStream@1@@Z 0000000180039460     PhysXCommon_64:PhysXCommon_64.dll
 0003:00000468       __imp_?writeFloat@physx@@YAXM_NAEAVPxOutputStream@1@@Z 0000000180039468     PhysXCommon_64:PhysXCommon_64.dll
 0003:00000470       __imp_?computeBoundsAroundVertices@Gu@physx@@YAXAEAVPxBounds3@2@IPEIBVPxVec3@2@@Z 0000000180039470     PhysXCommon_64:PhysXCommon_64.dll
 0003:00000478       __imp_??0SourceMesh@Gu@physx@@QEAA@XZ 0000000180039478     PhysXCommon_64:PhysXCommon_64.dll
 0003:00000480       __imp_??1SourceMesh@Gu@physx@@QEAA@XZ 0000000180039480     PhysXCommon_64:PhysXCommon_64.dll
 0003:00000488       __imp_??0BV4Tree@Gu@physx@@QEAA@XZ 0000000180039488     PhysXCommon_64:PhysXCommon_64.dll
 0003:00000490       __imp_??1BV4Tree@Gu@physx@@QEAA@XZ 0000000180039490     PhysXCommon_64:PhysXCommon_64.dll
 0003:00000498       __imp_??0BV32Tree@Gu@physx@@QEAA@XZ 0000000180039498     PhysXCommon_64:PhysXCommon_64.dll
 0003:000004a0       __imp_??1BV32Tree@Gu@physx@@QEAA@XZ 00000001800394a0     PhysXCommon_64:PhysXCommon_64.dll
 0003:000004a8       __imp_?writeWordBuffer@physx@@YAXPEBGI_NAEAVPxOutputStream@1@@Z 00000001800394a8     PhysXCommon_64:PhysXCommon_64.dll
 0003:000004b0       __imp_?computeMaxIndex@physx@@YAIPEBII@Z 00000001800394b0     PhysXCommon_64:PhysXCommon_64.dll
 0003:000004b8       __imp_?storeIndices@physx@@YAXIIPEBIAEAVPxOutputStream@1@_N@Z 00000001800394b8     PhysXCommon_64:PhysXCommon_64.dll
 0003:000004c0       __imp_?BuildBV4Ex@Gu@physx@@YA_NAEAVBV4Tree@12@AEAVSourceMesh@12@MI@Z 00000001800394c0     PhysXCommon_64:PhysXCommon_64.dll
 0003:000004c8       __imp_?BuildBV32Ex@Gu@physx@@YA_NAEAVBV32Tree@12@AEAVSourceMesh@12@MI@Z 00000001800394c8     PhysXCommon_64:PhysXCommon_64.dll
 0003:000004d0       __imp_?computeMaxIndex@physx@@YAGPEBGI@Z 00000001800394d0     PhysXCommon_64:PhysXCommon_64.dll
 0003:000004d8       __imp_?WriteHeader@Gu@physx@@YA_NEEEEI_NAEAVPxOutputStream@2@@Z 00000001800394d8     PhysXCommon_64:PhysXCommon_64.dll
 0003:000004e0       __imp_?StoreIndices@Gu@physx@@YAXGIPEBGAEAVPxOutputStream@2@_N@Z 00000001800394e0     PhysXCommon_64:PhysXCommon_64.dll
 0003:000004e8       __imp_?CreateOffsets@BigConvexData@physx@@IEAAXXZ 00000001800394e8     PhysXCommon_64:PhysXCommon_64.dll
 0003:000004f0       __imp_?computeOBBPoints@Gu@physx@@YAXPEIAVPxVec3@2@AEBV32@1111@Z 00000001800394f0     PhysXCommon_64:PhysXCommon_64.dll
 0003:000004f8       __imp_??0BigConvexData@physx@@QEAA@XZ 00000001800394f8     PhysXCommon_64:PhysXCommon_64.dll
 0003:00000500       \177PhysXCommon_64_NULL_THUNK_DATA_DLA 0000000180039500     PhysXCommon_64:PhysXCommon_64.dll
 0003:00000508       __imp_PxGetFoundation      0000000180039508     PhysXFoundation_64:PhysXFoundation_64.dll
 0003:00000510       __imp_?deallocate@TempAllocator@shdfnd@physx@@QEAAXPEAX@Z 0000000180039510     PhysXFoundation_64:PhysXFoundation_64.dll
 0003:00000518       __imp_?getAllocator@shdfnd@physx@@YAAEAVPxAllocatorCallback@2@XZ 0000000180039518     PhysXFoundation_64:PhysXFoundation_64.dll
 0003:00000520       __imp_??0NamedAllocator@shdfnd@physx@@QEAA@PEBD@Z 0000000180039520     PhysXFoundation_64:PhysXFoundation_64.dll
 0003:00000528       __imp_?getInstance@Foundation@shdfnd@physx@@SAAEAV123@XZ 0000000180039528     PhysXFoundation_64:PhysXFoundation_64.dll
 0003:00000530       __imp_?error@Foundation@shdfnd@physx@@QEAAXW4Enum@PxErrorCode@3@PEBDH1ZZ 0000000180039530     PhysXFoundation_64:PhysXFoundation_64.dll
 0003:00000538       __imp_?allocate@NamedAllocator@shdfnd@physx@@QEAAPEAX_KPEBDH@Z 0000000180039538     PhysXFoundation_64:PhysXFoundation_64.dll
 0003:00000540       __imp_?deallocate@NamedAllocator@shdfnd@physx@@QEAAXPEAX@Z 0000000180039540     PhysXFoundation_64:PhysXFoundation_64.dll
 0003:00000548       __imp_?incRefCount@Foundation@shdfnd@physx@@SAXXZ 0000000180039548     PhysXFoundation_64:PhysXFoundation_64.dll
 0003:00000550       __imp_?decRefCount@Foundation@shdfnd@physx@@SAXXZ 0000000180039550     PhysXFoundation_64:PhysXFoundation_64.dll
 0003:00000558       __imp_??0FPUGuard@shdfnd@physx@@QEAA@XZ 0000000180039558     PhysXFoundation_64:PhysXFoundation_64.dll
 0003:00000560       __imp_??1FPUGuard@shdfnd@physx@@QEAA@XZ 0000000180039560     PhysXFoundation_64:PhysXFoundation_64.dll
 0003:00000568       __imp_??1NamedAllocator@shdfnd@physx@@QEAA@XZ 0000000180039568     PhysXFoundation_64:PhysXFoundation_64.dll
 0003:00000570       __imp_??0NamedAllocator@shdfnd@physx@@QEAA@AEBV012@@Z 0000000180039570     PhysXFoundation_64:PhysXFoundation_64.dll
 0003:00000578       __imp_?allocate@TempAllocator@shdfnd@physx@@QEAAPEAX_KPEBDH@Z 0000000180039578     PhysXFoundation_64:PhysXFoundation_64.dll
 0003:00000580       __imp_?PxDiagonalize@physx@@YA?AVPxVec3@1@AEBVPxMat33@1@AEAVPxQuat@1@@Z 0000000180039580     PhysXFoundation_64:PhysXFoundation_64.dll
 0003:00000588       \177PhysXFoundation_64_NULL_THUNK_DATA_DLA 0000000180039588     PhysXFoundation_64:PhysXFoundation_64.dll
 0003:00000958       __hmod__PhysXCommon_64_dll 0000000180039958     PhysXCommon_64:PhysXCommon_64.dll
 0003:00000960       __hmod__PhysXFoundation_64_dll 0000000180039960     PhysXFoundation_64:PhysXFoundation_64.dll
 0003:00000968       ?DloadKernel32@@3PEAUHINSTANCE__@@EA 0000000180039968     Delayimp:delayhlp.obj
 0003:00000970       ?DloadAcquireSRWLockExclusive@@3P6AXPEA_K@ZEA 0000000180039970     Delayimp:delayhlp.obj
 0003:00000978       ?DloadReleaseSRWLockExclusive@@3P6AXPEA_K@ZEA 0000000180039978     Delayimp:delayhlp.obj
 0003:00000980       ?DloadSrwLock@@3_KA        0000000180039980     Delayimp:delayhlp.obj
 0003:00000988       ?DloadSectionLockCount@@3KA 0000000180039988     Delayimp:delayhlp.obj
 0003:0000098c       ?DloadSectionOldProtection@@3KA 000000018003998c     Delayimp:delayhlp.obj
 0003:00000990       ?DloadSectionCommitPermanent@@3KA 0000000180039990     Delayimp:delayhlp.obj
 0003:000009a0       ?__type_info_root_node@@3U__type_info_node@@A 00000001800399a0     MSVCRT:tncleanup.obj
 0003:000009b8       ?_OptionsStorage@?1??__local_stdio_printf_options@@9@4_KA 00000001800399b8     MSVCRT:default_local_stdio_options.obj
 0003:000009c0       ?_OptionsStorage@?1??__local_stdio_scanf_options@@9@4_KA 00000001800399c0     MSVCRT:default_local_stdio_options.obj
 0003:000009c8       __scrt_current_native_startup_state 00000001800399c8     MSVCRT:utility.obj
 0003:000009d0       __scrt_native_startup_lock 00000001800399d0     MSVCRT:utility.obj
 0003:00000a10       __scrt_debugger_hook_flag  0000000180039a10     MSVCRT:utility_desktop.obj
 0003:00000a14       __favor                    0000000180039a14     MSVCRT:cpu_disp.obj
 0003:00000a18       __dyn_tls_init_callback    0000000180039a18     <common>

 entry point at        0001:0002c55c

 Static symbols

 0002:fffd1000       $chain$1$??_EPxConvexMesh@physx@@MEAAPEAXI@Z 0000000180000000     ConvexHullBuilder.obj
 0002:fffd1000       $chain$1$?recreate@?$Array@VPxPlane@physx@@VNamedAllocator@shdfnd@2@@shdfnd@physx@@IEAAXI@Z 0000000180000000     QuickHullConvexHullLib.obj
 0004:fffc6000       $pdata$0$?recreate@?$Array@VPxPlane@physx@@VNamedAllocator@shdfnd@2@@shdfnd@physx@@IEAAXI@Z 0000000180000000     QuickHullConvexHullLib.obj
 0002:fffd1000       $chain$0$?recreate@?$Array@VPxPlane@physx@@VNamedAllocator@shdfnd@2@@shdfnd@physx@@IEAAXI@Z 0000000180000000     QuickHullConvexHullLib.obj
 0004:fffc6000       $pdata$?recreate@?$Array@VPxPlane@physx@@VNamedAllocator@shdfnd@2@@shdfnd@physx@@IEAAXI@Z 0000000180000000     QuickHullConvexHullLib.obj
 0002:fffd1000       $unwind$?recreate@?$Array@VPxPlane@physx@@VNamedAllocator@shdfnd@2@@shdfnd@physx@@IEAAXI@Z 0000000180000000     QuickHullConvexHullLib.obj
 0004:fffc6000       $pdata$3$?growAndPushBack@?$Array@VPxPlane@physx@@VNamedAllocator@shdfnd@2@@shdfnd@physx@@IEAAAEAVPxPlane@3@AEBV43@@Z 0000000180000000     QuickHullConvexHullLib.obj
 0002:fffd1000       $chain$3$?growAndPushBack@?$Array@VPxPlane@physx@@VNamedAllocator@shdfnd@2@@shdfnd@physx@@IEAAAEAVPxPlane@3@AEBV43@@Z 0000000180000000     QuickHullConvexHullLib.obj
 0002:fffd1000       $unwind$??_H@YAXPEAX_K1P6APEAX0@Z@Z 0000000180000000     Cooking.obj
 0004:fffc6000       $pdata$??_H@YAXPEAX_K1P6APEAX0@Z@Z 0000000180000000     Cooking.obj
 0002:fffd1000       $unwind$??_I@YAXPEAX_K1P6AX0@Z@Z 0000000180000000     Cooking.obj
 0004:fffc6000       $pdata$??_I@YAXPEAX_K1P6AX0@Z@Z 0000000180000000     Cooking.obj
 0002:fffd1000       $unwind$??_GPxFoundation@physx@@MEAAPEAXI@Z 0000000180000000     Cooking.obj
 0004:fffc6000       $pdata$??_GPxFoundation@physx@@MEAAPEAXI@Z 0000000180000000     Cooking.obj
 0002:fffd1000       $unwind$??_EPxFoundation@physx@@MEAAPEAXI@Z 0000000180000000     Cooking.obj
 0004:fffc6000       $pdata$??_EPxFoundation@physx@@MEAAPEAXI@Z 0000000180000000     Cooking.obj
 0002:fffd1000       $chain$0$??_EPxFoundation@physx@@MEAAPEAXI@Z 0000000180000000     Cooking.obj
 0004:fffc6000       $pdata$0$??_EPxFoundation@physx@@MEAAPEAXI@Z 0000000180000000     Cooking.obj
 0002:fffd1000       $chain$1$??_EPxFoundation@physx@@MEAAPEAXI@Z 0000000180000000     Cooking.obj
 0004:fffc6000       $pdata$1$??_EPxFoundation@physx@@MEAAPEAXI@Z 0000000180000000     Cooking.obj
 0002:fffd1000       $unwind$??_I@YAXPEAX_K1P6AX0@Z@Z 0000000180000000     CookingUtils.obj
 0004:fffc6000       $pdata$??_I@YAXPEAX_K1P6AX0@Z@Z 0000000180000000     CookingUtils.obj
 0002:fffd1000       $unwind$??_GPxFoundation@physx@@MEAAPEAXI@Z 0000000180000000     CookingUtils.obj
 0004:fffc6000       $pdata$??_GPxFoundation@physx@@MEAAPEAXI@Z 0000000180000000     CookingUtils.obj
 0002:fffd1000       $unwind$??_EPxFoundation@physx@@MEAAPEAXI@Z 0000000180000000     CookingUtils.obj
 0004:fffc6000       $pdata$??_EPxFoundation@physx@@MEAAPEAXI@Z 0000000180000000     CookingUtils.obj
 0002:fffd1000       $chain$0$??_EPxFoundation@physx@@MEAAPEAXI@Z 0000000180000000     CookingUtils.obj
 0004:fffc6000       $pdata$0$??_EPxFoundation@physx@@MEAAPEAXI@Z 0000000180000000     CookingUtils.obj
 0002:fffd1000       $chain$1$??_EPxFoundation@physx@@MEAAPEAXI@Z 0000000180000000     CookingUtils.obj
 0004:fffc6000       $pdata$1$??_EPxFoundation@physx@@MEAAPEAXI@Z 0000000180000000     CookingUtils.obj
 0002:fffd1000       $unwind$??_H@YAXPEAX_K1P6APEAX0@Z@Z 0000000180000000     EdgeList.obj
 0004:fffc6000       $pdata$??_H@YAXPEAX_K1P6APEAX0@Z@Z 0000000180000000     EdgeList.obj
 0002:fffd1000       $unwind$??_I@YAXPEAX_K1P6AX0@Z@Z 0000000180000000     EdgeList.obj
 0004:fffc6000       $pdata$??_I@YAXPEAX_K1P6AX0@Z@Z 0000000180000000     EdgeList.obj
 0002:fffd1000       $unwind$??_GPxFoundation@physx@@MEAAPEAXI@Z 0000000180000000     EdgeList.obj
 0004:fffc6000       $pdata$??_GPxFoundation@physx@@MEAAPEAXI@Z 0000000180000000     EdgeList.obj
 0002:fffd1000       $unwind$??_EPxFoundation@physx@@MEAAPEAXI@Z 0000000180000000     EdgeList.obj
 0004:fffc6000       $pdata$??_EPxFoundation@physx@@MEAAPEAXI@Z 0000000180000000     EdgeList.obj
 0002:fffd1000       $chain$0$??_EPxFoundation@physx@@MEAAPEAXI@Z 0000000180000000     EdgeList.obj
 0004:fffc6000       $pdata$0$??_EPxFoundation@physx@@MEAAPEAXI@Z 0000000180000000     EdgeList.obj
 0002:fffd1000       $chain$1$??_EPxFoundation@physx@@MEAAPEAXI@Z 0000000180000000     EdgeList.obj
 0004:fffc6000       $pdata$1$??_EPxFoundation@physx@@MEAAPEAXI@Z 0000000180000000     EdgeList.obj
 0002:fffd1000       $unwind$??_I@YAXPEAX_K1P6AX0@Z@Z 0000000180000000     MeshCleaner.obj
 0004:fffc6000       $pdata$??_I@YAXPEAX_K1P6AX0@Z@Z 0000000180000000     MeshCleaner.obj
 0002:fffd1000       $unwind$??_GPxFoundation@physx@@MEAAPEAXI@Z 0000000180000000     MeshCleaner.obj
 0004:fffc6000       $pdata$??_GPxFoundation@physx@@MEAAPEAXI@Z 0000000180000000     MeshCleaner.obj
 0002:fffd1000       $unwind$??_EPxFoundation@physx@@MEAAPEAXI@Z 0000000180000000     MeshCleaner.obj
 0004:fffc6000       $pdata$??_EPxFoundation@physx@@MEAAPEAXI@Z 0000000180000000     MeshCleaner.obj
 0002:fffd1000       $chain$0$??_EPxFoundation@physx@@MEAAPEAXI@Z 0000000180000000     MeshCleaner.obj
 0004:fffc6000       $pdata$0$??_EPxFoundation@physx@@MEAAPEAXI@Z 0000000180000000     MeshCleaner.obj
 0002:fffd1000       $chain$1$??_EPxFoundation@physx@@MEAAPEAXI@Z 0000000180000000     MeshCleaner.obj
 0004:fffc6000       $pdata$1$??_EPxFoundation@physx@@MEAAPEAXI@Z 0000000180000000     MeshCleaner.obj
 0002:fffd1000       $unwind$??_I@YAXPEAX_K1P6AX0@Z@Z 0000000180000000     Quantizer.obj
 0004:fffc6000       $pdata$??_I@YAXPEAX_K1P6AX0@Z@Z 0000000180000000     Quantizer.obj
 0002:fffd1000       $unwind$??_GPxFoundation@physx@@MEAAPEAXI@Z 0000000180000000     Quantizer.obj
 0004:fffc6000       $pdata$??_GPxFoundation@physx@@MEAAPEAXI@Z 0000000180000000     Quantizer.obj
 0002:fffd1000       $unwind$??_EPxFoundation@physx@@MEAAPEAXI@Z 0000000180000000     Quantizer.obj
 0004:fffc6000       $pdata$??_EPxFoundation@physx@@MEAAPEAXI@Z 0000000180000000     Quantizer.obj
 0002:fffd1000       $chain$0$??_EPxFoundation@physx@@MEAAPEAXI@Z 0000000180000000     Quantizer.obj
 0004:fffc6000       $pdata$0$??_EPxFoundation@physx@@MEAAPEAXI@Z 0000000180000000     Quantizer.obj
 0002:fffd1000       $chain$1$??_EPxFoundation@physx@@MEAAPEAXI@Z 0000000180000000     Quantizer.obj
 0004:fffc6000       $pdata$1$??_EPxFoundation@physx@@MEAAPEAXI@Z 0000000180000000     Quantizer.obj
 0004:fffc6000       $pdata$2$?growAndPushBack@?$Array@VPxPlane@physx@@VNamedAllocator@shdfnd@2@@shdfnd@physx@@IEAAAEAVPxPlane@3@AEBV43@@Z 0000000180000000     QuickHullConvexHullLib.obj
 0002:fffd1000       $chain$2$?growAndPushBack@?$Array@VPxPlane@physx@@VNamedAllocator@shdfnd@2@@shdfnd@physx@@IEAAAEAVPxPlane@3@AEBV43@@Z 0000000180000000     QuickHullConvexHullLib.obj
 0004:fffc6000       $pdata$1$?growAndPushBack@?$Array@VPxPlane@physx@@VNamedAllocator@shdfnd@2@@shdfnd@physx@@IEAAAEAVPxPlane@3@AEBV43@@Z 0000000180000000     QuickHullConvexHullLib.obj
 0002:fffd1000       $chain$1$?growAndPushBack@?$Array@VPxPlane@physx@@VNamedAllocator@shdfnd@2@@shdfnd@physx@@IEAAAEAVPxPlane@3@AEBV43@@Z 0000000180000000     QuickHullConvexHullLib.obj
 0004:fffc6000       $pdata$0$?growAndPushBack@?$Array@VPxPlane@physx@@VNamedAllocator@shdfnd@2@@shdfnd@physx@@IEAAAEAVPxPlane@3@AEBV43@@Z 0000000180000000     QuickHullConvexHullLib.obj
 0002:fffd1000       $chain$0$?growAndPushBack@?$Array@VPxPlane@physx@@VNamedAllocator@shdfnd@2@@shdfnd@physx@@IEAAAEAVPxPlane@3@AEBV43@@Z 0000000180000000     QuickHullConvexHullLib.obj
 0002:fffd1000       $unwind$??_I@YAXPEAX_K1P6AX0@Z@Z 0000000180000000     BVHStructureBuilder.obj
 0004:fffc6000       $pdata$??_I@YAXPEAX_K1P6AX0@Z@Z 0000000180000000     BVHStructureBuilder.obj
 0002:fffd1000       $unwind$??_GPxFoundation@physx@@MEAAPEAXI@Z 0000000180000000     BVHStructureBuilder.obj
 0004:fffc6000       $pdata$??_GPxFoundation@physx@@MEAAPEAXI@Z 0000000180000000     BVHStructureBuilder.obj
 0002:fffd1000       $unwind$??_EPxFoundation@physx@@MEAAPEAXI@Z 0000000180000000     BVHStructureBuilder.obj
 0004:fffc6000       $pdata$??_EPxFoundation@physx@@MEAAPEAXI@Z 0000000180000000     BVHStructureBuilder.obj
 0002:fffd1000       $chain$0$??_EPxFoundation@physx@@MEAAPEAXI@Z 0000000180000000     BVHStructureBuilder.obj
 0004:fffc6000       $pdata$0$??_EPxFoundation@physx@@MEAAPEAXI@Z 0000000180000000     BVHStructureBuilder.obj
 0002:fffd1000       $chain$1$??_EPxFoundation@physx@@MEAAPEAXI@Z 0000000180000000     BVHStructureBuilder.obj
 0004:fffc6000       $pdata$1$??_EPxFoundation@physx@@MEAAPEAXI@Z 0000000180000000     BVHStructureBuilder.obj
 0002:fffd1000       $unwind$??_GPxBase@physx@@MEAAPEAXI@Z 0000000180000000     BVHStructureBuilder.obj
 0004:fffc6000       $pdata$??_GPxBase@physx@@MEAAPEAXI@Z 0000000180000000     BVHStructureBuilder.obj
 0002:fffd1000       $unwind$?isKindOf@PxConvexMesh@physx@@MEBA_NPEBD@Z 0000000180000000     BVHStructureBuilder.obj
 0004:fffc6000       $pdata$?isKindOf@PxConvexMesh@physx@@MEBA_NPEBD@Z 0000000180000000     BVHStructureBuilder.obj
 0002:fffd1000       $unwind$?isKindOf@PxHeightField@physx@@MEBA_NPEBD@Z 0000000180000000     BVHStructureBuilder.obj
 0004:fffc6000       $pdata$?isKindOf@PxHeightField@physx@@MEBA_NPEBD@Z 0000000180000000     BVHStructureBuilder.obj
 0002:fffd1000       $unwind$??_I@YAXPEAX_K1P6AX0@Z@Z 0000000180000000     HeightFieldCooking.obj
 0004:fffc6000       $pdata$??_I@YAXPEAX_K1P6AX0@Z@Z 0000000180000000     HeightFieldCooking.obj
 0002:fffd1000       $unwind$??_GPxFoundation@physx@@MEAAPEAXI@Z 0000000180000000     HeightFieldCooking.obj
 0004:fffc6000       $pdata$??_GPxFoundation@physx@@MEAAPEAXI@Z 0000000180000000     HeightFieldCooking.obj
 0002:fffd1000       $unwind$??_EPxFoundation@physx@@MEAAPEAXI@Z 0000000180000000     HeightFieldCooking.obj
 0004:fffc6000       $pdata$??_EPxFoundation@physx@@MEAAPEAXI@Z 0000000180000000     HeightFieldCooking.obj
 0002:fffd1000       $chain$0$??_EPxFoundation@physx@@MEAAPEAXI@Z 0000000180000000     HeightFieldCooking.obj
 0004:fffc6000       $pdata$0$??_EPxFoundation@physx@@MEAAPEAXI@Z 0000000180000000     HeightFieldCooking.obj
 0002:fffd1000       $chain$1$??_EPxFoundation@physx@@MEAAPEAXI@Z 0000000180000000     HeightFieldCooking.obj
 0004:fffc6000       $pdata$1$??_EPxFoundation@physx@@MEAAPEAXI@Z 0000000180000000     HeightFieldCooking.obj
 0002:fffd1000       $unwind$??_GPxBase@physx@@MEAAPEAXI@Z 0000000180000000     HeightFieldCooking.obj
 0004:fffc6000       $pdata$??_GPxBase@physx@@MEAAPEAXI@Z 0000000180000000     HeightFieldCooking.obj
 0002:fffd1000       $unwind$?isKindOf@PxHeightField@physx@@MEBA_NPEBD@Z 0000000180000000     HeightFieldCooking.obj
 0004:fffc6000       $pdata$?isKindOf@PxHeightField@physx@@MEBA_NPEBD@Z 0000000180000000     HeightFieldCooking.obj
 0002:fffd1000       $unwind$?getHeight@HeightField@Gu@physx@@UEBAMMM@Z 0000000180000000     HeightFieldCooking.obj
 0004:fffc6000       $pdata$?getHeight@HeightField@Gu@physx@@UEBAMMM@Z 0000000180000000     HeightFieldCooking.obj
 0002:fffd1000       $unwind$?getTriangleNormal@HeightField@Gu@physx@@UEBA?AVPxVec3@3@I@Z 0000000180000000     HeightFieldCooking.obj
 0004:fffc6000       $pdata$?getTriangleNormal@HeightField@Gu@physx@@UEBA?AVPxVec3@3@I@Z 0000000180000000     HeightFieldCooking.obj
 0002:fffd1000       $unwind$?getHeightInternal2@HeightField@Gu@physx@@QEBAMIMM@Z 0000000180000000     HeightFieldCooking.obj
 0004:fffc6000       $pdata$?getHeightInternal2@HeightField@Gu@physx@@QEBAMIMM@Z 0000000180000000     HeightFieldCooking.obj
 0002:fffd1000       $chain$0$?getHeightInternal2@HeightField@Gu@physx@@QEBAMIMM@Z 0000000180000000     HeightFieldCooking.obj
 0004:fffc6000       $pdata$0$?getHeightInternal2@HeightField@Gu@physx@@QEBAMIMM@Z 0000000180000000     HeightFieldCooking.obj
 0002:fffd1000       $chain$2$?getHeightInternal2@HeightField@Gu@physx@@QEBAMIMM@Z 0000000180000000     HeightFieldCooking.obj
 0004:fffc6000       $pdata$2$?getHeightInternal2@HeightField@Gu@physx@@QEBAMIMM@Z 0000000180000000     HeightFieldCooking.obj
 0004:fffc6000       $pdata$?growAndPushBack@?$Array@VPxPlane@physx@@VNamedAllocator@shdfnd@2@@shdfnd@physx@@IEAAAEAVPxPlane@3@AEBV43@@Z 0000000180000000     QuickHullConvexHullLib.obj
 0002:fffd1000       $unwind$?growAndPushBack@?$Array@VPxPlane@physx@@VNamedAllocator@shdfnd@2@@shdfnd@physx@@IEAAAEAVPxPlane@3@AEBV43@@Z 0000000180000000     QuickHullConvexHullLib.obj
 0004:fffc6000       $pdata$1$??_EPxFoundation@physx@@MEAAPEAXI@Z 0000000180000000     QuickHullConvexHullLib.obj
 0002:fffd1000       $chain$1$??_EPxFoundation@physx@@MEAAPEAXI@Z 0000000180000000     QuickHullConvexHullLib.obj
 0004:fffc6000       $pdata$0$??_EPxFoundation@physx@@MEAAPEAXI@Z 0000000180000000     QuickHullConvexHullLib.obj
 0002:fffd1000       $chain$0$??_EPxFoundation@physx@@MEAAPEAXI@Z 0000000180000000     QuickHullConvexHullLib.obj
 0002:fffd1000       $unwind$??_H@YAXPEAX_K1P6APEAX0@Z@Z 0000000180000000     RTreeCooking.obj
 0004:fffc6000       $pdata$??_H@YAXPEAX_K1P6APEAX0@Z@Z 0000000180000000     RTreeCooking.obj
 0002:fffd1000       $unwind$??_I@YAXPEAX_K1P6AX0@Z@Z 0000000180000000     RTreeCooking.obj
 0004:fffc6000       $pdata$??_I@YAXPEAX_K1P6AX0@Z@Z 0000000180000000     RTreeCooking.obj
 0002:fffd1000       $unwind$??_GPxFoundation@physx@@MEAAPEAXI@Z 0000000180000000     RTreeCooking.obj
 0004:fffc6000       $pdata$??_GPxFoundation@physx@@MEAAPEAXI@Z 0000000180000000     RTreeCooking.obj
 0002:fffd1000       $unwind$??_EPxFoundation@physx@@MEAAPEAXI@Z 0000000180000000     RTreeCooking.obj
 0004:fffc6000       $pdata$??_EPxFoundation@physx@@MEAAPEAXI@Z 0000000180000000     RTreeCooking.obj
 0002:fffd1000       $chain$0$??_EPxFoundation@physx@@MEAAPEAXI@Z 0000000180000000     RTreeCooking.obj
 0004:fffc6000       $pdata$0$??_EPxFoundation@physx@@MEAAPEAXI@Z 0000000180000000     RTreeCooking.obj
 0002:fffd1000       $chain$1$??_EPxFoundation@physx@@MEAAPEAXI@Z 0000000180000000     RTreeCooking.obj
 0004:fffc6000       $pdata$1$??_EPxFoundation@physx@@MEAAPEAXI@Z 0000000180000000     RTreeCooking.obj
 0002:fffd1000       $unwind$??_GPxBase@physx@@MEAAPEAXI@Z 0000000180000000     RTreeCooking.obj
 0004:fffc6000       $pdata$??_GPxBase@physx@@MEAAPEAXI@Z 0000000180000000     RTreeCooking.obj
 0000:fffc0000       .debug$S                   0000000180000000     PhysXCooking_64.exp
 0002:fffd1000       $unwind$?isKindOf@PxConvexMesh@physx@@MEBA_NPEBD@Z 0000000180000000     RTreeCooking.obj
 0000:fffc0000       .debug$S                   0000000180000000     kernel32:KERNEL32.dll
 0000:fffc0000       .debug$S                   0000000180000000     kernel32:KERNEL32.dll
 0000:fffc0000       .debug$S                   0000000180000000     kernel32:KERNEL32.dll
 0000:fffc0000       .debug$S                   0000000180000000     kernel32:KERNEL32.dll
 0000:fffc0000       .debug$S                   0000000180000000     kernel32:KERNEL32.dll
 0000:fffc0000       .debug$S                   0000000180000000     kernel32:KERNEL32.dll
 0000:fffc0000       .debug$S                   0000000180000000     kernel32:KERNEL32.dll
 0000:fffc0000       .debug$S                   0000000180000000     kernel32:KERNEL32.dll
 0000:fffc0000       .debug$S                   0000000180000000     kernel32:KERNEL32.dll
 0000:fffc0000       .debug$S                   0000000180000000     kernel32:KERNEL32.dll
 0000:fffc0000       .debug$S                   0000000180000000     kernel32:KERNEL32.dll
 0000:fffc0000       .debug$S                   0000000180000000     kernel32:KERNEL32.dll
 0000:fffc0000       .debug$S                   0000000180000000     kernel32:KERNEL32.dll
 0000:fffc0000       .debug$S                   0000000180000000     kernel32:KERNEL32.dll
 0000:fffc0000       .debug$S                   0000000180000000     kernel32:KERNEL32.dll
 0000:fffc0000       .debug$S                   0000000180000000     kernel32:KERNEL32.dll
 0000:fffc0000       .debug$S                   0000000180000000     kernel32:KERNEL32.dll
 0000:fffc0000       .debug$S                   0000000180000000     kernel32:KERNEL32.dll
 0000:fffc0000       .debug$S                   0000000180000000     kernel32:KERNEL32.dll
 0000:fffc0000       .debug$S                   0000000180000000     kernel32:KERNEL32.dll
 0000:fffc0000       .debug$S                   0000000180000000     kernel32:KERNEL32.dll
 0000:fffc0000       .debug$S                   0000000180000000     kernel32:KERNEL32.dll
 0000:fffc0000       .debug$S                   0000000180000000     kernel32:KERNEL32.dll
 0004:fffc6000       $pdata$?isKindOf@PxConvexMesh@physx@@MEBA_NPEBD@Z 0000000180000000     RTreeCooking.obj
 0002:fffd1000       $unwind$?growAndPushBack@?$Array@VPxVec3@physx@@VNamedAllocator@shdfnd@2@@shdfnd@physx@@IEAAAEAVPxVec3@3@AEBV43@@Z 0000000180000000     RTreeCooking.obj
 0004:fffc6000       $pdata$?growAndPushBack@?$Array@VPxVec3@physx@@VNamedAllocator@shdfnd@2@@shdfnd@physx@@IEAAAEAVPxVec3@3@AEBV43@@Z 0000000180000000     RTreeCooking.obj
 0002:fffd1000       $chain$0$?growAndPushBack@?$Array@VPxVec3@physx@@VNamedAllocator@shdfnd@2@@shdfnd@physx@@IEAAAEAVPxVec3@3@AEBV43@@Z 0000000180000000     RTreeCooking.obj
 0000:fffc0000       .debug$S                   0000000180000000     ucrt:api-ms-win-crt-runtime-l1-1-0.dll
 0000:fffc0000       .debug$S                   0000000180000000     ucrt:api-ms-win-crt-runtime-l1-1-0.dll
 0000:fffc0000       .debug$S                   0000000180000000     ucrt:api-ms-win-crt-runtime-l1-1-0.dll
 0000:fffc0000       .debug$S                   0000000180000000     ucrt:api-ms-win-crt-runtime-l1-1-0.dll
 0000:fffc0000       .debug$S                   0000000180000000     ucrt:api-ms-win-crt-runtime-l1-1-0.dll
 0000:fffc0000       .debug$S                   0000000180000000     ucrt:api-ms-win-crt-runtime-l1-1-0.dll
 0000:fffc0000       .debug$S                   0000000180000000     ucrt:api-ms-win-crt-runtime-l1-1-0.dll
 0000:fffc0000       .debug$S                   0000000180000000     ucrt:api-ms-win-crt-runtime-l1-1-0.dll
 0000:fffc0000       .debug$S                   0000000180000000     ucrt:api-ms-win-crt-runtime-l1-1-0.dll
 0000:fffc0000       .debug$S                   0000000180000000     ucrt:api-ms-win-crt-runtime-l1-1-0.dll
 0000:fffc0000       .debug$S                   0000000180000000     ucrt:api-ms-win-crt-runtime-l1-1-0.dll
 0000:fffc0000       .debug$S                   0000000180000000     ucrt:api-ms-win-crt-runtime-l1-1-0.dll
 0000:fffc0000       .debug$S                   0000000180000000     ucrt:api-ms-win-crt-heap-l1-1-0.dll
 0000:fffc0000       .debug$S                   0000000180000000     ucrt:api-ms-win-crt-math-l1-1-0.dll
 0000:fffc0000       .debug$S                   0000000180000000     ucrt:api-ms-win-crt-math-l1-1-0.dll
 0000:fffc0000       .debug$S                   0000000180000000     ucrt:api-ms-win-crt-math-l1-1-0.dll
 0000:fffc0000       .debug$S                   0000000180000000     ucrt:api-ms-win-crt-math-l1-1-0.dll
 0000:fffc0000       .debug$S                   0000000180000000     ucrt:api-ms-win-crt-string-l1-1-0.dll
 0004:fffc6000       $pdata$0$?growAndPushBack@?$Array@VPxVec3@physx@@VNamedAllocator@shdfnd@2@@shdfnd@physx@@IEAAAEAVPxVec3@3@AEBV43@@Z 0000000180000000     RTreeCooking.obj
 0000:fffc0000       .debug$S                   0000000180000000     vcruntime:VCRUNTIME140.dll
 0000:fffc0000       .debug$S                   0000000180000000     vcruntime:VCRUNTIME140.dll
 0000:fffc0000       .debug$S                   0000000180000000     vcruntime:VCRUNTIME140.dll
 0000:fffc0000       .debug$S                   0000000180000000     vcruntime:VCRUNTIME140.dll
 0000:fffc0000       .debug$S                   0000000180000000     vcruntime:VCRUNTIME140.dll
 0000:fffc0000       .debug$S                   0000000180000000     vcruntime:VCRUNTIME140.dll
 0000:fffc0000       .debug$S                   0000000180000000     vcruntime:VCRUNTIME140.dll
 0002:fffd1000       $chain$1$?growAndPushBack@?$Array@VPxVec3@physx@@VNamedAllocator@shdfnd@2@@shdfnd@physx@@IEAAAEAVPxVec3@3@AEBV43@@Z 0000000180000000     RTreeCooking.obj
 0004:fffc6000       $pdata$1$?growAndPushBack@?$Array@VPxVec3@physx@@VNamedAllocator@shdfnd@2@@shdfnd@physx@@IEAAAEAVPxVec3@3@AEBV43@@Z 0000000180000000     RTreeCooking.obj
 0002:fffd1000       $chain$2$?growAndPushBack@?$Array@VPxVec3@physx@@VNamedAllocator@shdfnd@2@@shdfnd@physx@@IEAAAEAVPxVec3@3@AEBV43@@Z 0000000180000000     RTreeCooking.obj
 0004:fffc6000       $pdata$2$?growAndPushBack@?$Array@VPxVec3@physx@@VNamedAllocator@shdfnd@2@@shdfnd@physx@@IEAAAEAVPxVec3@3@AEBV43@@Z 0000000180000000     RTreeCooking.obj
 0002:fffd1000       $chain$3$?growAndPushBack@?$Array@VPxVec3@physx@@VNamedAllocator@shdfnd@2@@shdfnd@physx@@IEAAAEAVPxVec3@3@AEBV43@@Z 0000000180000000     RTreeCooking.obj
 0004:fffc6000       $pdata$3$?growAndPushBack@?$Array@VPxVec3@physx@@VNamedAllocator@shdfnd@2@@shdfnd@physx@@IEAAAEAVPxVec3@3@AEBV43@@Z 0000000180000000     RTreeCooking.obj
 0004:fffc6000       $pdata$??_EPxFoundation@physx@@MEAAPEAXI@Z 0000000180000000     QuickHullConvexHullLib.obj
 0002:fffd1000       $unwind$??_EPxFoundation@physx@@MEAAPEAXI@Z 0000000180000000     QuickHullConvexHullLib.obj
 0004:fffc6000       $pdata$??_GPxFoundation@physx@@MEAAPEAXI@Z 0000000180000000     QuickHullConvexHullLib.obj
 0002:fffd1000       $unwind$??_GPxFoundation@physx@@MEAAPEAXI@Z 0000000180000000     QuickHullConvexHullLib.obj
 0004:fffc6000       $pdata$??_GConvexHullLib@physx@@UEAAPEAXI@Z 0000000180000000     QuickHullConvexHullLib.obj
 0002:fffd1000       $unwind$??_GConvexHullLib@physx@@UEAAPEAXI@Z 0000000180000000     QuickHullConvexHullLib.obj
 0002:fffd1000       __guard_fids___scrt_set_unhandled_exception_filter 0000000180000000     MSVCRT:utility_desktop.obj
 0002:fffd1000       $unwind$??_H@YAXPEAX_K1P6APEAX0@Z@Z 0000000180000000     MeshBuilder.obj
 0004:fffc6000       $pdata$??_H@YAXPEAX_K1P6APEAX0@Z@Z 0000000180000000     MeshBuilder.obj
 0002:fffd1000       $unwind$??_I@YAXPEAX_K1P6AX0@Z@Z 0000000180000000     MeshBuilder.obj
 0004:fffc6000       $pdata$??_I@YAXPEAX_K1P6AX0@Z@Z 0000000180000000     MeshBuilder.obj
 0002:fffd1000       $unwind$??_GPxFoundation@physx@@MEAAPEAXI@Z 0000000180000000     MeshBuilder.obj
 0004:fffc6000       $pdata$??_GPxFoundation@physx@@MEAAPEAXI@Z 0000000180000000     MeshBuilder.obj
 0002:fffd1000       $unwind$??_EPxFoundation@physx@@MEAAPEAXI@Z 0000000180000000     MeshBuilder.obj
 0004:fffc6000       $pdata$??_EPxFoundation@physx@@MEAAPEAXI@Z 0000000180000000     MeshBuilder.obj
 0002:fffd1000       $chain$0$??_EPxFoundation@physx@@MEAAPEAXI@Z 0000000180000000     MeshBuilder.obj
 0004:fffc6000       $pdata$0$??_EPxFoundation@physx@@MEAAPEAXI@Z 0000000180000000     MeshBuilder.obj
 0002:fffd1000       $chain$1$??_EPxFoundation@physx@@MEAAPEAXI@Z 0000000180000000     MeshBuilder.obj
 0004:fffc6000       $pdata$1$??_EPxFoundation@physx@@MEAAPEAXI@Z 0000000180000000     MeshBuilder.obj
 0004:fffc6000       $pdata$2$?getInverse@PxMat33@physx@@QEBA?BV12@XZ 0000000180000000     QuickHullConvexHullLib.obj
 0002:fffd1000       $chain$2$?getInverse@PxMat33@physx@@QEBA?BV12@XZ 0000000180000000     QuickHullConvexHullLib.obj
 0004:fffc6000       $pdata$1$?getInverse@PxMat33@physx@@QEBA?BV12@XZ 0000000180000000     QuickHullConvexHullLib.obj
 0002:fffd1000       $chain$1$?getInverse@PxMat33@physx@@QEBA?BV12@XZ 0000000180000000     QuickHullConvexHullLib.obj
 0004:fffc6000       $pdata$?getInverse@PxMat33@physx@@QEBA?BV12@XZ 0000000180000000     QuickHullConvexHullLib.obj
 0002:fffd1000       $unwind$?getInverse@PxMat33@physx@@QEBA?BV12@XZ 0000000180000000     QuickHullConvexHullLib.obj
 0002:fffd1000       $unwind$??_H@YAXPEAX_K1P6APEAX0@Z@Z 0000000180000000     TriangleMeshBuilder.obj
 0004:fffc6000       $pdata$??_H@YAXPEAX_K1P6APEAX0@Z@Z 0000000180000000     TriangleMeshBuilder.obj
 0002:fffd1000       $unwind$??_I@YAXPEAX_K1P6AX0@Z@Z 0000000180000000     TriangleMeshBuilder.obj
 0004:fffc6000       $pdata$??_I@YAXPEAX_K1P6AX0@Z@Z 0000000180000000     TriangleMeshBuilder.obj
 0002:fffd1000       $unwind$??_GPxFoundation@physx@@MEAAPEAXI@Z 0000000180000000     TriangleMeshBuilder.obj
 0004:fffc6000       $pdata$??_GPxFoundation@physx@@MEAAPEAXI@Z 0000000180000000     TriangleMeshBuilder.obj
 0002:fffd1000       $unwind$??_EPxFoundation@physx@@MEAAPEAXI@Z 0000000180000000     TriangleMeshBuilder.obj
 0004:fffc6000       $pdata$??_EPxFoundation@physx@@MEAAPEAXI@Z 0000000180000000     TriangleMeshBuilder.obj
 0002:fffd1000       $chain$0$??_EPxFoundation@physx@@MEAAPEAXI@Z 0000000180000000     TriangleMeshBuilder.obj
 0004:fffc6000       $pdata$0$??_EPxFoundation@physx@@MEAAPEAXI@Z 0000000180000000     TriangleMeshBuilder.obj
 0002:fffd1000       $chain$1$??_EPxFoundation@physx@@MEAAPEAXI@Z 0000000180000000     TriangleMeshBuilder.obj
 0004:fffc6000       $pdata$1$??_EPxFoundation@physx@@MEAAPEAXI@Z 0000000180000000     TriangleMeshBuilder.obj
 0002:fffd1000       $unwind$??_GPxBase@physx@@MEAAPEAXI@Z 0000000180000000     TriangleMeshBuilder.obj
 0004:fffc6000       $pdata$??_GPxBase@physx@@MEAAPEAXI@Z 0000000180000000     TriangleMeshBuilder.obj
 0002:fffd1000       $unwind$??$?_UI@@YAPEAX_KV?$ReflectionAllocator@I@shdfnd@physx@@PEBDH@Z 0000000180000000     TriangleMeshBuilder.obj
 0004:fffc6000       $pdata$??$?_UI@@YAPEAX_KV?$ReflectionAllocator@I@shdfnd@physx@@PEBDH@Z 0000000180000000     TriangleMeshBuilder.obj
 0002:fffd1000       $chain$0$??$?_UI@@YAPEAX_KV?$ReflectionAllocator@I@shdfnd@physx@@PEBDH@Z 0000000180000000     TriangleMeshBuilder.obj
 0004:fffc6000       $pdata$0$??$?_UI@@YAPEAX_KV?$ReflectionAllocator@I@shdfnd@physx@@PEBDH@Z 0000000180000000     TriangleMeshBuilder.obj
 0002:fffd1000       $chain$1$??$?_UI@@YAPEAX_KV?$ReflectionAllocator@I@shdfnd@physx@@PEBDH@Z 0000000180000000     TriangleMeshBuilder.obj
 0004:fffc6000       $pdata$1$??$?_UI@@YAPEAX_KV?$ReflectionAllocator@I@shdfnd@physx@@PEBDH@Z 0000000180000000     TriangleMeshBuilder.obj
 0002:fffd1000       $unwind$?isKindOf@PxConvexMesh@physx@@MEBA_NPEBD@Z 0000000180000000     TriangleMeshBuilder.obj
 0004:fffc6000       $pdata$?isKindOf@PxConvexMesh@physx@@MEBA_NPEBD@Z 0000000180000000     TriangleMeshBuilder.obj
 0004:fffc6000       $pdata$?isKindOf@PxConvexMesh@physx@@MEBA_NPEBD@Z 0000000180000000     QuickHullConvexHullLib.obj
 0002:fffd1000       $unwind$?isKindOf@PxConvexMesh@physx@@MEBA_NPEBD@Z 0000000180000000     QuickHullConvexHullLib.obj
 0004:fffc6000       $pdata$??_GPxBase@physx@@MEAAPEAXI@Z 0000000180000000     QuickHullConvexHullLib.obj
 0002:fffd1000       $unwind$??_GPxBase@physx@@MEAAPEAXI@Z 0000000180000000     QuickHullConvexHullLib.obj
 0004:fffc6000       $pdata$??_I@YAXPEAX_K1P6AX0@Z@Z 0000000180000000     QuickHullConvexHullLib.obj
 0002:fffd1000       $unwind$??_I@YAXPEAX_K1P6AX0@Z@Z 0000000180000000     QuickHullConvexHullLib.obj
 0002:fffd1000       $unwind$??_I@YAXPEAX_K1P6AX0@Z@Z 0000000180000000     BigConvexDataBuilder.obj
 0004:fffc6000       $pdata$??_I@YAXPEAX_K1P6AX0@Z@Z 0000000180000000     BigConvexDataBuilder.obj
 0002:fffd1000       $unwind$??_GPxFoundation@physx@@MEAAPEAXI@Z 0000000180000000     BigConvexDataBuilder.obj
 0004:fffc6000       $pdata$??_GPxFoundation@physx@@MEAAPEAXI@Z 0000000180000000     BigConvexDataBuilder.obj
 0002:fffd1000       $unwind$??_EPxFoundation@physx@@MEAAPEAXI@Z 0000000180000000     BigConvexDataBuilder.obj
 0004:fffc6000       $pdata$??_EPxFoundation@physx@@MEAAPEAXI@Z 0000000180000000     BigConvexDataBuilder.obj
 0002:fffd1000       $chain$0$??_EPxFoundation@physx@@MEAAPEAXI@Z 0000000180000000     BigConvexDataBuilder.obj
 0004:fffc6000       $pdata$0$??_EPxFoundation@physx@@MEAAPEAXI@Z 0000000180000000     BigConvexDataBuilder.obj
 0002:fffd1000       $chain$1$??_EPxFoundation@physx@@MEAAPEAXI@Z 0000000180000000     BigConvexDataBuilder.obj
 0004:fffc6000       $pdata$1$??_EPxFoundation@physx@@MEAAPEAXI@Z 0000000180000000     BigConvexDataBuilder.obj
 0002:fffd1000       $unwind$??_GPxBase@physx@@MEAAPEAXI@Z 0000000180000000     BigConvexDataBuilder.obj
 0004:fffc6000       $pdata$??_GPxBase@physx@@MEAAPEAXI@Z 0000000180000000     BigConvexDataBuilder.obj
 0002:fffd1000       $unwind$?isKindOf@PxConvexMesh@physx@@MEBA_NPEBD@Z 0000000180000000     BigConvexDataBuilder.obj
 0004:fffc6000       $pdata$?isKindOf@PxConvexMesh@physx@@MEBA_NPEBD@Z 0000000180000000     BigConvexDataBuilder.obj
 0004:fffc6000       $pdata$??_H@YAXPEAX_K1P6APEAX0@Z@Z 0000000180000000     QuickHullConvexHullLib.obj
 0002:fffd1000       $unwind$??_H@YAXPEAX_K1P6APEAX0@Z@Z 0000000180000000     QuickHullConvexHullLib.obj
 0004:fffc6000       $pdata$1$??$?_UE@@YAPEAX_KV?$ReflectionAllocator@E@shdfnd@physx@@PEBDH@Z 0000000180000000     ConvexPolygonsBuilder.obj
 0002:fffd1000       $chain$1$??$?_UE@@YAPEAX_KV?$ReflectionAllocator@E@shdfnd@physx@@PEBDH@Z 0000000180000000     ConvexPolygonsBuilder.obj
 0004:fffc6000       $pdata$0$??$?_UE@@YAPEAX_KV?$ReflectionAllocator@E@shdfnd@physx@@PEBDH@Z 0000000180000000     ConvexPolygonsBuilder.obj
 0002:fffd1000       $chain$0$??$?_UE@@YAPEAX_KV?$ReflectionAllocator@E@shdfnd@physx@@PEBDH@Z 0000000180000000     ConvexPolygonsBuilder.obj
 0002:fffd1000       $unwind$??_H@YAXPEAX_K1P6APEAX0@Z@Z 0000000180000000     ConvexHullBuilder.obj
 0004:fffc6000       $pdata$??_H@YAXPEAX_K1P6APEAX0@Z@Z 0000000180000000     ConvexHullBuilder.obj
 0002:fffd1000       $unwind$??_I@YAXPEAX_K1P6AX0@Z@Z 0000000180000000     ConvexHullBuilder.obj
 0004:fffc6000       $pdata$??_I@YAXPEAX_K1P6AX0@Z@Z 0000000180000000     ConvexHullBuilder.obj
 0002:fffd1000       $unwind$??_GPxFoundation@physx@@MEAAPEAXI@Z 0000000180000000     ConvexHullBuilder.obj
 0004:fffc6000       $pdata$??_GPxFoundation@physx@@MEAAPEAXI@Z 0000000180000000     ConvexHullBuilder.obj
 0002:fffd1000       $unwind$??_EPxFoundation@physx@@MEAAPEAXI@Z 0000000180000000     ConvexHullBuilder.obj
 0004:fffc6000       $pdata$??_EPxFoundation@physx@@MEAAPEAXI@Z 0000000180000000     ConvexHullBuilder.obj
 0002:fffd1000       $chain$0$??_EPxFoundation@physx@@MEAAPEAXI@Z 0000000180000000     ConvexHullBuilder.obj
 0004:fffc6000       $pdata$0$??_EPxFoundation@physx@@MEAAPEAXI@Z 0000000180000000     ConvexHullBuilder.obj
 0002:fffd1000       $chain$1$??_EPxFoundation@physx@@MEAAPEAXI@Z 0000000180000000     ConvexHullBuilder.obj
 0004:fffc6000       $pdata$1$??_EPxFoundation@physx@@MEAAPEAXI@Z 0000000180000000     ConvexHullBuilder.obj
 0002:fffd1000       $unwind$??_GPxBase@physx@@MEAAPEAXI@Z 0000000180000000     ConvexHullBuilder.obj
 0004:fffc6000       $pdata$??_GPxBase@physx@@MEAAPEAXI@Z 0000000180000000     ConvexHullBuilder.obj
 0002:fffd1000       $unwind$?isKindOf@PxConvexMesh@physx@@MEBA_NPEBD@Z 0000000180000000     ConvexHullBuilder.obj
 0002:fffd1000       __guard_fids__guard_icall_checks_enforced 0000000180000000     MSVCRT:guard_support.obj
 0002:fffd1000       __guard_fids__             0000000180000000     MSVCRT:guard_support.obj
 0004:fffc6000       $pdata$?isKindOf@PxConvexMesh@physx@@MEBA_NPEBD@Z 0000000180000000     ConvexHullBuilder.obj
 0002:fffd1000       $unwind$??_EPxConvexMesh@physx@@MEAAPEAXI@Z 0000000180000000     ConvexHullBuilder.obj
 0004:fffc6000       $pdata$??_EPxConvexMesh@physx@@MEAAPEAXI@Z 0000000180000000     ConvexHullBuilder.obj
 0002:fffd1000       $chain$0$??_EPxConvexMesh@physx@@MEAAPEAXI@Z 0000000180000000     ConvexHullBuilder.obj
 0004:fffc6000       $pdata$0$??_EPxConvexMesh@physx@@MEAAPEAXI@Z 0000000180000000     ConvexHullBuilder.obj
 0004:fffc6000       $pdata$1$?recreate@?$Array@VPxPlane@physx@@VNamedAllocator@shdfnd@2@@shdfnd@physx@@IEAAXI@Z 0000000180000000     QuickHullConvexHullLib.obj
 0004:fffc6000       $pdata$1$??_EPxConvexMesh@physx@@MEAAPEAXI@Z 0000000180000000     ConvexHullBuilder.obj
 0002:fffd1000       __guard_fids_?dllmain_dispatch@@YAHQEAUHINSTANCE__@@KQEAX@Z 0000000180000000     MSVCRT:dll_dllmain.obj
 0002:fffd1000       $unwind$??_GRefCountable@Cm@physx@@UEAAPEAXI@Z 0000000180000000     ConvexHullBuilder.obj
 0004:fffc6000       $pdata$??_GRefCountable@Cm@physx@@UEAAPEAXI@Z 0000000180000000     ConvexHullBuilder.obj
 0002:fffd1000       $unwind$?recreate@?$Array@UPxDebugLine@physx@@VNamedAllocator@shdfnd@2@@shdfnd@physx@@IEAAXI@Z 0000000180000000     ConvexHullBuilder.obj
 0004:fffc6000       $pdata$?recreate@?$Array@UPxDebugLine@physx@@VNamedAllocator@shdfnd@2@@shdfnd@physx@@IEAAXI@Z 0000000180000000     ConvexHullBuilder.obj
 0002:fffd1000       $chain$0$?recreate@?$Array@UPxDebugLine@physx@@VNamedAllocator@shdfnd@2@@shdfnd@physx@@IEAAXI@Z 0000000180000000     ConvexHullBuilder.obj
 0004:fffc6000       $pdata$0$?recreate@?$Array@UPxDebugLine@physx@@VNamedAllocator@shdfnd@2@@shdfnd@physx@@IEAAXI@Z 0000000180000000     ConvexHullBuilder.obj
 0002:fffd1000       $chain$1$?recreate@?$Array@UPxDebugLine@physx@@VNamedAllocator@shdfnd@2@@shdfnd@physx@@IEAAXI@Z 0000000180000000     ConvexHullBuilder.obj
 0004:fffc6000       $pdata$1$?recreate@?$Array@UPxDebugLine@physx@@VNamedAllocator@shdfnd@2@@shdfnd@physx@@IEAAXI@Z 0000000180000000     ConvexHullBuilder.obj
 0002:fffd1000       $unwind$?reserveSegments@RenderOutput@Cm@physx@@QEAAPEAUPxDebugLine@3@I@Z 0000000180000000     ConvexHullBuilder.obj
 0004:fffc6000       $pdata$?reserveSegments@RenderOutput@Cm@physx@@QEAAPEAUPxDebugLine@3@I@Z 0000000180000000     ConvexHullBuilder.obj
 0002:fffd1000       $unwind$?outputSegment@RenderOutput@Cm@physx@@QEAAXAEBVPxVec3@3@0@Z 0000000180000000     ConvexHullBuilder.obj
 0004:fffc6000       $pdata$?outputSegment@RenderOutput@Cm@physx@@QEAAXAEBVPxVec3@3@0@Z 0000000180000000     ConvexHullBuilder.obj
 0002:fffd1000       $unwind$??_EConvexMesh@Gu@physx@@UEAAPEAXI@Z 0000000180000000     ConvexHullBuilder.obj
 0004:fffc6000       $pdata$??_EConvexMesh@Gu@physx@@UEAAPEAXI@Z 0000000180000000     ConvexHullBuilder.obj
 0002:fffd1000       $chain$2$??_EConvexMesh@Gu@physx@@UEAAPEAXI@Z 0000000180000000     ConvexHullBuilder.obj
 0004:fffc6000       $pdata$2$??_EConvexMesh@Gu@physx@@UEAAPEAXI@Z 0000000180000000     ConvexHullBuilder.obj
 0002:fffd1000       $chain$3$??_EConvexMesh@Gu@physx@@UEAAPEAXI@Z 0000000180000000     ConvexHullBuilder.obj
 0004:fffc6000       $pdata$3$??_EConvexMesh@Gu@physx@@UEAAPEAXI@Z 0000000180000000     ConvexHullBuilder.obj
 0002:fffd1000       $chain$5$??_EConvexMesh@Gu@physx@@UEAAPEAXI@Z 0000000180000000     ConvexHullBuilder.obj
 0004:fffc6000       $pdata$5$??_EConvexMesh@Gu@physx@@UEAAPEAXI@Z 0000000180000000     ConvexHullBuilder.obj
 0002:fffd1000       $chain$6$??_EConvexMesh@Gu@physx@@UEAAPEAXI@Z 0000000180000000     ConvexHullBuilder.obj
 0004:fffc6000       $pdata$6$??_EConvexMesh@Gu@physx@@UEAAPEAXI@Z 0000000180000000     ConvexHullBuilder.obj
 0002:fffd1000       $unwind$??_I@YAXPEAX_K1P6AX0@Z@Z 0000000180000000     ConvexHullLib.obj
 0004:fffc6000       $pdata$??_I@YAXPEAX_K1P6AX0@Z@Z 0000000180000000     ConvexHullLib.obj
 0002:fffd1000       $unwind$??_GPxBase@physx@@MEAAPEAXI@Z 0000000180000000     ConvexHullLib.obj
 0004:fffc6000       $pdata$??_GPxBase@physx@@MEAAPEAXI@Z 0000000180000000     ConvexHullLib.obj
 0002:fffd1000       $unwind$?isKindOf@PxConvexMesh@physx@@MEBA_NPEBD@Z 0000000180000000     ConvexHullLib.obj
 0002:fffd1000       __guard_fids__             0000000180000000     MSVCRT:std_type_info_static.obj
 0004:fffc6000       $pdata$?isKindOf@PxConvexMesh@physx@@MEBA_NPEBD@Z 0000000180000000     ConvexHullLib.obj
 0002:fffd1000       $unwind$??_GPxFoundation@physx@@MEAAPEAXI@Z 0000000180000000     ConvexHullLib.obj
 0004:fffc6000       $pdata$??_GPxFoundation@physx@@MEAAPEAXI@Z 0000000180000000     ConvexHullLib.obj
 0002:fffd1000       $unwind$??_EPxFoundation@physx@@MEAAPEAXI@Z 0000000180000000     ConvexHullLib.obj
 0004:fffc6000       $pdata$??_EPxFoundation@physx@@MEAAPEAXI@Z 0000000180000000     ConvexHullLib.obj
 0002:fffd1000       $chain$0$??_EPxFoundation@physx@@MEAAPEAXI@Z 0000000180000000     ConvexHullLib.obj
 0004:fffc6000       $pdata$0$??_EPxFoundation@physx@@MEAAPEAXI@Z 0000000180000000     ConvexHullLib.obj
 0002:fffd1000       $chain$1$??_EPxFoundation@physx@@MEAAPEAXI@Z 0000000180000000     ConvexHullLib.obj
 0004:fffc6000       $pdata$1$??_EPxFoundation@physx@@MEAAPEAXI@Z 0000000180000000     ConvexHullLib.obj
 0004:fffc6000       $pdata$??$?_UE@@YAPEAX_KV?$ReflectionAllocator@E@shdfnd@physx@@PEBDH@Z 0000000180000000     ConvexPolygonsBuilder.obj
 0002:fffd1000       $unwind$??$?_UE@@YAPEAX_KV?$ReflectionAllocator@E@shdfnd@physx@@PEBDH@Z 0000000180000000     ConvexPolygonsBuilder.obj
 0004:fffc6000       $pdata$1$?recreate@?$Array@IVNamedAllocator@shdfnd@physx@@@shdfnd@physx@@IEAAXI@Z 0000000180000000     ConvexPolygonsBuilder.obj
 0002:fffd1000       $chain$1$?recreate@?$Array@IVNamedAllocator@shdfnd@physx@@@shdfnd@physx@@IEAAXI@Z 0000000180000000     ConvexPolygonsBuilder.obj
 0004:fffc6000       $pdata$0$?recreate@?$Array@IVNamedAllocator@shdfnd@physx@@@shdfnd@physx@@IEAAXI@Z 0000000180000000     ConvexPolygonsBuilder.obj
 0002:fffd1000       $chain$0$?recreate@?$Array@IVNamedAllocator@shdfnd@physx@@@shdfnd@physx@@IEAAXI@Z 0000000180000000     ConvexPolygonsBuilder.obj
 0002:fffd1000       $unwind$??_H@YAXPEAX_K1P6APEAX0@Z@Z 0000000180000000     ConvexHullUtils.obj
 0004:fffc6000       $pdata$??_H@YAXPEAX_K1P6APEAX0@Z@Z 0000000180000000     ConvexHullUtils.obj
 0002:fffd1000       $unwind$??_I@YAXPEAX_K1P6AX0@Z@Z 0000000180000000     ConvexHullUtils.obj
 0004:fffc6000       $pdata$??_I@YAXPEAX_K1P6AX0@Z@Z 0000000180000000     ConvexHullUtils.obj
 0002:fffd1000       $unwind$??_GPxFoundation@physx@@MEAAPEAXI@Z 0000000180000000     ConvexHullUtils.obj
 0004:fffc6000       $pdata$??_GPxFoundation@physx@@MEAAPEAXI@Z 0000000180000000     ConvexHullUtils.obj
 0002:fffd1000       $unwind$??_EPxFoundation@physx@@MEAAPEAXI@Z 0000000180000000     ConvexHullUtils.obj
 0004:fffc6000       $pdata$??_EPxFoundation@physx@@MEAAPEAXI@Z 0000000180000000     ConvexHullUtils.obj
 0002:fffd1000       $chain$0$??_EPxFoundation@physx@@MEAAPEAXI@Z 0000000180000000     ConvexHullUtils.obj
 0004:fffc6000       $pdata$0$??_EPxFoundation@physx@@MEAAPEAXI@Z 0000000180000000     ConvexHullUtils.obj
 0002:fffd1000       $chain$1$??_EPxFoundation@physx@@MEAAPEAXI@Z 0000000180000000     ConvexHullUtils.obj
 0004:fffc6000       $pdata$1$??_EPxFoundation@physx@@MEAAPEAXI@Z 0000000180000000     ConvexHullUtils.obj
 0002:fffd1000       $unwind$??_GPxBase@physx@@MEAAPEAXI@Z 0000000180000000     ConvexHullUtils.obj
 0004:fffc6000       $pdata$??_GPxBase@physx@@MEAAPEAXI@Z 0000000180000000     ConvexHullUtils.obj
 0002:fffd1000       $unwind$?isKindOf@PxConvexMesh@physx@@MEBA_NPEBD@Z 0000000180000000     ConvexHullUtils.obj
 0004:fffc6000       $pdata$?isKindOf@PxConvexMesh@physx@@MEBA_NPEBD@Z 0000000180000000     ConvexHullUtils.obj
 0002:fffd1000       $unwind$?growAndPushBack@?$Array@VPxVec3@physx@@VNamedAllocator@shdfnd@2@@shdfnd@physx@@IEAAAEAVPxVec3@3@AEBV43@@Z 0000000180000000     ConvexHullUtils.obj
 0004:fffc6000       $pdata$?growAndPushBack@?$Array@VPxVec3@physx@@VNamedAllocator@shdfnd@2@@shdfnd@physx@@IEAAAEAVPxVec3@3@AEBV43@@Z 0000000180000000     ConvexHullUtils.obj
 0002:fffd1000       $chain$0$?growAndPushBack@?$Array@VPxVec3@physx@@VNamedAllocator@shdfnd@2@@shdfnd@physx@@IEAAAEAVPxVec3@3@AEBV43@@Z 0000000180000000     ConvexHullUtils.obj
 0004:fffc6000       $pdata$0$?growAndPushBack@?$Array@VPxVec3@physx@@VNamedAllocator@shdfnd@2@@shdfnd@physx@@IEAAAEAVPxVec3@3@AEBV43@@Z 0000000180000000     ConvexHullUtils.obj
 0000:fffc0000       .debug$S                   0000000180000000     kernel32:KERNEL32.dll
 0000:fffc0000       .debug$S                   0000000180000000     PhysXFoundation_64:PhysXFoundation_64.dll
 0000:fffc0000       .debug$S                   0000000180000000     PhysXFoundation_64:PhysXFoundation_64.dll
 0000:fffc0000       .debug$S                   0000000180000000     PhysXFoundation_64:PhysXFoundation_64.dll
 0000:fffc0000       .debug$S                   0000000180000000     PhysXFoundation_64:PhysXFoundation_64.dll
 0000:fffc0000       .debug$S                   0000000180000000     PhysXFoundation_64:PhysXFoundation_64.dll
 0000:fffc0000       .debug$S                   0000000180000000     PhysXFoundation_64:PhysXFoundation_64.dll
 0000:fffc0000       .debug$S                   0000000180000000     PhysXFoundation_64:PhysXFoundation_64.dll
 0000:fffc0000       .debug$S                   0000000180000000     PhysXFoundation_64:PhysXFoundation_64.dll
 0000:fffc0000       .debug$S                   0000000180000000     PhysXFoundation_64:PhysXFoundation_64.dll
 0000:fffc0000       .debug$S                   0000000180000000     PhysXFoundation_64:PhysXFoundation_64.dll
 0000:fffc0000       .debug$S                   0000000180000000     PhysXFoundation_64:PhysXFoundation_64.dll
 0000:fffc0000       .debug$S                   0000000180000000     PhysXFoundation_64:PhysXFoundation_64.dll
 0000:fffc0000       .debug$S                   0000000180000000     PhysXFoundation_64:PhysXFoundation_64.dll
 0000:fffc0000       .debug$S                   0000000180000000     PhysXFoundation_64:PhysXFoundation_64.dll
 0000:fffc0000       .debug$S                   0000000180000000     PhysXFoundation_64:PhysXFoundation_64.dll
 0002:fffd1000       $chain$1$?growAndPushBack@?$Array@VPxVec3@physx@@VNamedAllocator@shdfnd@2@@shdfnd@physx@@IEAAAEAVPxVec3@3@AEBV43@@Z 0000000180000000     ConvexHullUtils.obj
 0000:fffc0000       .debug$S                   0000000180000000     PhysXFoundation_64:PhysXFoundation_64.dll
 0000:fffc0000       .debug$S                   0000000180000000     PhysXCommon_64:PhysXCommon_64.dll
 0000:fffc0000       .debug$S                   0000000180000000     PhysXCommon_64:PhysXCommon_64.dll
 0000:fffc0000       .debug$S                   0000000180000000     PhysXCommon_64:PhysXCommon_64.dll
 0000:fffc0000       .debug$S                   0000000180000000     PhysXCommon_64:PhysXCommon_64.dll
 0000:fffc0000       .debug$S                   0000000180000000     PhysXCommon_64:PhysXCommon_64.dll
 0000:fffc0000       .debug$S                   0000000180000000     PhysXCommon_64:PhysXCommon_64.dll
 0000:fffc0000       .debug$S                   0000000180000000     PhysXCommon_64:PhysXCommon_64.dll
 0000:fffc0000       .debug$S                   0000000180000000     PhysXCommon_64:PhysXCommon_64.dll
 0000:fffc0000       .debug$S                   0000000180000000     PhysXCommon_64:PhysXCommon_64.dll
 0000:fffc0000       .debug$S                   0000000180000000     PhysXCommon_64:PhysXCommon_64.dll
 0000:fffc0000       .debug$S                   0000000180000000     PhysXCommon_64:PhysXCommon_64.dll
 0000:fffc0000       .debug$S                   0000000180000000     PhysXCommon_64:PhysXCommon_64.dll
 0000:fffc0000       .debug$S                   0000000180000000     PhysXCommon_64:PhysXCommon_64.dll
 0000:fffc0000       .debug$S                   0000000180000000     PhysXCommon_64:PhysXCommon_64.dll
 0000:fffc0000       .debug$S                   0000000180000000     PhysXCommon_64:PhysXCommon_64.dll
 0000:fffc0000       .debug$S                   0000000180000000     PhysXCommon_64:PhysXCommon_64.dll
 0000:fffc0000       .debug$S                   0000000180000000     PhysXCommon_64:PhysXCommon_64.dll
 0000:fffc0000       .debug$S                   0000000180000000     PhysXCommon_64:PhysXCommon_64.dll
 0000:fffc0000       .debug$S                   0000000180000000     PhysXCommon_64:PhysXCommon_64.dll
 0000:fffc0000       .debug$S                   0000000180000000     PhysXCommon_64:PhysXCommon_64.dll
 0000:fffc0000       .debug$S                   0000000180000000     PhysXCommon_64:PhysXCommon_64.dll
 0000:fffc0000       .debug$S                   0000000180000000     PhysXCommon_64:PhysXCommon_64.dll
 0000:fffc0000       .debug$S                   0000000180000000     PhysXCommon_64:PhysXCommon_64.dll
 0000:fffc0000       .debug$S                   0000000180000000     PhysXCommon_64:PhysXCommon_64.dll
 0000:fffc0000       .debug$S                   0000000180000000     PhysXCommon_64:PhysXCommon_64.dll
 0000:fffc0000       .debug$S                   0000000180000000     PhysXCommon_64:PhysXCommon_64.dll
 0000:fffc0000       .debug$S                   0000000180000000     PhysXCommon_64:PhysXCommon_64.dll
 0000:fffc0000       .debug$S                   0000000180000000     PhysXCommon_64:PhysXCommon_64.dll
 0000:fffc0000       .debug$S                   0000000180000000     PhysXCommon_64:PhysXCommon_64.dll
 0000:fffc0000       .debug$S                   0000000180000000     PhysXCommon_64:PhysXCommon_64.dll
 0000:fffc0000       .debug$S                   0000000180000000     PhysXCommon_64:PhysXCommon_64.dll
 0000:fffc0000       .debug$S                   0000000180000000     PhysXCommon_64:PhysXCommon_64.dll
 0000:fffc0000       .debug$S                   0000000180000000     PhysXCommon_64:PhysXCommon_64.dll
 0000:fffc0000       .debug$S                   0000000180000000     PhysXCommon_64:PhysXCommon_64.dll
 0000:fffc0000       .debug$S                   0000000180000000     PhysXCommon_64:PhysXCommon_64.dll
 0000:fffc0000       .debug$S                   0000000180000000     PhysXCommon_64:PhysXCommon_64.dll
 0000:fffc0000       .debug$S                   0000000180000000     PhysXCommon_64:PhysXCommon_64.dll
 0000:fffc0000       .debug$S                   0000000180000000     PhysXCommon_64:PhysXCommon_64.dll
 0000:fffc0000       .debug$S                   0000000180000000     PhysXCommon_64:PhysXCommon_64.dll
 0000:fffc0000       .debug$S                   0000000180000000     PhysXCommon_64:PhysXCommon_64.dll
 0000:fffc0000       .debug$S                   0000000180000000     PhysXCommon_64:PhysXCommon_64.dll
 0000:fffc0000       .debug$S                   0000000180000000     PhysXCommon_64:PhysXCommon_64.dll
 0000:fffc0000       .debug$S                   0000000180000000     PhysXCommon_64:PhysXCommon_64.dll
 0000:fffc0000       .debug$S                   0000000180000000     PhysXCommon_64:PhysXCommon_64.dll
 0000:fffc0000       .debug$S                   0000000180000000     PhysXCommon_64:PhysXCommon_64.dll
 0000:fffc0000       .debug$S                   0000000180000000     PhysXCommon_64:PhysXCommon_64.dll
 0000:fffc0000       .debug$S                   0000000180000000     PhysXCommon_64:PhysXCommon_64.dll
 0004:fffc6000       $pdata$1$?growAndPushBack@?$Array@VPxVec3@physx@@VNamedAllocator@shdfnd@2@@shdfnd@physx@@IEAAAEAVPxVec3@3@AEBV43@@Z 0000000180000000     ConvexHullUtils.obj
 0000:fffc0000       .debug$S                   0000000180000000     PhysXCommon_64:PhysXCommon_64.dll
 0002:fffd1000       $chain$2$?growAndPushBack@?$Array@VPxVec3@physx@@VNamedAllocator@shdfnd@2@@shdfnd@physx@@IEAAAEAVPxVec3@3@AEBV43@@Z 0000000180000000     ConvexHullUtils.obj
 0004:fffc6000       $pdata$2$?growAndPushBack@?$Array@VPxVec3@physx@@VNamedAllocator@shdfnd@2@@shdfnd@physx@@IEAAAEAVPxVec3@3@AEBV43@@Z 0000000180000000     ConvexHullUtils.obj
 0002:fffd1000       $chain$3$?growAndPushBack@?$Array@VPxVec3@physx@@VNamedAllocator@shdfnd@2@@shdfnd@physx@@IEAAAEAVPxVec3@3@AEBV43@@Z 0000000180000000     ConvexHullUtils.obj
 0004:fffc6000       $pdata$3$?growAndPushBack@?$Array@VPxVec3@physx@@VNamedAllocator@shdfnd@2@@shdfnd@physx@@IEAAAEAVPxVec3@3@AEBV43@@Z 0000000180000000     ConvexHullUtils.obj
 0002:fffd1000       $unwind$?recreate@?$Array@VPxVec3@physx@@VNamedAllocator@shdfnd@2@@shdfnd@physx@@IEAAXI@Z 0000000180000000     ConvexHullUtils.obj
 0004:fffc6000       $pdata$?recreate@?$Array@VPxVec3@physx@@VNamedAllocator@shdfnd@2@@shdfnd@physx@@IEAAXI@Z 0000000180000000     ConvexHullUtils.obj
 0002:fffd1000       $chain$0$?recreate@?$Array@VPxVec3@physx@@VNamedAllocator@shdfnd@2@@shdfnd@physx@@IEAAXI@Z 0000000180000000     ConvexHullUtils.obj
 0004:fffc6000       $pdata$0$?recreate@?$Array@VPxVec3@physx@@VNamedAllocator@shdfnd@2@@shdfnd@physx@@IEAAXI@Z 0000000180000000     ConvexHullUtils.obj
 0002:fffd1000       $chain$1$?recreate@?$Array@VPxVec3@physx@@VNamedAllocator@shdfnd@2@@shdfnd@physx@@IEAAXI@Z 0000000180000000     ConvexHullUtils.obj
 0004:fffc6000       $pdata$1$?recreate@?$Array@VPxVec3@physx@@VNamedAllocator@shdfnd@2@@shdfnd@physx@@IEAAXI@Z 0000000180000000     ConvexHullUtils.obj
 0004:fffc6000       $pdata$?recreate@?$Array@IVNamedAllocator@shdfnd@physx@@@shdfnd@physx@@IEAAXI@Z 0000000180000000     ConvexPolygonsBuilder.obj
 0002:fffd1000       $unwind$?recreate@?$Array@IVNamedAllocator@shdfnd@physx@@@shdfnd@physx@@IEAAXI@Z 0000000180000000     ConvexPolygonsBuilder.obj
 0004:fffc6000       $pdata$?growAndPushBack@?$Array@IVNamedAllocator@shdfnd@physx@@@shdfnd@physx@@IEAAAEAIAEBI@Z 0000000180000000     ConvexPolygonsBuilder.obj
 0002:fffd1000       $unwind$?growAndPushBack@?$Array@IVNamedAllocator@shdfnd@physx@@@shdfnd@physx@@IEAAAEAIAEBI@Z 0000000180000000     ConvexPolygonsBuilder.obj
 0004:fffc6000       $pdata$?isKindOf@PxConvexMesh@physx@@MEBA_NPEBD@Z 0000000180000000     ConvexPolygonsBuilder.obj
 0002:fffd1000       $unwind$?isKindOf@PxConvexMesh@physx@@MEBA_NPEBD@Z 0000000180000000     ConvexPolygonsBuilder.obj
 0002:fffd1000       $unwind$??_I@YAXPEAX_K1P6AX0@Z@Z 0000000180000000     ConvexMeshBuilder.obj
 0004:fffc6000       $pdata$??_I@YAXPEAX_K1P6AX0@Z@Z 0000000180000000     ConvexMeshBuilder.obj
 0002:fffd1000       $unwind$??_GPxBase@physx@@MEAAPEAXI@Z 0000000180000000     ConvexMeshBuilder.obj
 0004:fffc6000       $pdata$??_GPxBase@physx@@MEAAPEAXI@Z 0000000180000000     ConvexMeshBuilder.obj
 0002:fffd1000       $unwind$?isKindOf@PxConvexMesh@physx@@MEBA_NPEBD@Z 0000000180000000     ConvexMeshBuilder.obj
 0004:fffc6000       $pdata$?isKindOf@PxConvexMesh@physx@@MEBA_NPEBD@Z 0000000180000000     ConvexMeshBuilder.obj
 0002:fffd1000       $unwind$??_EPxConvexMesh@physx@@MEAAPEAXI@Z 0000000180000000     ConvexMeshBuilder.obj
 0004:fffc6000       $pdata$??_EPxConvexMesh@physx@@MEAAPEAXI@Z 0000000180000000     ConvexMeshBuilder.obj
 0002:fffd1000       $chain$0$??_EPxConvexMesh@physx@@MEAAPEAXI@Z 0000000180000000     ConvexMeshBuilder.obj
 0004:fffc6000       $pdata$0$??_EPxConvexMesh@physx@@MEAAPEAXI@Z 0000000180000000     ConvexMeshBuilder.obj
 0002:fffd1000       $chain$1$??_EPxConvexMesh@physx@@MEAAPEAXI@Z 0000000180000000     ConvexMeshBuilder.obj
 0004:fffc6000       $pdata$1$??_EPxConvexMesh@physx@@MEAAPEAXI@Z 0000000180000000     ConvexMeshBuilder.obj
 0002:fffd1000       $unwind$??_GPxFoundation@physx@@MEAAPEAXI@Z 0000000180000000     ConvexMeshBuilder.obj
 0004:fffc6000       $pdata$??_GPxFoundation@physx@@MEAAPEAXI@Z 0000000180000000     ConvexMeshBuilder.obj
 0002:fffd1000       $unwind$??_EPxFoundation@physx@@MEAAPEAXI@Z 0000000180000000     ConvexMeshBuilder.obj
 0004:fffc6000       $pdata$??_EPxFoundation@physx@@MEAAPEAXI@Z 0000000180000000     ConvexMeshBuilder.obj
 0002:fffd1000       $chain$0$??_EPxFoundation@physx@@MEAAPEAXI@Z 0000000180000000     ConvexMeshBuilder.obj
 0004:fffc6000       $pdata$0$??_EPxFoundation@physx@@MEAAPEAXI@Z 0000000180000000     ConvexMeshBuilder.obj
 0002:fffd1000       $chain$1$??_EPxFoundation@physx@@MEAAPEAXI@Z 0000000180000000     ConvexMeshBuilder.obj
 0004:fffc6000       $pdata$1$??_EPxFoundation@physx@@MEAAPEAXI@Z 0000000180000000     ConvexMeshBuilder.obj
 0002:fffd1000       $unwind$??_GRefCountable@Cm@physx@@UEAAPEAXI@Z 0000000180000000     ConvexMeshBuilder.obj
 0004:fffc6000       $pdata$??_GRefCountable@Cm@physx@@UEAAPEAXI@Z 0000000180000000     ConvexMeshBuilder.obj
 0002:fffd1000       $unwind$?recreate@?$Array@UPxDebugLine@physx@@VNamedAllocator@shdfnd@2@@shdfnd@physx@@IEAAXI@Z 0000000180000000     ConvexMeshBuilder.obj
 0004:fffc6000       $pdata$?recreate@?$Array@UPxDebugLine@physx@@VNamedAllocator@shdfnd@2@@shdfnd@physx@@IEAAXI@Z 0000000180000000     ConvexMeshBuilder.obj
 0002:fffd1000       $chain$0$?recreate@?$Array@UPxDebugLine@physx@@VNamedAllocator@shdfnd@2@@shdfnd@physx@@IEAAXI@Z 0000000180000000     ConvexMeshBuilder.obj
 0004:fffc6000       $pdata$0$?recreate@?$Array@UPxDebugLine@physx@@VNamedAllocator@shdfnd@2@@shdfnd@physx@@IEAAXI@Z 0000000180000000     ConvexMeshBuilder.obj
 0002:fffd1000       $chain$1$?recreate@?$Array@UPxDebugLine@physx@@VNamedAllocator@shdfnd@2@@shdfnd@physx@@IEAAXI@Z 0000000180000000     ConvexMeshBuilder.obj
 0004:fffc6000       $pdata$1$?recreate@?$Array@UPxDebugLine@physx@@VNamedAllocator@shdfnd@2@@shdfnd@physx@@IEAAXI@Z 0000000180000000     ConvexMeshBuilder.obj
 0002:fffd1000       $unwind$?reserveSegments@RenderOutput@Cm@physx@@QEAAPEAUPxDebugLine@3@I@Z 0000000180000000     ConvexMeshBuilder.obj
 0004:fffc6000       $pdata$?reserveSegments@RenderOutput@Cm@physx@@QEAAPEAUPxDebugLine@3@I@Z 0000000180000000     ConvexMeshBuilder.obj
 0002:fffd1000       $unwind$?outputSegment@RenderOutput@Cm@physx@@QEAAXAEBVPxVec3@3@0@Z 0000000180000000     ConvexMeshBuilder.obj
 0004:fffc6000       $pdata$?outputSegment@RenderOutput@Cm@physx@@QEAAXAEBVPxVec3@3@0@Z 0000000180000000     ConvexMeshBuilder.obj
 0002:fffd1000       $unwind$??_EConvexMesh@Gu@physx@@UEAAPEAXI@Z 0000000180000000     ConvexMeshBuilder.obj
 0004:fffc6000       $pdata$??_EConvexMesh@Gu@physx@@UEAAPEAXI@Z 0000000180000000     ConvexMeshBuilder.obj
 0004:fffc6000       $pdata$1$??_EPxFoundation@physx@@MEAAPEAXI@Z 0000000180000000     VolumeIntegration.obj
 0002:fffd1000       $chain$1$??_EPxFoundation@physx@@MEAAPEAXI@Z 0000000180000000     VolumeIntegration.obj
 0004:fffc6000       $pdata$0$??_EPxFoundation@physx@@MEAAPEAXI@Z 0000000180000000     VolumeIntegration.obj
 0002:fffd1000       $chain$0$??_EPxFoundation@physx@@MEAAPEAXI@Z 0000000180000000     VolumeIntegration.obj
 0004:fffc6000       $pdata$??_EPxFoundation@physx@@MEAAPEAXI@Z 0000000180000000     VolumeIntegration.obj
 0002:fffd1000       $unwind$??_EPxFoundation@physx@@MEAAPEAXI@Z 0000000180000000     VolumeIntegration.obj
 0004:fffc6000       $pdata$??_GPxFoundation@physx@@MEAAPEAXI@Z 0000000180000000     VolumeIntegration.obj
 0002:fffd1000       $unwind$??_GPxFoundation@physx@@MEAAPEAXI@Z 0000000180000000     VolumeIntegration.obj
 0004:fffc6000       $pdata$?isKindOf@PxConvexMesh@physx@@MEBA_NPEBD@Z 0000000180000000     VolumeIntegration.obj
 0002:fffd1000       $unwind$?isKindOf@PxConvexMesh@physx@@MEBA_NPEBD@Z 0000000180000000     VolumeIntegration.obj
 0004:fffc6000       $pdata$??_GPxBase@physx@@MEAAPEAXI@Z 0000000180000000     VolumeIntegration.obj
 0002:fffd1000       $unwind$??_GPxBase@physx@@MEAAPEAXI@Z 0000000180000000     VolumeIntegration.obj
 0002:fffd1000       $chain$2$??_EConvexMesh@Gu@physx@@UEAAPEAXI@Z 0000000180000000     ConvexMeshBuilder.obj
 0004:fffc6000       $pdata$2$??_EConvexMesh@Gu@physx@@UEAAPEAXI@Z 0000000180000000     ConvexMeshBuilder.obj
 0002:fffd1000       $chain$3$??_EConvexMesh@Gu@physx@@UEAAPEAXI@Z 0000000180000000     ConvexMeshBuilder.obj
 0004:fffc6000       $pdata$3$??_EConvexMesh@Gu@physx@@UEAAPEAXI@Z 0000000180000000     ConvexMeshBuilder.obj
 0002:fffd1000       $chain$5$??_EConvexMesh@Gu@physx@@UEAAPEAXI@Z 0000000180000000     ConvexMeshBuilder.obj
 0004:fffc6000       $pdata$5$??_EConvexMesh@Gu@physx@@UEAAPEAXI@Z 0000000180000000     ConvexMeshBuilder.obj
 0004:fffc6000       $pdata$??_I@YAXPEAX_K1P6AX0@Z@Z 0000000180000000     VolumeIntegration.obj
 0002:fffd1000       $unwind$??_I@YAXPEAX_K1P6AX0@Z@Z 0000000180000000     VolumeIntegration.obj
 0002:fffd1000       $chain$6$??_EConvexMesh@Gu@physx@@UEAAPEAXI@Z 0000000180000000     ConvexMeshBuilder.obj
 0004:fffc6000       $pdata$6$??_EConvexMesh@Gu@physx@@UEAAPEAXI@Z 0000000180000000     ConvexMeshBuilder.obj
 0002:fffd1000       $unwind$??_I@YAXPEAX_K1P6AX0@Z@Z 0000000180000000     ConvexPolygonsBuilder.obj
 0004:fffc6000       $pdata$??_I@YAXPEAX_K1P6AX0@Z@Z 0000000180000000     ConvexPolygonsBuilder.obj
 0002:fffd1000       $unwind$??_GPxFoundation@physx@@MEAAPEAXI@Z 0000000180000000     ConvexPolygonsBuilder.obj
 0004:fffc6000       $pdata$??_GPxBase@physx@@MEAAPEAXI@Z 0000000180000000     ConvexPolygonsBuilder.obj
 0002:fffd1000       $unwind$??_GPxBase@physx@@MEAAPEAXI@Z 0000000180000000     ConvexPolygonsBuilder.obj
 0004:fffc6000       $pdata$1$??_EPxFoundation@physx@@MEAAPEAXI@Z 0000000180000000     ConvexPolygonsBuilder.obj
 0002:fffd1000       $chain$1$??_EPxFoundation@physx@@MEAAPEAXI@Z 0000000180000000     ConvexPolygonsBuilder.obj
 0004:fffc6000       $pdata$0$??_EPxFoundation@physx@@MEAAPEAXI@Z 0000000180000000     ConvexPolygonsBuilder.obj
 0002:fffd1000       $chain$0$??_EPxFoundation@physx@@MEAAPEAXI@Z 0000000180000000     ConvexPolygonsBuilder.obj
 0004:fffc6000       $pdata$??_GPxFoundation@physx@@MEAAPEAXI@Z 0000000180000000     ConvexPolygonsBuilder.obj
 0002:fffd1000       $unwind$??_EPxFoundation@physx@@MEAAPEAXI@Z 0000000180000000     ConvexPolygonsBuilder.obj
 0004:fffc6000       $pdata$??_EPxFoundation@physx@@MEAAPEAXI@Z 0000000180000000     ConvexPolygonsBuilder.obj
 0004:fffc6000       $pdata$1$??$?_UG@@YAPEAX_KV?$ReflectionAllocator@G@shdfnd@physx@@PEBDH@Z 0000000180000000     QuickHullConvexHullLib.obj
 0002:fffd1000       $chain$1$??$?_UG@@YAPEAX_KV?$ReflectionAllocator@G@shdfnd@physx@@PEBDH@Z 0000000180000000     QuickHullConvexHullLib.obj
 0004:fffc6000       $pdata$0$??$?_UG@@YAPEAX_KV?$ReflectionAllocator@G@shdfnd@physx@@PEBDH@Z 0000000180000000     QuickHullConvexHullLib.obj
 0002:fffd1000       $chain$0$??$?_UG@@YAPEAX_KV?$ReflectionAllocator@G@shdfnd@physx@@PEBDH@Z 0000000180000000     QuickHullConvexHullLib.obj
 0004:fffc6000       $pdata$??$?_UG@@YAPEAX_KV?$ReflectionAllocator@G@shdfnd@physx@@PEBDH@Z 0000000180000000     QuickHullConvexHullLib.obj
 0002:fffd1000       $unwind$??$?_UG@@YAPEAX_KV?$ReflectionAllocator@G@shdfnd@physx@@PEBDH@Z 0000000180000000     QuickHullConvexHullLib.obj
 0001:00000000       ??__EmaxFError@_VecMathTests@aos@shdfnd@physx@@YAXXZ 0000000180001000 f   Cooking.obj
 0001:00000020       ??__EmaxV3Error@_VecMathTests@aos@shdfnd@physx@@YAXXZ 0000000180001020 f   Cooking.obj
 0001:00000030       ??__EmaxV4Error@_VecMathTests@aos@shdfnd@physx@@YAXXZ 0000000180001030 f   Cooking.obj
 0001:00000050       ??__EminFError@_VecMathTests@aos@shdfnd@physx@@YAXXZ 0000000180001050 f   Cooking.obj
 0001:00000070       ??__EminV3Error@_VecMathTests@aos@shdfnd@physx@@YAXXZ 0000000180001070 f   Cooking.obj
 0001:00000080       ??__EminV4Error@_VecMathTests@aos@shdfnd@physx@@YAXXZ 0000000180001080 f   Cooking.obj
 0001:000000a0       ??__EmaxFError@_VecMathTests@aos@shdfnd@physx@@YAXXZ 00000001800010a0 f   BVHStructureBuilder.obj
 0001:000000c0       ??__EmaxV3Error@_VecMathTests@aos@shdfnd@physx@@YAXXZ 00000001800010c0 f   BVHStructureBuilder.obj
 0001:000000d0       ??__EmaxV4Error@_VecMathTests@aos@shdfnd@physx@@YAXXZ 00000001800010d0 f   BVHStructureBuilder.obj
 0001:000000f0       ??__EminFError@_VecMathTests@aos@shdfnd@physx@@YAXXZ 00000001800010f0 f   BVHStructureBuilder.obj
 0001:00000110       ??__EminV3Error@_VecMathTests@aos@shdfnd@physx@@YAXXZ 0000000180001110 f   BVHStructureBuilder.obj
 0001:00000120       ??__EminV4Error@_VecMathTests@aos@shdfnd@physx@@YAXXZ 0000000180001120 f   BVHStructureBuilder.obj
 0001:00000140       ??__EmaxFError@_VecMathTests@aos@shdfnd@physx@@YAXXZ 0000000180001140 f   RTreeCooking.obj
 0001:00000160       ??__EmaxV3Error@_VecMathTests@aos@shdfnd@physx@@YAXXZ 0000000180001160 f   RTreeCooking.obj
 0001:00000170       ??__EmaxV4Error@_VecMathTests@aos@shdfnd@physx@@YAXXZ 0000000180001170 f   RTreeCooking.obj
 0001:00000190       ??__EminFError@_VecMathTests@aos@shdfnd@physx@@YAXXZ 0000000180001190 f   RTreeCooking.obj
 0001:000001b0       ??__EminV3Error@_VecMathTests@aos@shdfnd@physx@@YAXXZ 00000001800011b0 f   RTreeCooking.obj
 0001:000001c0       ??__EminV4Error@_VecMathTests@aos@shdfnd@physx@@YAXXZ 00000001800011c0 f   RTreeCooking.obj
 0001:000001e0       ??__EmaxFError@_VecMathTests@aos@shdfnd@physx@@YAXXZ 00000001800011e0 f   MeshBuilder.obj
 0001:00000200       ??__EmaxV3Error@_VecMathTests@aos@shdfnd@physx@@YAXXZ 0000000180001200 f   MeshBuilder.obj
 0001:00000210       ??__EmaxV4Error@_VecMathTests@aos@shdfnd@physx@@YAXXZ 0000000180001210 f   MeshBuilder.obj
 0001:00000230       ??__EminFError@_VecMathTests@aos@shdfnd@physx@@YAXXZ 0000000180001230 f   MeshBuilder.obj
 0001:00000250       ??__EminV3Error@_VecMathTests@aos@shdfnd@physx@@YAXXZ 0000000180001250 f   MeshBuilder.obj
 0001:00000260       ??__EminV4Error@_VecMathTests@aos@shdfnd@physx@@YAXXZ 0000000180001260 f   MeshBuilder.obj
 0001:00000280       ??__EmaxFError@_VecMathTests@aos@shdfnd@physx@@YAXXZ 0000000180001280 f   TriangleMeshBuilder.obj
 0001:000002a0       ??__EmaxV3Error@_VecMathTests@aos@shdfnd@physx@@YAXXZ 00000001800012a0 f   TriangleMeshBuilder.obj
 0001:000002b0       ??__EmaxV4Error@_VecMathTests@aos@shdfnd@physx@@YAXXZ 00000001800012b0 f   TriangleMeshBuilder.obj
 0001:000002d0       ??__EminFError@_VecMathTests@aos@shdfnd@physx@@YAXXZ 00000001800012d0 f   TriangleMeshBuilder.obj
 0001:000002f0       ??__EminV3Error@_VecMathTests@aos@shdfnd@physx@@YAXXZ 00000001800012f0 f   TriangleMeshBuilder.obj
 0001:00000300       ??__EminV4Error@_VecMathTests@aos@shdfnd@physx@@YAXXZ 0000000180001300 f   TriangleMeshBuilder.obj
 0001:00000320       ??__EmaxFError@_VecMathTests@aos@shdfnd@physx@@YAXXZ 0000000180001320 f   BigConvexDataBuilder.obj
 0001:00000340       ??__EmaxV3Error@_VecMathTests@aos@shdfnd@physx@@YAXXZ 0000000180001340 f   BigConvexDataBuilder.obj
 0001:00000350       ??__EmaxV4Error@_VecMathTests@aos@shdfnd@physx@@YAXXZ 0000000180001350 f   BigConvexDataBuilder.obj
 0001:00000370       ??__EminFError@_VecMathTests@aos@shdfnd@physx@@YAXXZ 0000000180001370 f   BigConvexDataBuilder.obj
 0001:00000390       ??__EminV3Error@_VecMathTests@aos@shdfnd@physx@@YAXXZ 0000000180001390 f   BigConvexDataBuilder.obj
 0001:000003a0       ??__EminV4Error@_VecMathTests@aos@shdfnd@physx@@YAXXZ 00000001800013a0 f   BigConvexDataBuilder.obj
 0001:000003c0       ??__EmaxFError@_VecMathTests@aos@shdfnd@physx@@YAXXZ 00000001800013c0 f   ConvexHullBuilder.obj
 0001:000003e0       ??__EmaxV3Error@_VecMathTests@aos@shdfnd@physx@@YAXXZ 00000001800013e0 f   ConvexHullBuilder.obj
 0001:000003f0       ??__EmaxV4Error@_VecMathTests@aos@shdfnd@physx@@YAXXZ 00000001800013f0 f   ConvexHullBuilder.obj
 0001:00000410       ??__EminFError@_VecMathTests@aos@shdfnd@physx@@YAXXZ 0000000180001410 f   ConvexHullBuilder.obj
 0001:00000430       ??__EminV3Error@_VecMathTests@aos@shdfnd@physx@@YAXXZ 0000000180001430 f   ConvexHullBuilder.obj
 0001:00000440       ??__EminV4Error@_VecMathTests@aos@shdfnd@physx@@YAXXZ 0000000180001440 f   ConvexHullBuilder.obj
 0001:00000460       ??__EmaxFError@_VecMathTests@aos@shdfnd@physx@@YAXXZ 0000000180001460 f   ConvexHullUtils.obj
 0001:00000480       ??__EmaxV3Error@_VecMathTests@aos@shdfnd@physx@@YAXXZ 0000000180001480 f   ConvexHullUtils.obj
 0001:00000490       ??__EmaxV4Error@_VecMathTests@aos@shdfnd@physx@@YAXXZ 0000000180001490 f   ConvexHullUtils.obj
 0001:000004b0       ??__EminFError@_VecMathTests@aos@shdfnd@physx@@YAXXZ 00000001800014b0 f   ConvexHullUtils.obj
 0001:000004d0       ??__EminV3Error@_VecMathTests@aos@shdfnd@physx@@YAXXZ 00000001800014d0 f   ConvexHullUtils.obj
 0001:000004e0       ??__EminV4Error@_VecMathTests@aos@shdfnd@physx@@YAXXZ 00000001800014e0 f   ConvexHullUtils.obj
 0001:00000500       ??__EmaxFError@_VecMathTests@aos@shdfnd@physx@@YAXXZ 0000000180001500 f   ConvexMeshBuilder.obj
 0001:00000520       ??__EmaxV3Error@_VecMathTests@aos@shdfnd@physx@@YAXXZ 0000000180001520 f   ConvexMeshBuilder.obj
 0001:00000530       ??__EmaxV4Error@_VecMathTests@aos@shdfnd@physx@@YAXXZ 0000000180001530 f   ConvexMeshBuilder.obj
 0001:00000550       ??__EminFError@_VecMathTests@aos@shdfnd@physx@@YAXXZ 0000000180001550 f   ConvexMeshBuilder.obj
 0001:00000570       ??__EminV3Error@_VecMathTests@aos@shdfnd@physx@@YAXXZ 0000000180001570 f   ConvexMeshBuilder.obj
 0001:00000580       ??__EminV4Error@_VecMathTests@aos@shdfnd@physx@@YAXXZ 0000000180001580 f   ConvexMeshBuilder.obj
 0001:000005a0       ??__EmaxFError@_VecMathTests@aos@shdfnd@physx@@YAXXZ 00000001800015a0 f   VolumeIntegration.obj
 0001:000005c0       ??__EmaxV3Error@_VecMathTests@aos@shdfnd@physx@@YAXXZ 00000001800015c0 f   VolumeIntegration.obj
 0001:000005d0       ??__EmaxV4Error@_VecMathTests@aos@shdfnd@physx@@YAXXZ 00000001800015d0 f   VolumeIntegration.obj
 0001:000005f0       ??__EminFError@_VecMathTests@aos@shdfnd@physx@@YAXXZ 00000001800015f0 f   VolumeIntegration.obj
 0001:00000610       ??__EminV3Error@_VecMathTests@aos@shdfnd@physx@@YAXXZ 0000000180001610 f   VolumeIntegration.obj
 0001:00000620       ??__EminV4Error@_VecMathTests@aos@shdfnd@physx@@YAXXZ 0000000180001620 f   VolumeIntegration.obj
 0001:00001500       ?CreateDatabase@@YA_NPEAVAdjTriangle@physx@@IPEBVAdjEdge@@AEBUADJACENCIESCREATE@2@@Z 0000000180002500 f   Adjacencies.obj
 0001:000017a0       ?UpdateLink@@YA_NIIIIPEAVAdjTriangle@physx@@AEBUADJACENCIESCREATE@2@@Z 00000001800027a0 f   Adjacencies.obj
 0001:000065d0       ?OppositeVertex@@YAIIIIII@Z 00000001800075d0 f   EdgeList.obj
 0001:0000a770       ?buildFromBounds@physx@@YAXAEAURTree@Gu@1@PEBUPxBounds3V@1@IAEAV?$Array@IVNamedAllocator@shdfnd@physx@@@shdfnd@1@PEAURemapCallback@RTreeCooker@1@AEAT__m128@@4MW4Enum@PxMeshCookingHint@1@@Z 000000018000b770 f   RTreeCooking.obj
 0001:00011c10       ?buildAdjacencies@physx@@YAXPEAUuint4@1@PEAVPxVec3@1@PEBV31@PEBUuint3@1@I@Z 0000000180012c10 f   TriangleMeshBuilder.obj
 0001:00012090       ?findAdjacent@physx@@YAIPEBVPxVec3@1@0PEBUuint3@1@IIIAEBVPxPlane@1@PEAUEdgeTriLookup@1@I@Z 0000000180013090 f   TriangleMeshBuilder.obj
 0001:000167e0       ?checkPointsAABBValidity@local@@YA_NIPEBVPxVec3@physx@@IMMAEAV23@1AEAIPEAV23@_N@Z 00000001800177e0 f   ConvexHullLib.obj
 0001:0001cbf0       ?ComputeInternalExtent@@YAXAEAUConvexHullData@Gu@physx@@PEBUHullPolygonData@23@@Z 000000018001dbf0 f   ConvexMeshBuilder.obj
 0001:0001e9e0       ?CheckFloodFillFace@Local@?7??extractHullPolygons@@YA_NAEAIAEAV?$Array@IVNamedAllocator@shdfnd@physx@@@shdfnd@physx@@AEBVConvexPolygonsBuilder@5@PEAV345@1@Z@SA_NIPEBVAdjTriangle@5@PEBI@Z 000000018001f9e0 f   ConvexPolygonsBuilder.obj
 0001:0001eff0       ?FloodFill@Local@?7??extractHullPolygons@@YA_NAEAIAEAV?$Array@IVNamedAllocator@shdfnd@physx@@@shdfnd@physx@@AEBVConvexPolygonsBuilder@5@PEAV345@1@Z@SAX1PEBVAdjTriangle@5@IPEA_N@Z 000000018001fff0 f   ConvexPolygonsBuilder.obj
 0001:0001f0d0       ?TestDuplicateTriangles@@YA_NAEAIPEAU?$TriangleT@I@Gu@physx@@_N@Z 00000001800200d0 f   ConvexPolygonsBuilder.obj
 0001:0001f200       ?TestUnifiedNormals@@YA_NIPEBVPxVec3@physx@@IPEAU?$TriangleT@I@Gu@2@_N@Z 0000000180020200 f   ConvexPolygonsBuilder.obj
 0001:0001f750       ?checkRedundantVertices@@YAXAEAIAEAV?$Array@IVNamedAllocator@shdfnd@physx@@@shdfnd@physx@@AEBVConvexPolygonsBuilder@3@11@Z 0000000180020750 f   ConvexPolygonsBuilder.obj
 0001:0001fef0       ?extractHullPolygons@@YA_NAEAIAEAV?$Array@IVNamedAllocator@shdfnd@physx@@@shdfnd@physx@@AEBVConvexPolygonsBuilder@3@PEAV123@1@Z 0000000180020ef0 f   ConvexPolygonsBuilder.obj
 0001:00020990       ?findLineStrip@@YA_NAEAV?$Array@IVNamedAllocator@shdfnd@physx@@@shdfnd@physx@@AEBV?$Array@VPair@@VNamedAllocator@shdfnd@physx@@@23@@Z 0000000180021990 f   ConvexPolygonsBuilder.obj
 0001:00028c10       ?computeFaceIntegrals@VolumeIntegrator@?A0x3236b418@physx@@AEAAXAEBUFace@123@@Z 0000000180029c10 f   VolumeIntegration.obj
 0001:00029000       ?computeProjectionIntegrals@VolumeIntegrator@?A0x3236b418@physx@@AEAAXAEBUFace@123@@Z 000000018002a000 f   VolumeIntegration.obj
 0001:00029550       ?computeVolumeIntegrals@VolumeIntegrator@?A0x3236b418@physx@@QEAA_NAEAUPxIntegrals@3@@Z 000000018002a550 f   VolumeIntegration.obj
 0001:00029e20       ?computeVolumeIntegrals@VolumeIntegratorEberly@?A0x3236b418@physx@@QEAA_NAEAUPxIntegrals@3@AEBVPxVec3@3@@Z 000000018002ae20 f   VolumeIntegration.obj
 0001:0002a930       ?computeVolumeIntegralsSIMD@VolumeIntegratorEberly@?A0x3236b418@physx@@QEAA_NAEAUPxIntegrals@3@AEBVPxVec3@3@@Z 000000018002b930 f   VolumeIntegration.obj
 0001:0002b120       $LN24                      000000018002c120     WindowsCookingDelayLoadHook.obj
 0001:0002bb54       ?FLoadedAtPreferredAddress@@YA_NPEAU_IMAGE_NT_HEADERS64@@PEAUHINSTANCE__@@@Z 000000018002cb54 f   Delayimp:delayhlp.obj
 0001:0002bb68       ?OverlayIAT@@YAXPEAU_IMAGE_THUNK_DATA64@@PEBU1@@Z 000000018002cb68 f   Delayimp:delayhlp.obj
 0001:0002bba0       ?PiddFromDllName@@YAPEBUImgDelayDescr@@PEBD@Z 000000018002cba0 f   Delayimp:delayhlp.obj
 0001:0002bc40       ?PinhFromImageBase@@YAPEAU_IMAGE_NT_HEADERS64@@PEAUHINSTANCE__@@@Z 000000018002cc40 f   Delayimp:delayhlp.obj
 0001:0002bc48       ?TimeStampOfImage@@YAKPEAU_IMAGE_NT_HEADERS64@@@Z 000000018002cc48 f   Delayimp:delayhlp.obj
 0001:0002bc4c       ?__memcmp@@YAHPEBX0_K@Z    000000018002cc4c f   Delayimp:delayhlp.obj
 0001:0002bc70       ?__memcpy@@YAPEAXPEAXPEBX_K@Z 000000018002cc70 f   Delayimp:delayhlp.obj
 0001:0002bc90       ?__strlen@@YA_KPEBD@Z      000000018002cc90 f   Delayimp:delayhlp.obj
 0001:0002c120       $$000000                   000000018002d120     MSVCRT:chkstk.obj
 0001:0002c1a0       $$000000                   000000018002d1a0     MSVCRT:svml_ssinf4_dispatch.obj
 0001:0002c208       ?dllmain_crt_dispatch@@YAHQEAUHINSTANCE__@@KQEAX@Z 000000018002d208 f   MSVCRT:dll_dllmain.obj
 0001:0002c258       ?dllmain_crt_process_attach@@YAHQEAUHINSTANCE__@@QEAX@Z 000000018002d258 f   MSVCRT:dll_dllmain.obj
 0001:0002c374       ?dllmain_crt_process_detach@@YAH_N@Z 000000018002d374 f   MSVCRT:dll_dllmain.obj
 0001:0002c404       ?dllmain_dispatch@@YAHQEAUHINSTANCE__@@KQEAX@Z 000000018002d404 f   MSVCRT:dll_dllmain.obj
 0001:0002c538       ?dllmain_raw@@YAHQEAUHINSTANCE__@@KQEAX@Z 000000018002d538 f   MSVCRT:dll_dllmain.obj
 0001:0002c5d0       $$000000                   000000018002d5d0     MSVCRT:svml_ssinf4_sse2.obj
 0001:0002ce90       __get_entropy              000000018002de90 f   MSVCRT:gs_support.obj
 0001:0002d050       ?find_pe_section@@YAPEAU_IMAGE_SECTION_HEADER@@QEAE_K@Z 000000018002e050 f   MSVCRT:utility.obj
 0001:0002d0a4       ?is_potentially_valid_image_base@@YA_NQEAX@Z 000000018002e0a4 f   MSVCRT:utility.obj
 0001:0002dad0       $$000000                   000000018002ead0     MSVCRT:guard_dispatch.obj
 0001:0002dae2       ?fin$0@?0??dllmain_crt_process_attach@@YAHQEAUHINSTANCE__@@QEAX@Z@4HA 000000018002eae2 f   MSVCRT:dll_dllmain.obj
 0001:0002daf9       ?fin$0@?0??dllmain_crt_process_detach@@YAH_N@Z@4HA 000000018002eaf9 f   MSVCRT:dll_dllmain.obj
 0001:0002db15       ?filt$0@?0??dllmain_dispatch@@YAHQEAUHINSTANCE__@@KQEAX@Z@4HA 000000018002eb15 f   MSVCRT:dll_dllmain.obj
 0001:0002db4b       __scrt_is_nonwritable_in_current_image$filt$0 000000018002eb4b f   MSVCRT:utility.obj
 0002:000001d0       ?minFError$initializer$@_VecMathTests@aos@shdfnd@physx@@3P6AXXZEA 000000018002f1d0     Cooking.obj
 0002:000001d8       ?maxFError$initializer$@_VecMathTests@aos@shdfnd@physx@@3P6AXXZEA 000000018002f1d8     Cooking.obj
 0002:000001e0       ?minV3Error$initializer$@_VecMathTests@aos@shdfnd@physx@@3P6AXXZEA 000000018002f1e0     Cooking.obj
 0002:000001e8       ?maxV3Error$initializer$@_VecMathTests@aos@shdfnd@physx@@3P6AXXZEA 000000018002f1e8     Cooking.obj
 0002:000001f0       ?minV4Error$initializer$@_VecMathTests@aos@shdfnd@physx@@3P6AXXZEA 000000018002f1f0     Cooking.obj
 0002:000001f8       ?maxV4Error$initializer$@_VecMathTests@aos@shdfnd@physx@@3P6AXXZEA 000000018002f1f8     Cooking.obj
 0002:00000200       ?minFError$initializer$@_VecMathTests@aos@shdfnd@physx@@3P6AXXZEA 000000018002f200     BVHStructureBuilder.obj
 0002:00000208       ?maxFError$initializer$@_VecMathTests@aos@shdfnd@physx@@3P6AXXZEA 000000018002f208     BVHStructureBuilder.obj
 0002:00000210       ?minV3Error$initializer$@_VecMathTests@aos@shdfnd@physx@@3P6AXXZEA 000000018002f210     BVHStructureBuilder.obj
 0002:00000218       ?maxV3Error$initializer$@_VecMathTests@aos@shdfnd@physx@@3P6AXXZEA 000000018002f218     BVHStructureBuilder.obj
 0002:00000220       ?minV4Error$initializer$@_VecMathTests@aos@shdfnd@physx@@3P6AXXZEA 000000018002f220     BVHStructureBuilder.obj
 0002:00000228       ?maxV4Error$initializer$@_VecMathTests@aos@shdfnd@physx@@3P6AXXZEA 000000018002f228     BVHStructureBuilder.obj
 0002:00000230       ?minFError$initializer$@_VecMathTests@aos@shdfnd@physx@@3P6AXXZEA 000000018002f230     RTreeCooking.obj
 0002:00000238       ?maxFError$initializer$@_VecMathTests@aos@shdfnd@physx@@3P6AXXZEA 000000018002f238     RTreeCooking.obj
 0002:00000240       ?minV3Error$initializer$@_VecMathTests@aos@shdfnd@physx@@3P6AXXZEA 000000018002f240     RTreeCooking.obj
 0002:00000248       ?maxV3Error$initializer$@_VecMathTests@aos@shdfnd@physx@@3P6AXXZEA 000000018002f248     RTreeCooking.obj
 0002:00000250       ?minV4Error$initializer$@_VecMathTests@aos@shdfnd@physx@@3P6AXXZEA 000000018002f250     RTreeCooking.obj
 0002:00000258       ?maxV4Error$initializer$@_VecMathTests@aos@shdfnd@physx@@3P6AXXZEA 000000018002f258     RTreeCooking.obj
 0002:00000260       ?minFError$initializer$@_VecMathTests@aos@shdfnd@physx@@3P6AXXZEA 000000018002f260     MeshBuilder.obj
 0002:00000268       ?maxFError$initializer$@_VecMathTests@aos@shdfnd@physx@@3P6AXXZEA 000000018002f268     MeshBuilder.obj
 0002:00000270       ?minV3Error$initializer$@_VecMathTests@aos@shdfnd@physx@@3P6AXXZEA 000000018002f270     MeshBuilder.obj
 0002:00000278       ?maxV3Error$initializer$@_VecMathTests@aos@shdfnd@physx@@3P6AXXZEA 000000018002f278     MeshBuilder.obj
 0002:00000280       ?minV4Error$initializer$@_VecMathTests@aos@shdfnd@physx@@3P6AXXZEA 000000018002f280     MeshBuilder.obj
 0002:00000288       ?maxV4Error$initializer$@_VecMathTests@aos@shdfnd@physx@@3P6AXXZEA 000000018002f288     MeshBuilder.obj
 0002:00000290       ?minFError$initializer$@_VecMathTests@aos@shdfnd@physx@@3P6AXXZEA 000000018002f290     TriangleMeshBuilder.obj
 0002:00000298       ?maxFError$initializer$@_VecMathTests@aos@shdfnd@physx@@3P6AXXZEA 000000018002f298     TriangleMeshBuilder.obj
 0002:000002a0       ?minV3Error$initializer$@_VecMathTests@aos@shdfnd@physx@@3P6AXXZEA 000000018002f2a0     TriangleMeshBuilder.obj
 0002:000002a8       ?maxV3Error$initializer$@_VecMathTests@aos@shdfnd@physx@@3P6AXXZEA 000000018002f2a8     TriangleMeshBuilder.obj
 0002:000002b0       ?minV4Error$initializer$@_VecMathTests@aos@shdfnd@physx@@3P6AXXZEA 000000018002f2b0     TriangleMeshBuilder.obj
 0002:000002b8       ?maxV4Error$initializer$@_VecMathTests@aos@shdfnd@physx@@3P6AXXZEA 000000018002f2b8     TriangleMeshBuilder.obj
 0002:000002c0       ?minFError$initializer$@_VecMathTests@aos@shdfnd@physx@@3P6AXXZEA 000000018002f2c0     BigConvexDataBuilder.obj
 0002:000002c8       ?maxFError$initializer$@_VecMathTests@aos@shdfnd@physx@@3P6AXXZEA 000000018002f2c8     BigConvexDataBuilder.obj
 0002:000002d0       ?minV3Error$initializer$@_VecMathTests@aos@shdfnd@physx@@3P6AXXZEA 000000018002f2d0     BigConvexDataBuilder.obj
 0002:000002d8       ?maxV3Error$initializer$@_VecMathTests@aos@shdfnd@physx@@3P6AXXZEA 000000018002f2d8     BigConvexDataBuilder.obj
 0002:000002e0       ?minV4Error$initializer$@_VecMathTests@aos@shdfnd@physx@@3P6AXXZEA 000000018002f2e0     BigConvexDataBuilder.obj
 0002:000002e8       ?maxV4Error$initializer$@_VecMathTests@aos@shdfnd@physx@@3P6AXXZEA 000000018002f2e8     BigConvexDataBuilder.obj
 0002:000002f0       ?minFError$initializer$@_VecMathTests@aos@shdfnd@physx@@3P6AXXZEA 000000018002f2f0     ConvexHullBuilder.obj
 0002:000002f8       ?maxFError$initializer$@_VecMathTests@aos@shdfnd@physx@@3P6AXXZEA 000000018002f2f8     ConvexHullBuilder.obj
 0002:00000300       ?minV3Error$initializer$@_VecMathTests@aos@shdfnd@physx@@3P6AXXZEA 000000018002f300     ConvexHullBuilder.obj
 0002:00000308       ?maxV3Error$initializer$@_VecMathTests@aos@shdfnd@physx@@3P6AXXZEA 000000018002f308     ConvexHullBuilder.obj
 0002:00000310       ?minV4Error$initializer$@_VecMathTests@aos@shdfnd@physx@@3P6AXXZEA 000000018002f310     ConvexHullBuilder.obj
 0002:00000318       ?maxV4Error$initializer$@_VecMathTests@aos@shdfnd@physx@@3P6AXXZEA 000000018002f318     ConvexHullBuilder.obj
 0002:00000320       ?minFError$initializer$@_VecMathTests@aos@shdfnd@physx@@3P6AXXZEA 000000018002f320     ConvexHullUtils.obj
 0002:00000328       ?maxFError$initializer$@_VecMathTests@aos@shdfnd@physx@@3P6AXXZEA 000000018002f328     ConvexHullUtils.obj
 0002:00000330       ?minV3Error$initializer$@_VecMathTests@aos@shdfnd@physx@@3P6AXXZEA 000000018002f330     ConvexHullUtils.obj
 0002:00000338       ?maxV3Error$initializer$@_VecMathTests@aos@shdfnd@physx@@3P6AXXZEA 000000018002f338     ConvexHullUtils.obj
 0002:00000340       ?minV4Error$initializer$@_VecMathTests@aos@shdfnd@physx@@3P6AXXZEA 000000018002f340     ConvexHullUtils.obj
 0002:00000348       ?maxV4Error$initializer$@_VecMathTests@aos@shdfnd@physx@@3P6AXXZEA 000000018002f348     ConvexHullUtils.obj
 0002:00000350       ?minFError$initializer$@_VecMathTests@aos@shdfnd@physx@@3P6AXXZEA 000000018002f350     ConvexMeshBuilder.obj
 0002:00000358       ?maxFError$initializer$@_VecMathTests@aos@shdfnd@physx@@3P6AXXZEA 000000018002f358     ConvexMeshBuilder.obj
 0002:00000360       ?minV3Error$initializer$@_VecMathTests@aos@shdfnd@physx@@3P6AXXZEA 000000018002f360     ConvexMeshBuilder.obj
 0002:00000368       ?maxV3Error$initializer$@_VecMathTests@aos@shdfnd@physx@@3P6AXXZEA 000000018002f368     ConvexMeshBuilder.obj
 0002:00000370       ?minV4Error$initializer$@_VecMathTests@aos@shdfnd@physx@@3P6AXXZEA 000000018002f370     ConvexMeshBuilder.obj
 0002:00000378       ?maxV4Error$initializer$@_VecMathTests@aos@shdfnd@physx@@3P6AXXZEA 000000018002f378     ConvexMeshBuilder.obj
 0002:00000380       ?minFError$initializer$@_VecMathTests@aos@shdfnd@physx@@3P6AXXZEA 000000018002f380     VolumeIntegration.obj
 0002:00000388       ?maxFError$initializer$@_VecMathTests@aos@shdfnd@physx@@3P6AXXZEA 000000018002f388     VolumeIntegration.obj
 0002:00000390       ?minV3Error$initializer$@_VecMathTests@aos@shdfnd@physx@@3P6AXXZEA 000000018002f390     VolumeIntegration.obj
 0002:00000398       ?maxV3Error$initializer$@_VecMathTests@aos@shdfnd@physx@@3P6AXXZEA 000000018002f398     VolumeIntegration.obj
 0002:000003a0       ?minV4Error$initializer$@_VecMathTests@aos@shdfnd@physx@@3P6AXXZEA 000000018002f3a0     VolumeIntegration.obj
 0002:000003a8       ?maxV4Error$initializer$@_VecMathTests@aos@shdfnd@physx@@3P6AXXZEA 000000018002f3a8     VolumeIntegration.obj
 0002:00000710       ?minus1w@?A0xe13a91c2@aos@shdfnd@physx@@3QBMB 000000018002f710     Cooking.obj
 0002:00000720       ?gMaskXYZ@internalWindowsSimd@aos@shdfnd@physx@@3QBIB 000000018002f720     Cooking.obj
 0002:00001110       ?minus1w@?A0xc660cad2@aos@shdfnd@physx@@3QBMB 0000000180030110     BVHStructureBuilder.obj
 0002:00001120       ?gMaskXYZ@internalWindowsSimd@aos@shdfnd@physx@@3QBIB 0000000180030120     BVHStructureBuilder.obj
 0002:00001200       ?minus1w@?A0xa16395af@aos@shdfnd@physx@@3QBMB 0000000180030200     RTreeCooking.obj
 0002:00001210       ?gMaskXYZ@internalWindowsSimd@aos@shdfnd@physx@@3QBIB 0000000180030210     RTreeCooking.obj
 0002:00001220       ?stopAtTrisPerPage@physx@@3QBIB 0000000180030220     RTreeCooking.obj
 0002:00001260       ?stopAtTrisPerLeaf@physx@@3QBIB 0000000180030260     RTreeCooking.obj
 0002:00001450       ?minus1w@?A0xe3558ada@aos@shdfnd@physx@@3QBMB 0000000180030450     MeshBuilder.obj
 0002:00001460       ?gMaskXYZ@internalWindowsSimd@aos@shdfnd@physx@@3QBIB 0000000180030460     MeshBuilder.obj
 0002:00001480       ?minus1w@?A0x572f29e0@aos@shdfnd@physx@@3QBMB 0000000180030480     TriangleMeshBuilder.obj
 0002:00001490       ?gMaskXYZ@internalWindowsSimd@aos@shdfnd@physx@@3QBIB 0000000180030490     TriangleMeshBuilder.obj
 0002:00001910       ?minus1w@?A0x5e054fcf@aos@shdfnd@physx@@3QBMB 0000000180030910     BigConvexDataBuilder.obj
 0002:00001920       ?gMaskXYZ@internalWindowsSimd@aos@shdfnd@physx@@3QBIB 0000000180030920     BigConvexDataBuilder.obj
 0002:000019c0       ?minus1w@?A0xb3d8a73c@aos@shdfnd@physx@@3QBMB 00000001800309c0     ConvexHullBuilder.obj
 0002:000019d0       ?gMaskXYZ@internalWindowsSimd@aos@shdfnd@physx@@3QBIB 00000001800309d0     ConvexHullBuilder.obj
 0002:00001e00       ?minus1w@?A0x8a963e45@aos@shdfnd@physx@@3QBMB 0000000180030e00     ConvexHullUtils.obj
 0002:00001e10       ?gMaskXYZ@internalWindowsSimd@aos@shdfnd@physx@@3QBIB 0000000180030e10     ConvexHullUtils.obj
 0002:00001eb0       ?minus1w@?A0x7d7c0769@aos@shdfnd@physx@@3QBMB 0000000180030eb0     ConvexMeshBuilder.obj
 0002:00001ec0       ?gMaskXYZ@internalWindowsSimd@aos@shdfnd@physx@@3QBIB 0000000180030ec0     ConvexMeshBuilder.obj
 0002:000024a0       ?minus1w@?A0x3236b418@aos@shdfnd@physx@@3QBMB 00000001800314a0     VolumeIntegration.obj
 0002:000024b0       ?gMaskXYZ@internalWindowsSimd@aos@shdfnd@physx@@3QBIB 00000001800314b0     VolumeIntegration.obj
 0002:00002660       L_abs_mask                 0000000180031660     MSVCRT:svml_ssinf4_dispatch.obj
 0002:00002670       L_real_one                 0000000180031670     MSVCRT:svml_ssinf4_dispatch.obj
 0002:00002680       L_one_half                 0000000180031680     MSVCRT:svml_ssinf4_dispatch.obj
 0002:00002690       L_two_to_neg_13            0000000180031690     MSVCRT:svml_ssinf4_dispatch.obj
 0002:000026a0       L_pi_over_two              00000001800316a0     MSVCRT:svml_ssinf4_dispatch.obj
 0002:000026b0       L_pi_over_two2             00000001800316b0     MSVCRT:svml_ssinf4_dispatch.obj
 0002:00002c68       $unwind$??_H@YAXPEAX_K1P6APEAX0@Z@Z 0000000180031c68     Adjacencies.obj
 0002:00002c7c       $unwind$??_I@YAXPEAX_K1P6AX0@Z@Z 0000000180031c7c     Adjacencies.obj
 0002:00002c90       $unwind$??_GPxFoundation@physx@@MEAAPEAXI@Z 0000000180031c90     Adjacencies.obj
 0002:00002c98       $unwind$??_EPxFoundation@physx@@MEAAPEAXI@Z 0000000180031c98     Adjacencies.obj
 0002:00002ca0       $chain$0$??_EPxFoundation@physx@@MEAAPEAXI@Z 0000000180031ca0     Adjacencies.obj
 0002:00002cb4       $chain$1$??_EPxFoundation@physx@@MEAAPEAXI@Z 0000000180031cb4     Adjacencies.obj
 0002:00002cc4       $unwind$??_EAdjTriangle@physx@@QEAAPEAXI@Z 0000000180031cc4     Adjacencies.obj
 0002:00002ccc       $unwind$??1Adjacencies@physx@@QEAA@XZ 0000000180031ccc     Adjacencies.obj
 0002:00002cd4       $chain$0$??1Adjacencies@physx@@QEAA@XZ 0000000180031cd4     Adjacencies.obj
 0002:00002ce8       $chain$2$??1Adjacencies@physx@@QEAA@XZ 0000000180031ce8     Adjacencies.obj
 0002:00002cfc       $chain$3$??1Adjacencies@physx@@QEAA@XZ 0000000180031cfc     Adjacencies.obj
 0002:00002d0c       $unwind$?Load@Adjacencies@physx@@QEAA_NAEAVPxInputStream@2@@Z 0000000180031d0c     Adjacencies.obj
 0002:00002d1c       $unwind$?GetBoundaryVertices@Adjacencies@physx@@QEBA_NIPEA_NPEBU?$TriangleT@I@Gu@2@@Z 0000000180031d1c     Adjacencies.obj
 0002:00002d30       $unwind$?MakeLastRef@Adjacencies@physx@@QEAA_NAEAVAdjTriangle@2@IPEAU?$TriangleT@I@Gu@2@@Z 0000000180031d30     Adjacencies.obj
 0002:00002d38       $chain$1$?MakeLastRef@Adjacencies@physx@@QEAA_NAEAVAdjTriangle@2@IPEAU?$TriangleT@I@Gu@2@@Z 0000000180031d38     Adjacencies.obj
 0002:00002d50       $chain$3$?MakeLastRef@Adjacencies@physx@@QEAA_NAEAVAdjTriangle@2@IPEAU?$TriangleT@I@Gu@2@@Z 0000000180031d50     Adjacencies.obj
 0002:00002d68       $chain$5$?MakeLastRef@Adjacencies@physx@@QEAA_NAEAVAdjTriangle@2@IPEAU?$TriangleT@I@Gu@2@@Z 0000000180031d68     Adjacencies.obj
 0002:00002d80       $chain$7$?MakeLastRef@Adjacencies@physx@@QEAA_NAEAVAdjTriangle@2@IPEAU?$TriangleT@I@Gu@2@@Z 0000000180031d80     Adjacencies.obj
 0002:00002d98       $unwind$?Init@AdjacenciesBuilder@physx@@QEAA_NAEBUADJACENCIESCREATE@2@@Z 0000000180031d98     Adjacencies.obj
 0002:00002da4       $chain$3$?Init@AdjacenciesBuilder@physx@@QEAA_NAEBUADJACENCIESCREATE@2@@Z 0000000180031da4     Adjacencies.obj
 0002:00002dc4       $chain$4$?Init@AdjacenciesBuilder@physx@@QEAA_NAEBUADJACENCIESCREATE@2@@Z 0000000180031dc4     Adjacencies.obj
 0002:00002de0       $chain$5$?Init@AdjacenciesBuilder@physx@@QEAA_NAEBUADJACENCIESCREATE@2@@Z 0000000180031de0     Adjacencies.obj
 0002:00002df8       $unwind$??$?_UV?$ReflectionAllocator@VAdjTriangle@physx@@@shdfnd@physx@@@UserAllocated@shdfnd@physx@@SAPEAX_KV?$ReflectionAllocator@VAdjTriangle@physx@@@12@PEBDH@Z 0000000180031df8     Adjacencies.obj
 0002:00002e08       $chain$0$??$?_UV?$ReflectionAllocator@VAdjTriangle@physx@@@shdfnd@physx@@@UserAllocated@shdfnd@physx@@SAPEAX_KV?$ReflectionAllocator@VAdjTriangle@physx@@@12@PEBDH@Z 0000000180031e08     Adjacencies.obj
 0002:00002e1c       $chain$1$??$?_UV?$ReflectionAllocator@VAdjTriangle@physx@@@shdfnd@physx@@@UserAllocated@shdfnd@physx@@SAPEAX_KV?$ReflectionAllocator@VAdjTriangle@physx@@@12@PEBDH@Z 0000000180031e1c     Adjacencies.obj
 0002:00002e2c       $unwind$??_EAdjEdge@@QEAAPEAXI@Z 0000000180031e2c     Adjacencies.obj
 0002:00002e34       $unwind$?UpdateLink@@YA_NIIIIPEAVAdjTriangle@physx@@AEBUADJACENCIESCREATE@2@@Z 0000000180031e34     Adjacencies.obj
 0002:00002e40       $chain$3$?UpdateLink@@YA_NIIIIPEAVAdjTriangle@physx@@AEBUADJACENCIESCREATE@2@@Z 0000000180031e40     Adjacencies.obj
 0002:00002e60       $chain$5$?UpdateLink@@YA_NIIIIPEAVAdjTriangle@physx@@AEBUADJACENCIESCREATE@2@@Z 0000000180031e60     Adjacencies.obj
 0002:00002e78       $chain$6$?UpdateLink@@YA_NIIIIPEAVAdjTriangle@physx@@AEBUADJACENCIESCREATE@2@@Z 0000000180031e78     Adjacencies.obj
 0002:00002e88       $chain$7$?UpdateLink@@YA_NIIIIPEAVAdjTriangle@physx@@AEBUADJACENCIESCREATE@2@@Z 0000000180031e88     Adjacencies.obj
 0002:00002ea0       $chain$8$?UpdateLink@@YA_NIIIIPEAVAdjTriangle@physx@@AEBUADJACENCIESCREATE@2@@Z 0000000180031ea0     Adjacencies.obj
 0002:00002eb0       $unwind$?CreateDatabase@@YA_NPEAVAdjTriangle@physx@@IPEBVAdjEdge@@AEBUADJACENCIESCREATE@2@@Z 0000000180031eb0     Adjacencies.obj
 0002:00002ecc       $unwind$??_GPxBase@physx@@MEAAPEAXI@Z 0000000180031ecc     Cooking.obj
 0002:00002ed4       $unwind$?isKindOf@PxConvexMesh@physx@@MEBA_NPEBD@Z 0000000180031ed4     Cooking.obj
 0002:00002edc       $unwind$??_EPxConvexMesh@physx@@MEAAPEAXI@Z 0000000180031edc     Cooking.obj
 0002:00002ee4       $chain$0$??_EPxConvexMesh@physx@@MEAAPEAXI@Z 0000000180031ee4     Cooking.obj
 0002:00002ef8       $chain$1$??_EPxConvexMesh@physx@@MEAAPEAXI@Z 0000000180031ef8     Cooking.obj
 0002:00002f08       $unwind$??_GPxCooking@physx@@MEAAPEAXI@Z 0000000180031f08     Cooking.obj
 0002:00002f10       $unwind$PxCreateCooking    0000000180031f10     Cooking.obj
 0002:00002f1c       $unwind$?release@Cooking@physx@@UEAAXXZ 0000000180031f1c     Cooking.obj
 0002:00002f24       $unwind$?cookTriangleMesh@Cooking@physx@@UEBA_NAEBVPxTriangleMeshDesc@2@AEAVPxOutputStream@2@PEAW4Enum@PxTriangleMeshCookingResult@2@@Z 0000000180031f24     Cooking.obj
 0002:00002f40       $unwind$?createTriangleMesh@Cooking@physx@@UEBAPEAVPxTriangleMesh@2@AEBVPxTriangleMeshDesc@2@AEAVPxPhysicsInsertionCallback@2@PEAW4Enum@PxTriangleMeshCookingResult@2@@Z 0000000180031f40     Cooking.obj
 0002:00002f5c       $unwind$?validateTriangleMesh@Cooking@physx@@UEBA_NAEBVPxTriangleMeshDesc@2@@Z 0000000180031f5c     Cooking.obj
 0002:00002f6c       $unwind$?cookConvexMesh@Cooking@physx@@UEBA_NAEBVPxConvexMeshDesc@2@AEAVPxOutputStream@2@PEAW4Enum@PxConvexMeshCookingResult@2@@Z 0000000180031f6c     Cooking.obj
 0002:00002f88       $unwind$?createConvexMesh@Cooking@physx@@UEBAPEAVPxConvexMesh@2@AEBVPxConvexMeshDesc@2@AEAVPxPhysicsInsertionCallback@2@PEAW4Enum@PxConvexMeshCookingResult@2@@Z 0000000180031f88     Cooking.obj
 0002:00002fa4       $unwind$?validateConvexMesh@Cooking@physx@@UEBA_NAEBVPxConvexMeshDesc@2@@Z 0000000180031fa4     Cooking.obj
 0002:00002fb4       $unwind$?computeHullPolygons@Cooking@physx@@UEBA_NAEBVPxSimpleTriangleMesh@2@AEAVPxAllocatorCallback@2@AEAIAEAPEAVPxVec3@2@2AEAPEAI2AEAPEAUPxHullPolygon@2@@Z 0000000180031fb4     Cooking.obj
 0002:00002fd4       $unwind$?cookHeightField@Cooking@physx@@UEBA_NAEBVPxHeightFieldDesc@2@AEAVPxOutputStream@2@@Z 0000000180031fd4     Cooking.obj
 0002:00002fe8       $unwind$?createHeightField@Cooking@physx@@UEBAPEAVPxHeightField@2@AEBVPxHeightFieldDesc@2@AEAVPxPhysicsInsertionCallback@2@@Z 0000000180031fe8     Cooking.obj
 0002:00002ff8       $unwind$?cookBVHStructure@Cooking@physx@@UEBA_NAEBVPxBVHStructureDesc@2@AEAVPxOutputStream@2@@Z 0000000180031ff8     Cooking.obj
 0002:00003008       $unwind$?createBVHStructure@Cooking@physx@@UEBAPEAVPxBVHStructure@2@AEBVPxBVHStructureDesc@2@AEAVPxPhysicsInsertionCallback@2@@Z 0000000180032008     Cooking.obj
 0002:00003018       $unwind$?cookConvexMeshInternal@Cooking@physx@@AEBA_NAEBVPxConvexMeshDesc@2@AEAVConvexMeshBuilder@2@PEAVConvexHullLib@2@PEAW4Enum@PxConvexMeshCookingResult@2@@Z 0000000180032018     Cooking.obj
 0002:0000302c       $chain$1$?cookConvexMeshInternal@Cooking@physx@@AEBA_NAEBVPxConvexMeshDesc@2@AEAVConvexMeshBuilder@2@PEAVConvexHullLib@2@PEAW4Enum@PxConvexMeshCookingResult@2@@Z 000000018003202c     Cooking.obj
 0002:00003040       $chain$2$?cookConvexMeshInternal@Cooking@physx@@AEBA_NAEBVPxConvexMeshDesc@2@AEAVConvexMeshBuilder@2@PEAVConvexHullLib@2@PEAW4Enum@PxConvexMeshCookingResult@2@@Z 0000000180032040     Cooking.obj
 0002:00003050       $chain$3$?cookConvexMeshInternal@Cooking@physx@@AEBA_NAEBVPxConvexMeshDesc@2@AEAVConvexMeshBuilder@2@PEAVConvexHullLib@2@PEAW4Enum@PxConvexMeshCookingResult@2@@Z 0000000180032050     Cooking.obj
 0002:00003064       $chain$4$?cookConvexMeshInternal@Cooking@physx@@AEBA_NAEBVPxConvexMeshDesc@2@AEAVConvexMeshBuilder@2@PEAVConvexHullLib@2@PEAW4Enum@PxConvexMeshCookingResult@2@@Z 0000000180032064     Cooking.obj
 0002:00003074       $unwind$?cookTriangleMesh@Cooking@physx@@AEBA_NAEAVTriangleMeshBuilder@2@AEBVPxTriangleMeshDesc@2@AEAVPxOutputStream@2@PEAW4Enum@PxTriangleMeshCookingResult@2@@Z 0000000180032074     Cooking.obj
 0002:00003088       $unwind$?createTriangleMesh@Cooking@physx@@AEBAPEAVPxTriangleMesh@2@AEAVTriangleMeshBuilder@2@AEBVPxTriangleMeshDesc@2@AEAVPxPhysicsInsertionCallback@2@PEAW4Enum@PxTriangleMeshCookingResult@2@@Z 0000000180032088     Cooking.obj
 0002:000030a0       $unwind$??_GCooking@physx@@UEAAPEAXI@Z 00000001800320a0     Cooking.obj
 0002:000030a8       $unwind$??_GRefCountable@Cm@physx@@UEAAPEAXI@Z 00000001800320a8     Cooking.obj
 0002:000030b0       $unwind$?recreate@?$Array@UPxDebugLine@physx@@VNamedAllocator@shdfnd@2@@shdfnd@physx@@IEAAXI@Z 00000001800320b0     Cooking.obj
 0002:000030c0       $chain$0$?recreate@?$Array@UPxDebugLine@physx@@VNamedAllocator@shdfnd@2@@shdfnd@physx@@IEAAXI@Z 00000001800320c0     Cooking.obj
 0002:000030d4       $chain$1$?recreate@?$Array@UPxDebugLine@physx@@VNamedAllocator@shdfnd@2@@shdfnd@physx@@IEAAXI@Z 00000001800320d4     Cooking.obj
 0002:000030e4       $unwind$?reserveSegments@RenderOutput@Cm@physx@@QEAAPEAUPxDebugLine@3@I@Z 00000001800320e4     Cooking.obj
 0002:000030f0       $unwind$?outputSegment@RenderOutput@Cm@physx@@QEAAXAEBVPxVec3@3@0@Z 00000001800320f0     Cooking.obj
 0002:00003108       $unwind$??_EConvexMesh@Gu@physx@@UEAAPEAXI@Z 0000000180032108     Cooking.obj
 0002:00003114       $chain$2$??_EConvexMesh@Gu@physx@@UEAAPEAXI@Z 0000000180032114     Cooking.obj
 0002:00003130       $chain$3$??_EConvexMesh@Gu@physx@@UEAAPEAXI@Z 0000000180032130     Cooking.obj
 0002:00003144       $chain$5$??_EConvexMesh@Gu@physx@@UEAAPEAXI@Z 0000000180032144     Cooking.obj
 0002:00003158       $chain$6$??_EConvexMesh@Gu@physx@@UEAAPEAXI@Z 0000000180032158     Cooking.obj
 0002:00003168       $unwind$?isKindOf@PxHeightField@physx@@MEBA_NPEBD@Z 0000000180032168     Cooking.obj
 0002:00003170       $unwind$?getHeight@HeightField@Gu@physx@@UEBAMMM@Z 0000000180032170     Cooking.obj
 0002:00003178       $unwind$?getTriangleNormal@HeightField@Gu@physx@@UEBA?AVPxVec3@3@I@Z 0000000180032178     Cooking.obj
 0002:00003184       $unwind$?getHeightInternal2@HeightField@Gu@physx@@QEBAMIMM@Z 0000000180032184     Cooking.obj
 0002:00003190       $chain$0$?getHeightInternal2@HeightField@Gu@physx@@QEBAMIMM@Z 0000000180032190     Cooking.obj
 0002:000031a4       $chain$2$?getHeightInternal2@HeightField@Gu@physx@@QEBAMIMM@Z 00000001800321a4     Cooking.obj
 0002:000031b8       $unwind$?Clean@ReducedVertexCloud@physx@@QEAAAEAV12@XZ 00000001800321b8     CookingUtils.obj
 0002:000031c4       $unwind$?Reduce@ReducedVertexCloud@physx@@QEAA_NPEAUREDUCEDCLOUD@2@@Z 00000001800321c4     CookingUtils.obj
 0002:000031dc       $unwind$??1EdgeList@Gu@physx@@QEAA@XZ 00000001800321dc     EdgeList.obj
 0002:000031ec       $unwind$?load@EdgeList@Gu@physx@@QEAA_NAEAVPxInputStream@3@@Z 00000001800321ec     EdgeList.obj
 0002:00003200       $unwind$?init@EdgeListBuilder@Gu@physx@@QEAA_NAEBUEDGELISTCREATE@23@@Z 0000000180032200     EdgeList.obj
 0002:00003210       $unwind$?createFacesToEdges@EdgeListBuilder@Gu@physx@@AEAA_NIPEBIPEBG@Z 0000000180032210     EdgeList.obj
 0002:00003220       $chain$3$?createFacesToEdges@EdgeListBuilder@Gu@physx@@AEAA_NIPEBIPEBG@Z 0000000180032220     EdgeList.obj
 0002:00003240       $chain$4$?createFacesToEdges@EdgeListBuilder@Gu@physx@@AEAA_NIPEBIPEBG@Z 0000000180032240     EdgeList.obj
 0002:00003258       $chain$5$?createFacesToEdges@EdgeListBuilder@Gu@physx@@AEAA_NIPEBIPEBG@Z 0000000180032258     EdgeList.obj
 0002:0000326c       $chain$6$?createFacesToEdges@EdgeListBuilder@Gu@physx@@AEAA_NIPEBIPEBG@Z 000000018003226c     EdgeList.obj
 0002:0000327c       $unwind$?createEdgesToFaces@EdgeListBuilder@Gu@physx@@AEAA_NIPEBIPEBG@Z 000000018003227c     EdgeList.obj
 0002:0000328c       $chain$1$?createEdgesToFaces@EdgeListBuilder@Gu@physx@@AEAA_NIPEBIPEBG@Z 000000018003228c     EdgeList.obj
 0002:000032a0       $chain$2$?createEdgesToFaces@EdgeListBuilder@Gu@physx@@AEAA_NIPEBIPEBG@Z 00000001800322a0     EdgeList.obj
 0002:000032b0       $unwind$?computeActiveEdges@EdgeListBuilder@Gu@physx@@AEAA_NIPEBIPEBGPEBVPxVec3@3@M@Z 00000001800322b0     EdgeList.obj
 0002:000032c0       $chain$0$?computeActiveEdges@EdgeListBuilder@Gu@physx@@AEAA_NIPEBIPEBGPEBVPxVec3@3@M@Z 00000001800322c0     EdgeList.obj
 0002:000032d4       $chain$4$?computeActiveEdges@EdgeListBuilder@Gu@physx@@AEAA_NIPEBIPEBGPEBVPxVec3@3@M@Z 00000001800322d4     EdgeList.obj
 0002:000032ec       $chain$16$?computeActiveEdges@EdgeListBuilder@Gu@physx@@AEAA_NIPEBIPEBGPEBVPxVec3@3@M@Z 00000001800322ec     EdgeList.obj
 0002:0000332c       $chain$17$?computeActiveEdges@EdgeListBuilder@Gu@physx@@AEAA_NIPEBIPEBGPEBVPxVec3@3@M@Z 000000018003232c     EdgeList.obj
 0002:0000333c       $chain$18$?computeActiveEdges@EdgeListBuilder@Gu@physx@@AEAA_NIPEBIPEBGPEBVPxVec3@3@M@Z 000000018003233c     EdgeList.obj
 0002:00003350       $chain$2$?computeActiveEdges@EdgeListBuilder@Gu@physx@@AEAA_NIPEBIPEBGPEBVPxVec3@3@M@Z 0000000180032350     EdgeList.obj
 0002:00003364       $chain$19$?computeActiveEdges@EdgeListBuilder@Gu@physx@@AEAA_NIPEBIPEBGPEBVPxVec3@3@M@Z 0000000180032364     EdgeList.obj
 0002:00003374       $unwind$??$?_UI@@YAPEAX_KV?$ReflectionAllocator@I@shdfnd@physx@@PEBDH@Z 0000000180032374     EdgeList.obj
 0002:00003384       $chain$0$??$?_UI@@YAPEAX_KV?$ReflectionAllocator@I@shdfnd@physx@@PEBDH@Z 0000000180032384     EdgeList.obj
 0002:00003398       $chain$1$??$?_UI@@YAPEAX_KV?$ReflectionAllocator@I@shdfnd@physx@@PEBDH@Z 0000000180032398     EdgeList.obj
 0002:000033a8       $unwind$??0MeshCleaner@physx@@QEAA@IPEBVPxVec3@1@IPEBIM@Z 00000001800323a8     MeshCleaner.obj
 0002:000033b4       $chain$1$??0MeshCleaner@physx@@QEAA@IPEBVPxVec3@1@IPEBIM@Z 00000001800323b4     MeshCleaner.obj
 0002:000033cc       $chain$5$??0MeshCleaner@physx@@QEAA@IPEBVPxVec3@1@IPEBIM@Z 00000001800323cc     MeshCleaner.obj
 0002:000033ec       $chain$7$??0MeshCleaner@physx@@QEAA@IPEBVPxVec3@1@IPEBIM@Z 00000001800323ec     MeshCleaner.obj
 0002:00003404       $chain$8$??0MeshCleaner@physx@@QEAA@IPEBVPxVec3@1@IPEBIM@Z 0000000180032404     MeshCleaner.obj
 0002:00003418       $chain$9$??0MeshCleaner@physx@@QEAA@IPEBVPxVec3@1@IPEBIM@Z 0000000180032418     MeshCleaner.obj
 0002:00003428       $chain$10$??0MeshCleaner@physx@@QEAA@IPEBVPxVec3@1@IPEBIM@Z 0000000180032428     MeshCleaner.obj
 0002:00003438       $chain$11$??0MeshCleaner@physx@@QEAA@IPEBVPxVec3@1@IPEBIM@Z 0000000180032438     MeshCleaner.obj
 0002:00003450       $chain$12$??0MeshCleaner@physx@@QEAA@IPEBVPxVec3@1@IPEBIM@Z 0000000180032450     MeshCleaner.obj
 0002:00003460       $chain$13$??0MeshCleaner@physx@@QEAA@IPEBVPxVec3@1@IPEBIM@Z 0000000180032460     MeshCleaner.obj
 0002:0000347c       $chain$14$??0MeshCleaner@physx@@QEAA@IPEBVPxVec3@1@IPEBIM@Z 000000018003247c     MeshCleaner.obj
 0002:0000348c       $unwind$??1MeshCleaner@physx@@QEAA@XZ 000000018003248c     MeshCleaner.obj
 0002:0000349c       $unwind$??_GQuantizer@physx@@MEAAPEAXI@Z 000000018003249c     Quantizer.obj
 0002:000034a4       $unwind$?createQuantizer@physx@@YAPEAVQuantizer@1@XZ 00000001800324a4     Quantizer.obj
 0002:000034b4       $unwind$??$kmeans_cluster@VPxVec3@physx@@M@@YAIPEBVPxVec3@physx@@IIPEAV01@PEAIMM@Z 00000001800324b4     Quantizer.obj
 0002:000034c0       $chain$6$??$kmeans_cluster@VPxVec3@physx@@M@@YAIPEBVPxVec3@physx@@IIPEAV01@PEAIMM@Z 00000001800324c0     Quantizer.obj
 0002:000034ec       $chain$12$??$kmeans_cluster@VPxVec3@physx@@M@@YAIPEBVPxVec3@physx@@IIPEAV01@PEAIMM@Z 00000001800324ec     Quantizer.obj
 0002:00003514       $chain$13$??$kmeans_cluster@VPxVec3@physx@@M@@YAIPEBVPxVec3@physx@@IIPEAV01@PEAIMM@Z 0000000180032514     Quantizer.obj
 0002:00003524       $chain$14$??$kmeans_cluster@VPxVec3@physx@@M@@YAIPEBVPxVec3@physx@@IIPEAV01@PEAIMM@Z 0000000180032524     Quantizer.obj
 0002:00003534       $unwind$?kmeansQuantize3D@QuantizerImpl@@UEAAPEBVPxVec3@physx@@IPEBV23@I_NIAEAI@Z 0000000180032534     Quantizer.obj
 0002:00003544       $chain$0$?kmeansQuantize3D@QuantizerImpl@@UEAAPEBVPxVec3@physx@@IPEBV23@I_NIAEAI@Z 0000000180032544     Quantizer.obj
 0002:00003558       $chain$2$?kmeansQuantize3D@QuantizerImpl@@UEAAPEBVPxVec3@physx@@IPEBV23@I_NIAEAI@Z 0000000180032558     Quantizer.obj
 0002:00003570       $chain$3$?kmeansQuantize3D@QuantizerImpl@@UEAAPEBVPxVec3@physx@@IPEBV23@I_NIAEAI@Z 0000000180032570     Quantizer.obj
 0002:00003584       $chain$4$?kmeansQuantize3D@QuantizerImpl@@UEAAPEBVPxVec3@physx@@IPEBV23@I_NIAEAI@Z 0000000180032584     Quantizer.obj
 0002:00003594       $chain$5$?kmeansQuantize3D@QuantizerImpl@@UEAAPEBVPxVec3@physx@@IPEBV23@I_NIAEAI@Z 0000000180032594     Quantizer.obj
 0002:000035a4       $unwind$?normalizeInput@QuantizerImpl@@AEAAXIPEBVPxVec3@physx@@I@Z 00000001800325a4     Quantizer.obj
 0002:000035c4       $chain$6$?normalizeInput@QuantizerImpl@@AEAAXIPEBVPxVec3@physx@@I@Z 00000001800325c4     Quantizer.obj
 0002:000035f0       $chain$7$?normalizeInput@QuantizerImpl@@AEAAXIPEBVPxVec3@physx@@I@Z 00000001800325f0     Quantizer.obj
 0002:00003600       $chain$8$?normalizeInput@QuantizerImpl@@AEAAXIPEBVPxVec3@physx@@I@Z 0000000180032600     Quantizer.obj
 0002:00003614       $chain$9$?normalizeInput@QuantizerImpl@@AEAAXIPEBVPxVec3@physx@@I@Z 0000000180032614     Quantizer.obj
 0002:00003624       $unwind$??1QuantizerImpl@@EEAA@XZ 0000000180032624     Quantizer.obj
 0002:00003630       $unwind$?growAndPushBack@?$Array@VPxVec3@physx@@VNamedAllocator@shdfnd@2@@shdfnd@physx@@IEAAAEAVPxVec3@3@AEBV43@@Z 0000000180032630     Quantizer.obj
 0002:00003644       $unwind$??_GQuantizerImpl@@EEAAPEAXI@Z 0000000180032644     Quantizer.obj
 0002:00003654       $unwind$??1BVHStructureBuilder@physx@@QEAA@XZ 0000000180032654     BVHStructureBuilder.obj
 0002:00003664       $unwind$?loadFromDesc@BVHStructureBuilder@physx@@QEAA_NAEBVPxBVHStructureDesc@2@@Z 0000000180032664     BVHStructureBuilder.obj
 0002:00003670       $chain$2$?loadFromDesc@BVHStructureBuilder@physx@@QEAA_NAEBVPxBVHStructureDesc@2@@Z 0000000180032670     BVHStructureBuilder.obj
 0002:0000368c       $chain$5$?loadFromDesc@BVHStructureBuilder@physx@@QEAA_NAEBVPxBVHStructureDesc@2@@Z 000000018003268c     BVHStructureBuilder.obj
 0002:000036a8       $chain$6$?loadFromDesc@BVHStructureBuilder@physx@@QEAA_NAEBVPxBVHStructureDesc@2@@Z 00000001800326a8     BVHStructureBuilder.obj
 0002:000036b8       $chain$7$?loadFromDesc@BVHStructureBuilder@physx@@QEAA_NAEBVPxBVHStructureDesc@2@@Z 00000001800326b8     BVHStructureBuilder.obj
 0002:000036c8       $unwind$?save@BVHStructureBuilder@physx@@QEBA_NAEAVPxOutputStream@2@_N@Z 00000001800326c8     BVHStructureBuilder.obj
 0002:000036d8       $chain$2$?save@BVHStructureBuilder@physx@@QEBA_NAEAVPxOutputStream@2@_N@Z 00000001800326d8     BVHStructureBuilder.obj
 0002:000036f0       $chain$3$?save@BVHStructureBuilder@physx@@QEBA_NAEAVPxOutputStream@2@_N@Z 00000001800326f0     BVHStructureBuilder.obj
 0002:00003704       $unwind$?flatten@@YAXAEBVNodeAllocator@Gu@physx@@PEAUBVHNode@23@@Z 0000000180032704     BVHStructureBuilder.obj
 0002:00003710       $chain$4$?flatten@@YAXAEBVNodeAllocator@Gu@physx@@PEAUBVHNode@23@@Z 0000000180032710     BVHStructureBuilder.obj
 0002:00003734       $chain$5$?flatten@@YAXAEBVNodeAllocator@Gu@physx@@PEAUBVHNode@23@@Z 0000000180032734     BVHStructureBuilder.obj
 0002:00003744       $unwind$??1AABBTreeBuildParams@Gu@physx@@QEAA@XZ 0000000180032744     BVHStructureBuilder.obj
 0002:00003754       $unwind$?reset@AABBTreeBuildParams@Gu@physx@@QEAAXXZ 0000000180032754     BVHStructureBuilder.obj
 0002:00003764       $unwind$?recreate@?$Array@USlab@NodeAllocator@Gu@physx@@VNamedAllocator@shdfnd@4@@shdfnd@physx@@IEAAXI@Z 0000000180032764     BVHStructureBuilder.obj
 0002:00003778       $unwind$??0NodeAllocator@Gu@physx@@QEAA@AEBV012@@Z 0000000180032778     BVHStructureBuilder.obj
 0002:00003788       $unwind$??4NodeAllocator@Gu@physx@@QEAAAEAV012@AEBV012@@Z 0000000180032788     BVHStructureBuilder.obj
 0002:0000379c       $unwind$??$copy@VNamedAllocator@shdfnd@physx@@@?$Array@USlab@NodeAllocator@Gu@physx@@VNamedAllocator@shdfnd@4@@shdfnd@physx@@IEAAXAEBV012@@Z 000000018003279c     BVHStructureBuilder.obj
 0002:000037a8       $chain$0$??$copy@VNamedAllocator@shdfnd@physx@@@?$Array@USlab@NodeAllocator@Gu@physx@@VNamedAllocator@shdfnd@4@@shdfnd@physx@@IEAAXAEBV012@@Z 00000001800327a8     BVHStructureBuilder.obj
 0002:000037bc       $chain$1$??$copy@VNamedAllocator@shdfnd@physx@@@?$Array@USlab@NodeAllocator@Gu@physx@@VNamedAllocator@shdfnd@4@@shdfnd@physx@@IEAAXAEBV012@@Z 00000001800327bc     BVHStructureBuilder.obj
 0002:000037cc       $unwind$?saveHeightField@physx@@YA_NAEBVHeightField@Gu@1@AEAVPxOutputStream@1@_N@Z 00000001800327cc     HeightFieldCooking.obj
 0002:000037dc       $chain$2$?saveHeightField@physx@@YA_NAEBVHeightField@Gu@1@AEAVPxOutputStream@1@_N@Z 00000001800327dc     HeightFieldCooking.obj
 0002:000037f4       $chain$3$?saveHeightField@physx@@YA_NAEBVHeightField@Gu@1@AEAVPxOutputStream@1@_N@Z 00000001800327f4     HeightFieldCooking.obj
 0002:00003804       $unwind$?buildFromTriangles@RTreeCooker@physx@@SAXAEAURTree@Gu@2@PEBVPxVec3@2@IPEBGPEBIIAEAV?$Array@IVNamedAllocator@shdfnd@physx@@@shdfnd@2@PEAURemapCallback@12@MW4Enum@PxMeshCookingHint@2@@Z 0000000180032804     RTreeCooking.obj
 0002:00003810       $chain$7$?buildFromTriangles@RTreeCooker@physx@@SAXAEAURTree@Gu@2@PEBVPxVec3@2@IPEBGPEBIIAEAV?$Array@IVNamedAllocator@shdfnd@physx@@@shdfnd@2@PEAURemapCallback@12@MW4Enum@PxMeshCookingHint@2@@Z 0000000180032810     RTreeCooking.obj
 0002:00003840       $chain$8$?buildFromTriangles@RTreeCooker@physx@@SAXAEAURTree@Gu@2@PEBVPxVec3@2@IPEBGPEBIIAEAV?$Array@IVNamedAllocator@shdfnd@physx@@@shdfnd@2@PEAURemapCallback@12@MW4Enum@PxMeshCookingHint@2@@Z 0000000180032840     RTreeCooking.obj
 0002:00003854       $chain$9$?buildFromTriangles@RTreeCooker@physx@@SAXAEAURTree@Gu@2@PEBVPxVec3@2@IPEBGPEBIIAEAV?$Array@IVNamedAllocator@shdfnd@physx@@@shdfnd@2@PEAURemapCallback@12@MW4Enum@PxMeshCookingHint@2@@Z 0000000180032854     RTreeCooking.obj
 0002:00003864       $chain$10$?buildFromTriangles@RTreeCooker@physx@@SAXAEAURTree@Gu@2@PEBVPxVec3@2@IPEBGPEBIIAEAV?$Array@IVNamedAllocator@shdfnd@physx@@@shdfnd@2@PEAURemapCallback@12@MW4Enum@PxMeshCookingHint@2@@Z 0000000180032864     RTreeCooking.obj
 0002:00003874       $unwind$?buildFromBounds@physx@@YAXAEAURTree@Gu@1@PEBUPxBounds3V@1@IAEAV?$Array@IVNamedAllocator@shdfnd@physx@@@shdfnd@1@PEAURemapCallback@RTreeCooker@1@AEAT__m128@@4MW4Enum@PxMeshCookingHint@1@@Z 0000000180032874     RTreeCooking.obj
 0002:00003894       $unwind$?growAndPushBack@?$Array@UPxBounds3V@physx@@VNamedAllocator@shdfnd@2@@shdfnd@physx@@IEAAAEAUPxBounds3V@3@AEBU43@@Z 0000000180032894     RTreeCooking.obj
 0002:000038a8       $unwind$?recreate@?$Array@UPxBounds3V@physx@@VNamedAllocator@shdfnd@2@@shdfnd@physx@@IEAAXI@Z 00000001800328a8     RTreeCooking.obj
 0002:000038bc       $unwind$?resize@?$Array@IVNamedAllocator@shdfnd@physx@@@shdfnd@physx@@QEAAXIAEBI@Z 00000001800328bc     RTreeCooking.obj
 0002:000038d0       $unwind$?growAndPushBack@?$Array@IVNamedAllocator@shdfnd@physx@@@shdfnd@physx@@IEAAAEAIAEBI@Z 00000001800328d0     RTreeCooking.obj
 0002:000038e4       $unwind$?recreate@?$Array@IVNamedAllocator@shdfnd@physx@@@shdfnd@physx@@IEAAXI@Z 00000001800328e4     RTreeCooking.obj
 0002:000038f4       $chain$0$?recreate@?$Array@IVNamedAllocator@shdfnd@physx@@@shdfnd@physx@@IEAAXI@Z 00000001800328f4     RTreeCooking.obj
 0002:00003908       $chain$1$?recreate@?$Array@IVNamedAllocator@shdfnd@physx@@@shdfnd@physx@@IEAAXI@Z 0000000180032908     RTreeCooking.obj
 0002:00003918       $unwind$?recreate@?$Array@VPxVec3@physx@@VNamedAllocator@shdfnd@2@@shdfnd@physx@@IEAAXI@Z 0000000180032918     RTreeCooking.obj
 0002:00003928       $chain$0$?recreate@?$Array@VPxVec3@physx@@VNamedAllocator@shdfnd@2@@shdfnd@physx@@IEAAXI@Z 0000000180032928     RTreeCooking.obj
 0002:0000393c       $chain$1$?recreate@?$Array@VPxVec3@physx@@VNamedAllocator@shdfnd@2@@shdfnd@physx@@IEAAXI@Z 000000018003293c     RTreeCooking.obj
 0002:0000394c       $unwind$?sort4@SubSortQuick@physx@@QEAAXPEIAIIAEAV?$Array@URTreeNodeNQ@physx@@VNamedAllocator@shdfnd@2@@shdfnd@2@AEAIAEAUPxBounds3V@2@I@Z 000000018003294c     RTreeCooking.obj
 0002:00003964       $unwind$?resizeUninitialized@?$Array@URTreeNodeNQ@physx@@VNamedAllocator@shdfnd@2@@shdfnd@physx@@QEAAXI@Z 0000000180032964     RTreeCooking.obj
 0002:00003970       $unwind$?growAndPushBack@?$Array@URTreeNodeNQ@physx@@VNamedAllocator@shdfnd@2@@shdfnd@physx@@IEAAAEAURTreeNodeNQ@3@AEBU43@@Z 0000000180032970     RTreeCooking.obj
 0002:0000397c       $chain$0$?growAndPushBack@?$Array@URTreeNodeNQ@physx@@VNamedAllocator@shdfnd@2@@shdfnd@physx@@IEAAAEAURTreeNodeNQ@3@AEBU43@@Z 000000018003297c     RTreeCooking.obj
 0002:00003990       $chain$1$?growAndPushBack@?$Array@URTreeNodeNQ@physx@@VNamedAllocator@shdfnd@2@@shdfnd@physx@@IEAAAEAURTreeNodeNQ@3@AEBU43@@Z 0000000180032990     RTreeCooking.obj
 0002:000039a4       $chain$2$?growAndPushBack@?$Array@URTreeNodeNQ@physx@@VNamedAllocator@shdfnd@2@@shdfnd@physx@@IEAAAEAURTreeNodeNQ@3@AEBU43@@Z 00000001800329a4     RTreeCooking.obj
 0002:000039b4       $chain$3$?growAndPushBack@?$Array@URTreeNodeNQ@physx@@VNamedAllocator@shdfnd@2@@shdfnd@physx@@IEAAAEAURTreeNodeNQ@3@AEBU43@@Z 00000001800329b4     RTreeCooking.obj
 0002:000039c4       $unwind$?recreate@?$Array@URTreeNodeNQ@physx@@VNamedAllocator@shdfnd@2@@shdfnd@physx@@IEAAXI@Z 00000001800329c4     RTreeCooking.obj
 0002:000039d4       $chain$0$?recreate@?$Array@URTreeNodeNQ@physx@@VNamedAllocator@shdfnd@2@@shdfnd@physx@@IEAAXI@Z 00000001800329d4     RTreeCooking.obj
 0002:000039e8       $chain$1$?recreate@?$Array@URTreeNodeNQ@physx@@VNamedAllocator@shdfnd@2@@shdfnd@physx@@IEAAXI@Z 00000001800329e8     RTreeCooking.obj
 0002:000039f8       $unwind$??$quickSelectFirstK@UBoundsLTE@physx@@@quickSelect@physx@@YAXPEIAIIIIAEBUBoundsLTE@1@@Z 00000001800329f8     RTreeCooking.obj
 0002:00003a10       $unwind$?split@SubSortSAH@physx@@QEAAIPEAII@Z 0000000180032a10     RTreeCooking.obj
 0002:00003a24       $chain$4$?split@SubSortSAH@physx@@QEAAIPEAII@Z 0000000180032a24     RTreeCooking.obj
 0002:00003a44       $chain$5$?split@SubSortSAH@physx@@QEAAIPEAII@Z 0000000180032a44     RTreeCooking.obj
 0002:00003a58       $chain$6$?split@SubSortSAH@physx@@QEAAIPEAII@Z 0000000180032a58     RTreeCooking.obj
 0002:00003a68       $chain$7$?split@SubSortSAH@physx@@QEAAIPEAII@Z 0000000180032a68     RTreeCooking.obj
 0002:00003a78       $unwind$?sort4@SubSortSAH@physx@@QEAAXPEAIIAEAV?$Array@URTreeNodeNQ@physx@@VNamedAllocator@shdfnd@2@@shdfnd@2@AEAIIPEAURTreeNodeNQ@2@@Z 0000000180032a78     RTreeCooking.obj
 0002:00003aa4       $unwind$??$sort@I@shdfnd@physx@@YAXPEAII@Z 0000000180032aa4     RTreeCooking.obj
 0002:00003ab0       $unwind$?allocate@?$Array@UInterval@physx@@V?$InlineAllocator@$0CAAA@VNamedAllocator@shdfnd@physx@@@shdfnd@2@@shdfnd@physx@@IEAAPEAUInterval@3@I@Z 0000000180032ab0     RTreeCooking.obj
 0002:00003ab8       $unwind$?growAndPushBack@?$Array@UInterval@physx@@V?$InlineAllocator@$0CAAA@VNamedAllocator@shdfnd@physx@@@shdfnd@2@@shdfnd@physx@@IEAAAEAUInterval@3@AEBU43@@Z 0000000180032ab8     RTreeCooking.obj
 0002:00003acc       $unwind$??0?$InlineArray@UInterval@physx@@$0EAA@VNamedAllocator@shdfnd@2@@shdfnd@physx@@QEAA@AEBVNamedAllocator@12@@Z 0000000180032acc     RTreeCooking.obj
 0002:00003ad8       $unwind$??$sort@IUSortBoundsPredicate@physx@@@shdfnd@physx@@YAXPEAIIAEBUSortBoundsPredicate@1@@Z 0000000180032ad8     RTreeCooking.obj
 0002:00003ae8       $unwind$?growAndPushBack@?$Array@URTreeNodeQ@Gu@physx@@VNamedAllocator@shdfnd@3@@shdfnd@physx@@IEAAAEAURTreeNodeQ@Gu@3@AEBU453@@Z 0000000180032ae8     RTreeCooking.obj
 0002:00003afc       $unwind$?recreate@?$Array@URTreeNodeQ@Gu@physx@@VNamedAllocator@shdfnd@3@@shdfnd@physx@@IEAAXI@Z 0000000180032afc     RTreeCooking.obj
 0002:00003b10       $unwind$??$partition@UBoundsLTE@physx@@@quickSelect@physx@@YAIPEIAIIIIAEBUBoundsLTE@1@@Z 0000000180032b10     RTreeCooking.obj
 0002:00003b20       $chain$2$??$partition@UBoundsLTE@physx@@@quickSelect@physx@@YAIPEIAIIIIAEBUBoundsLTE@1@@Z 0000000180032b20     RTreeCooking.obj
 0002:00003b3c       $chain$3$??$partition@UBoundsLTE@physx@@@quickSelect@physx@@YAIPEIAIIIIAEBUBoundsLTE@1@@Z 0000000180032b3c     RTreeCooking.obj
 0002:00003b4c       $unwind$??$sort@IU?$Less@I@shdfnd@physx@@VNamedAllocator@23@@shdfnd@physx@@YAXPEAIIAEBU?$Less@I@01@AEBVNamedAllocator@01@I@Z 0000000180032b4c     RTreeCooking.obj
 0002:00003b6c       $unwind$??$sort@IUSortBoundsPredicate@physx@@VNamedAllocator@shdfnd@2@@shdfnd@physx@@YAXPEAIIAEBUSortBoundsPredicate@1@AEBVNamedAllocator@01@I@Z 0000000180032b6c     RTreeCooking.obj
 0002:00003b8c       $unwind$??$smallSort@I$$CBUSortBoundsPredicate@physx@@@internal@shdfnd@physx@@YAXPEAIHHAEBUSortBoundsPredicate@2@@Z 0000000180032b8c     RTreeCooking.obj
 0002:00003b9c       $chain$5$??$smallSort@I$$CBUSortBoundsPredicate@physx@@@internal@shdfnd@physx@@YAXPEAIHHAEBUSortBoundsPredicate@2@@Z 0000000180032b9c     RTreeCooking.obj
 0002:00003bc4       $chain$6$??$smallSort@I$$CBUSortBoundsPredicate@physx@@@internal@shdfnd@physx@@YAXPEAIHHAEBUSortBoundsPredicate@2@@Z 0000000180032bc4     RTreeCooking.obj
 0002:00003bd4       $unwind$?computeLocalBounds@MeshBulider@physx@@IEAAXAEAVMeshDataBase@Gu@2@@Z 0000000180032bd4     MeshBuilder.obj
 0002:00003be0       $unwind$??1MeshDataBase@Gu@physx@@UEAA@XZ 0000000180032be0     TriangleMeshBuilder.obj
 0002:00003bf0       $unwind$?allocateVertices@MeshDataBase@Gu@physx@@QEAAPEAVPxVec3@3@I@Z 0000000180032bf0     TriangleMeshBuilder.obj
 0002:00003c00       $unwind$??_GMeshDataBase@Gu@physx@@UEAAPEAXI@Z 0000000180032c00     TriangleMeshBuilder.obj
 0002:00003c0c       $unwind$??1TriangleMeshData@Gu@physx@@UEAA@XZ 0000000180032c0c     TriangleMeshBuilder.obj
 0002:00003c18       $unwind$?allocateTriangles@TriangleMeshData@Gu@physx@@QEAAPEAXI_NI@Z 0000000180032c18     TriangleMeshBuilder.obj
 0002:00003c2c       $unwind$??_GTriangleMeshData@Gu@physx@@UEAAPEAXI@Z 0000000180032c2c     TriangleMeshBuilder.obj
 0002:00003c38       $unwind$??$?_UG@@YAPEAX_KV?$ReflectionAllocator@G@shdfnd@physx@@PEBDH@Z 0000000180032c38     TriangleMeshBuilder.obj
 0002:00003c48       $chain$0$??$?_UG@@YAPEAX_KV?$ReflectionAllocator@G@shdfnd@physx@@PEBDH@Z 0000000180032c48     TriangleMeshBuilder.obj
 0002:00003c5c       $chain$1$??$?_UG@@YAPEAX_KV?$ReflectionAllocator@G@shdfnd@physx@@PEBDH@Z 0000000180032c5c     TriangleMeshBuilder.obj
 0002:00003c6c       $unwind$??1RTreeTriangleData@Gu@physx@@UEAA@XZ 0000000180032c6c     TriangleMeshBuilder.obj
 0002:00003c74       $chain$0$??1RTreeTriangleData@Gu@physx@@UEAA@XZ 0000000180032c74     TriangleMeshBuilder.obj
 0002:00003c88       $chain$1$??1RTreeTriangleData@Gu@physx@@UEAA@XZ 0000000180032c88     TriangleMeshBuilder.obj
 0002:00003c98       $unwind$??_GRTreeTriangleData@Gu@physx@@UEAAPEAXI@Z 0000000180032c98     TriangleMeshBuilder.obj
 0002:00003ca4       $unwind$??1BV4TriangleData@Gu@physx@@UEAA@XZ 0000000180032ca4     TriangleMeshBuilder.obj
 0002:00003cac       $unwind$??_GBV4TriangleData@Gu@physx@@UEAAPEAXI@Z 0000000180032cac     TriangleMeshBuilder.obj
 0002:00003cb8       $unwind$??_GRemapCallback@RTreeCooker@physx@@UEAAPEAXI@Z 0000000180032cb8     TriangleMeshBuilder.obj
 0002:00003cc0       $unwind$??1TriangleMeshBuilder@physx@@UEAA@XZ 0000000180032cc0     TriangleMeshBuilder.obj
 0002:00003ccc       $unwind$?cleanMesh@TriangleMeshBuilder@physx@@QEAA_N_NPEAW4Enum@PxTriangleMeshCookingResult@2@@Z 0000000180032ccc     TriangleMeshBuilder.obj
 0002:00003ce0       $chain$1$?cleanMesh@TriangleMeshBuilder@physx@@QEAA_N_NPEAW4Enum@PxTriangleMeshCookingResult@2@@Z 0000000180032ce0     TriangleMeshBuilder.obj
 0002:00003cf8       $chain$2$?cleanMesh@TriangleMeshBuilder@physx@@QEAA_N_NPEAW4Enum@PxTriangleMeshCookingResult@2@@Z 0000000180032cf8     TriangleMeshBuilder.obj
 0002:00003d0c       $chain$3$?cleanMesh@TriangleMeshBuilder@physx@@QEAA_N_NPEAW4Enum@PxTriangleMeshCookingResult@2@@Z 0000000180032d0c     TriangleMeshBuilder.obj
 0002:00003d1c       $chain$7$?cleanMesh@TriangleMeshBuilder@physx@@QEAA_N_NPEAW4Enum@PxTriangleMeshCookingResult@2@@Z 0000000180032d1c     TriangleMeshBuilder.obj
 0002:00003d38       $chain$4$?cleanMesh@TriangleMeshBuilder@physx@@QEAA_N_NPEAW4Enum@PxTriangleMeshCookingResult@2@@Z 0000000180032d38     TriangleMeshBuilder.obj
 0002:00003d4c       $chain$8$?cleanMesh@TriangleMeshBuilder@physx@@QEAA_N_NPEAW4Enum@PxTriangleMeshCookingResult@2@@Z 0000000180032d4c     TriangleMeshBuilder.obj
 0002:00003d5c       $unwind$?remapTopology@TriangleMeshBuilder@physx@@QEAAXPEBI@Z 0000000180032d5c     TriangleMeshBuilder.obj
 0002:00003d68       $chain$3$?remapTopology@TriangleMeshBuilder@physx@@QEAAXPEBI@Z 0000000180032d68     TriangleMeshBuilder.obj
 0002:00003d88       $chain$4$?remapTopology@TriangleMeshBuilder@physx@@QEAAXPEBI@Z 0000000180032d88     TriangleMeshBuilder.obj
 0002:00003d9c       $chain$5$?remapTopology@TriangleMeshBuilder@physx@@QEAAXPEBI@Z 0000000180032d9c     TriangleMeshBuilder.obj
 0002:00003dac       $chain$6$?remapTopology@TriangleMeshBuilder@physx@@QEAAXPEBI@Z 0000000180032dac     TriangleMeshBuilder.obj
 0002:00003dbc       $unwind$?createSharedEdgeData@TriangleMeshBuilder@physx@@QEAAX_N0@Z 0000000180032dbc     TriangleMeshBuilder.obj
 0002:00003dc8       $chain$3$?createSharedEdgeData@TriangleMeshBuilder@physx@@QEAAX_N0@Z 0000000180032dc8     TriangleMeshBuilder.obj
 0002:00003de8       $chain$4$?createSharedEdgeData@TriangleMeshBuilder@physx@@QEAAX_N0@Z 0000000180032de8     TriangleMeshBuilder.obj
 0002:00003dfc       $chain$5$?createSharedEdgeData@TriangleMeshBuilder@physx@@QEAAX_N0@Z 0000000180032dfc     TriangleMeshBuilder.obj
 0002:00003e0c       $chain$6$?createSharedEdgeData@TriangleMeshBuilder@physx@@QEAAX_N0@Z 0000000180032e0c     TriangleMeshBuilder.obj
 0002:00003e1c       $unwind$?recordTriangleIndices@TriangleMeshBuilder@physx@@QEAAXXZ 0000000180032e1c     TriangleMeshBuilder.obj
 0002:00003e24       $unwind$?createGRBMidPhaseAndData@TriangleMeshBuilder@physx@@QEAAXI@Z 0000000180032e24     TriangleMeshBuilder.obj
 0002:00003e30       $chain$0$?createGRBMidPhaseAndData@TriangleMeshBuilder@physx@@QEAAXI@Z 0000000180032e30     TriangleMeshBuilder.obj
 0002:00003e44       $chain$1$?createGRBMidPhaseAndData@TriangleMeshBuilder@physx@@QEAAXI@Z 0000000180032e44     TriangleMeshBuilder.obj
 0002:00003e58       $chain$4$?createGRBMidPhaseAndData@TriangleMeshBuilder@physx@@QEAAXI@Z 0000000180032e58     TriangleMeshBuilder.obj
 0002:00003e74       $chain$5$?createGRBMidPhaseAndData@TriangleMeshBuilder@physx@@QEAAXI@Z 0000000180032e74     TriangleMeshBuilder.obj
 0002:00003e8c       $chain$6$?createGRBMidPhaseAndData@TriangleMeshBuilder@physx@@QEAAXI@Z 0000000180032e8c     TriangleMeshBuilder.obj
 0002:00003e9c       $chain$7$?createGRBMidPhaseAndData@TriangleMeshBuilder@physx@@QEAAXI@Z 0000000180032e9c     TriangleMeshBuilder.obj
 0002:00003eac       $chain$8$?createGRBMidPhaseAndData@TriangleMeshBuilder@physx@@QEAAXI@Z 0000000180032eac     TriangleMeshBuilder.obj
 0002:00003ebc       $unwind$?createGRBData@TriangleMeshBuilder@physx@@QEAAXXZ 0000000180032ebc     TriangleMeshBuilder.obj
 0002:00003ecc       $unwind$?loadFromDesc@TriangleMeshBuilder@physx@@QEAA_NAEBVPxTriangleMeshDesc@2@PEAW4Enum@PxTriangleMeshCookingResult@2@_N@Z 0000000180032ecc     TriangleMeshBuilder.obj
 0002:00003edc       $chain$1$?loadFromDesc@TriangleMeshBuilder@physx@@QEAA_NAEBVPxTriangleMeshDesc@2@PEAW4Enum@PxTriangleMeshCookingResult@2@_N@Z 0000000180032edc     TriangleMeshBuilder.obj
 0002:00003ef4       $chain$2$?loadFromDesc@TriangleMeshBuilder@physx@@QEAA_NAEBVPxTriangleMeshDesc@2@PEAW4Enum@PxTriangleMeshCookingResult@2@_N@Z 0000000180032ef4     TriangleMeshBuilder.obj
 0002:00003f08       $chain$3$?loadFromDesc@TriangleMeshBuilder@physx@@QEAA_NAEBVPxTriangleMeshDesc@2@PEAW4Enum@PxTriangleMeshCookingResult@2@_N@Z 0000000180032f08     TriangleMeshBuilder.obj
 0002:00003f18       $chain$5$?loadFromDesc@TriangleMeshBuilder@physx@@QEAA_NAEBVPxTriangleMeshDesc@2@PEAW4Enum@PxTriangleMeshCookingResult@2@_N@Z 0000000180032f18     TriangleMeshBuilder.obj
 0002:00003f30       $chain$6$?loadFromDesc@TriangleMeshBuilder@physx@@QEAA_NAEBVPxTriangleMeshDesc@2@PEAW4Enum@PxTriangleMeshCookingResult@2@_N@Z 0000000180032f30     TriangleMeshBuilder.obj
 0002:00003f40       $unwind$?save@TriangleMeshBuilder@physx@@QEBA_NAEAVPxOutputStream@2@_NAEBUPxCookingParams@2@@Z 0000000180032f40     TriangleMeshBuilder.obj
 0002:00003f5c       $chain$3$?save@TriangleMeshBuilder@physx@@QEBA_NAEAVPxOutputStream@2@_NAEBUPxCookingParams@2@@Z 0000000180032f5c     TriangleMeshBuilder.obj
 0002:00003f70       $unwind$?checkMeshIndicesSize@TriangleMeshBuilder@physx@@QEAAXXZ 0000000180032f70     TriangleMeshBuilder.obj
 0002:00003f7c       $chain$1$?checkMeshIndicesSize@TriangleMeshBuilder@physx@@QEAAXXZ 0000000180032f7c     TriangleMeshBuilder.obj
 0002:00003f94       $chain$2$?checkMeshIndicesSize@TriangleMeshBuilder@physx@@QEAAXXZ 0000000180032f94     TriangleMeshBuilder.obj
 0002:00003fa8       $chain$3$?checkMeshIndicesSize@TriangleMeshBuilder@physx@@QEAAXXZ 0000000180032fa8     TriangleMeshBuilder.obj
 0002:00003fb8       $chain$4$?checkMeshIndicesSize@TriangleMeshBuilder@physx@@QEAAXXZ 0000000180032fb8     TriangleMeshBuilder.obj
 0002:00003fc8       $unwind$?importMesh@TriangleMeshBuilder@physx@@IEAA_NAEBVPxTriangleMeshDesc@2@AEBUPxCookingParams@2@PEAW4Enum@PxTriangleMeshCookingResult@2@_N@Z 0000000180032fc8     TriangleMeshBuilder.obj
 0002:00003fe4       $unwind$?releaseEdgeList@TriangleMeshBuilder@physx@@IEAAXXZ 0000000180032fe4     TriangleMeshBuilder.obj
 0002:00003ff0       $unwind$?createEdgeList@TriangleMeshBuilder@physx@@IEAAXXZ 0000000180032ff0     TriangleMeshBuilder.obj
 0002:00003ffc       $unwind$??1RTreeTriangleMeshBuilder@physx@@UEAA@XZ 0000000180032ffc     TriangleMeshBuilder.obj
 0002:00004004       $unwind$?createMidPhaseStructure@RTreeTriangleMeshBuilder@physx@@UEAAXXZ 0000000180033004     TriangleMeshBuilder.obj
 0002:00004018       $unwind$?saveMidPhaseStructure@RTreeTriangleMeshBuilder@physx@@UEBAXAEAVPxOutputStream@2@_N@Z 0000000180033018     TriangleMeshBuilder.obj
 0002:00004028       $chain$0$?saveMidPhaseStructure@RTreeTriangleMeshBuilder@physx@@UEBAXAEAVPxOutputStream@2@_N@Z 0000000180033028     TriangleMeshBuilder.obj
 0002:0000403c       $chain$1$?saveMidPhaseStructure@RTreeTriangleMeshBuilder@physx@@UEBAXAEAVPxOutputStream@2@_N@Z 000000018003303c     TriangleMeshBuilder.obj
 0002:0000404c       $unwind$??0BV4TriangleMeshBuilder@physx@@QEAA@AEBUPxCookingParams@1@@Z 000000018003304c     TriangleMeshBuilder.obj
 0002:00004058       $unwind$??1BV4TriangleMeshBuilder@physx@@UEAA@XZ 0000000180033058     TriangleMeshBuilder.obj
 0002:00004064       $unwind$?createMidPhaseStructure@BV4TriangleMeshBuilder@physx@@UEAAXXZ 0000000180033064     TriangleMeshBuilder.obj
 0002:00004070       $chain$2$?createMidPhaseStructure@BV4TriangleMeshBuilder@physx@@UEAAXXZ 0000000180033070     TriangleMeshBuilder.obj
 0002:0000408c       $chain$3$?createMidPhaseStructure@BV4TriangleMeshBuilder@physx@@UEAAXXZ 000000018003308c     TriangleMeshBuilder.obj
 0002:000040a0       $chain$4$?createMidPhaseStructure@BV4TriangleMeshBuilder@physx@@UEAAXXZ 00000001800330a0     TriangleMeshBuilder.obj
 0002:000040b0       $chain$5$?createMidPhaseStructure@BV4TriangleMeshBuilder@physx@@UEAAXXZ 00000001800330b0     TriangleMeshBuilder.obj
 0002:000040c4       $unwind$?saveMidPhaseStructure@BV4TriangleMeshBuilder@physx@@UEBAXAEAVPxOutputStream@2@_N@Z 00000001800330c4     TriangleMeshBuilder.obj
 0002:000040d0       $unwind$?createMidPhaseStructure@BV32TriangleMeshBuilder@physx@@SAXAEBUPxCookingParams@2@AEAVTriangleMeshData@Gu@2@AEAVBV32Tree@52@@Z 00000001800330d0     TriangleMeshBuilder.obj
 0002:000040e0       $unwind$?saveMidPhaseStructure@BV32TriangleMeshBuilder@physx@@SAXPEAVBV32Tree@Gu@2@AEAVPxOutputStream@2@_N@Z 00000001800330e0     TriangleMeshBuilder.obj
 0002:000040f0       $chain$1$?saveMidPhaseStructure@BV32TriangleMeshBuilder@physx@@SAXPEAVBV32Tree@Gu@2@AEAVPxOutputStream@2@_N@Z 00000001800330f0     TriangleMeshBuilder.obj
 0002:00004108       $chain$2$?saveMidPhaseStructure@BV32TriangleMeshBuilder@physx@@SAXPEAVBV32Tree@Gu@2@AEAVPxOutputStream@2@_N@Z 0000000180033108     TriangleMeshBuilder.obj
 0002:00004118       $unwind$?findSharpVertices@GrbTrimeshCookerHelper@physx@@YAXAEAV?$Array@USortedNeighbor@GrbTrimeshCookerHelper@physx@@VNamedAllocator@shdfnd@3@@shdfnd@2@AEAV?$Array@USharpEdgeRange@GrbTrimeshCookerHelper@physx@@VNamedAllocator@shdfnd@3@@42@PEBUuint3@2@PEBUuint4@2@II@Z 0000000180033118     TriangleMeshBuilder.obj
 0002:00004128       $chain$0$?findSharpVertices@GrbTrimeshCookerHelper@physx@@YAXAEAV?$Array@USortedNeighbor@GrbTrimeshCookerHelper@physx@@VNamedAllocator@shdfnd@3@@shdfnd@2@AEAV?$Array@USharpEdgeRange@GrbTrimeshCookerHelper@physx@@VNamedAllocator@shdfnd@3@@42@PEBUuint3@2@PEBUuint4@2@II@Z 0000000180033128     TriangleMeshBuilder.obj
 0002:0000413c       $chain$1$?findSharpVertices@GrbTrimeshCookerHelper@physx@@YAXAEAV?$Array@USortedNeighbor@GrbTrimeshCookerHelper@physx@@VNamedAllocator@shdfnd@3@@shdfnd@2@AEAV?$Array@USharpEdgeRange@GrbTrimeshCookerHelper@physx@@VNamedAllocator@shdfnd@3@@42@PEBUuint3@2@PEBUuint4@2@II@Z 000000018003313c     TriangleMeshBuilder.obj
 0002:00004150       $chain$2$?findSharpVertices@GrbTrimeshCookerHelper@physx@@YAXAEAV?$Array@USortedNeighbor@GrbTrimeshCookerHelper@physx@@VNamedAllocator@shdfnd@3@@shdfnd@2@AEAV?$Array@USharpEdgeRange@GrbTrimeshCookerHelper@physx@@VNamedAllocator@shdfnd@3@@42@PEBUuint3@2@PEBUuint4@2@II@Z 0000000180033150     TriangleMeshBuilder.obj
 0002:00004160       $chain$3$?findSharpVertices@GrbTrimeshCookerHelper@physx@@YAXAEAV?$Array@USortedNeighbor@GrbTrimeshCookerHelper@physx@@VNamedAllocator@shdfnd@3@@shdfnd@2@AEAV?$Array@USharpEdgeRange@GrbTrimeshCookerHelper@physx@@VNamedAllocator@shdfnd@3@@42@PEBUuint3@2@PEBUuint4@2@II@Z 0000000180033160     TriangleMeshBuilder.obj
 0002:00004170       $unwind$?buildVertexConnectionNew_p1@GrbTrimeshCookerHelper@physx@@YAIAEAV?$Array@USortedNeighbor@GrbTrimeshCookerHelper@physx@@VNamedAllocator@shdfnd@3@@shdfnd@2@AEAV?$Array@USharpEdgeRange@GrbTrimeshCookerHelper@physx@@VNamedAllocator@shdfnd@3@@42@PEBUuint3@2@PEBUuint4@2@II@Z 0000000180033170     TriangleMeshBuilder.obj
 0002:00004180       $chain$1$?buildVertexConnectionNew_p1@GrbTrimeshCookerHelper@physx@@YAIAEAV?$Array@USortedNeighbor@GrbTrimeshCookerHelper@physx@@VNamedAllocator@shdfnd@3@@shdfnd@2@AEAV?$Array@USharpEdgeRange@GrbTrimeshCookerHelper@physx@@VNamedAllocator@shdfnd@3@@42@PEBUuint3@2@PEBUuint4@2@II@Z 0000000180033180     TriangleMeshBuilder.obj
 0002:00004198       $chain$2$?buildVertexConnectionNew_p1@GrbTrimeshCookerHelper@physx@@YAIAEAV?$Array@USortedNeighbor@GrbTrimeshCookerHelper@physx@@VNamedAllocator@shdfnd@3@@shdfnd@2@AEAV?$Array@USharpEdgeRange@GrbTrimeshCookerHelper@physx@@VNamedAllocator@shdfnd@3@@42@PEBUuint3@2@PEBUuint4@2@II@Z 0000000180033198     TriangleMeshBuilder.obj
 0002:000041a8       $unwind$?buildVertexConnectionNew_p2@GrbTrimeshCookerHelper@physx@@YAXPEAI00AEAV?$Array@USortedNeighbor@GrbTrimeshCookerHelper@physx@@VNamedAllocator@shdfnd@3@@shdfnd@2@AEAV?$Array@USharpEdgeRange@GrbTrimeshCookerHelper@physx@@VNamedAllocator@shdfnd@3@@42@I@Z 00000001800331a8     TriangleMeshBuilder.obj
 0002:000041b4       $chain$2$?buildVertexConnectionNew_p2@GrbTrimeshCookerHelper@physx@@YAXPEAI00AEAV?$Array@USortedNeighbor@GrbTrimeshCookerHelper@physx@@VNamedAllocator@shdfnd@3@@shdfnd@2@AEAV?$Array@USharpEdgeRange@GrbTrimeshCookerHelper@physx@@VNamedAllocator@shdfnd@3@@42@I@Z 00000001800331b4     TriangleMeshBuilder.obj
 0002:000041d0       $chain$3$?buildVertexConnectionNew_p2@GrbTrimeshCookerHelper@physx@@YAXPEAI00AEAV?$Array@USortedNeighbor@GrbTrimeshCookerHelper@physx@@VNamedAllocator@shdfnd@3@@shdfnd@2@AEAV?$Array@USharpEdgeRange@GrbTrimeshCookerHelper@physx@@VNamedAllocator@shdfnd@3@@42@I@Z 00000001800331d0     TriangleMeshBuilder.obj
 0002:000041e0       $unwind$??_GTriangleMeshBuilder@physx@@UEAAPEAXI@Z 00000001800331e0     TriangleMeshBuilder.obj
 0002:000041ec       $unwind$??_GRTreeTriangleMeshBuilder@physx@@UEAAPEAXI@Z 00000001800331ec     TriangleMeshBuilder.obj
 0002:000041f8       $unwind$??_GBV4TriangleMeshBuilder@physx@@UEAAPEAXI@Z 00000001800331f8     TriangleMeshBuilder.obj
 0002:00004208       $unwind$?findAdjacent@physx@@YAIPEBVPxVec3@1@0PEBUuint3@1@IIIAEBVPxPlane@1@PEAUEdgeTriLookup@1@I@Z 0000000180033208     TriangleMeshBuilder.obj
 0002:0000422c       $unwind$?buildAdjacencies@physx@@YAXPEAUuint4@1@PEAVPxVec3@1@PEBV31@PEBUuint3@1@I@Z 000000018003322c     TriangleMeshBuilder.obj
 0002:00004238       $chain$7$?buildAdjacencies@physx@@YAXPEAUuint4@1@PEAVPxVec3@1@PEBV31@PEBUuint3@1@I@Z 0000000180033238     TriangleMeshBuilder.obj
 0002:00004268       $chain$11$?buildAdjacencies@physx@@YAXPEAUuint4@1@PEAVPxVec3@1@PEBV31@PEBUuint3@1@I@Z 0000000180033268     TriangleMeshBuilder.obj
 0002:00004288       $chain$12$?buildAdjacencies@physx@@YAXPEAUuint4@1@PEAVPxVec3@1@PEBV31@PEBUuint3@1@I@Z 0000000180033288     TriangleMeshBuilder.obj
 0002:00004298       $chain$13$?buildAdjacencies@physx@@YAXPEAUuint4@1@PEAVPxVec3@1@PEBV31@PEBUuint3@1@I@Z 0000000180033298     TriangleMeshBuilder.obj
 0002:000042a8       $unwind$??$sort@UEdgeTriLookup@physx@@@shdfnd@physx@@YAXPEAUEdgeTriLookup@1@I@Z 00000001800332a8     TriangleMeshBuilder.obj
 0002:000042b4       $unwind$?resizeUninitialized@?$Array@USortedNeighbor@GrbTrimeshCookerHelper@physx@@VNamedAllocator@shdfnd@3@@shdfnd@physx@@QEAAXI@Z 00000001800332b4     TriangleMeshBuilder.obj
 0002:000042c0       $unwind$?growAndPushBack@?$Array@USortedNeighbor@GrbTrimeshCookerHelper@physx@@VNamedAllocator@shdfnd@3@@shdfnd@physx@@IEAAAEAUSortedNeighbor@GrbTrimeshCookerHelper@3@AEBU453@@Z 00000001800332c0     TriangleMeshBuilder.obj
 0002:000042d4       $unwind$?recreate@?$Array@USortedNeighbor@GrbTrimeshCookerHelper@physx@@VNamedAllocator@shdfnd@3@@shdfnd@physx@@IEAAXI@Z 00000001800332d4     TriangleMeshBuilder.obj
 0002:000042e8       $unwind$??$sort@USortedNeighbor@GrbTrimeshCookerHelper@physx@@@shdfnd@physx@@YAXPEAUSortedNeighbor@GrbTrimeshCookerHelper@1@I@Z 00000001800332e8     TriangleMeshBuilder.obj
 0002:000042f4       $unwind$?resize@?$Array@USharpEdgeRange@GrbTrimeshCookerHelper@physx@@VNamedAllocator@shdfnd@3@@shdfnd@physx@@QEAAXIAEBUSharpEdgeRange@GrbTrimeshCookerHelper@3@@Z 00000001800332f4     TriangleMeshBuilder.obj
 0002:00004308       $unwind$?recreate@?$Array@USharpEdgeRange@GrbTrimeshCookerHelper@physx@@VNamedAllocator@shdfnd@3@@shdfnd@physx@@IEAAXI@Z 0000000180033308     TriangleMeshBuilder.obj
 0002:00004318       $chain$0$?recreate@?$Array@USharpEdgeRange@GrbTrimeshCookerHelper@physx@@VNamedAllocator@shdfnd@3@@shdfnd@physx@@IEAAXI@Z 0000000180033318     TriangleMeshBuilder.obj
 0002:0000432c       $chain$1$?recreate@?$Array@USharpEdgeRange@GrbTrimeshCookerHelper@physx@@VNamedAllocator@shdfnd@3@@shdfnd@physx@@IEAAXI@Z 000000018003332c     TriangleMeshBuilder.obj
 0002:0000433c       $unwind$??_GRTreeCookerRemap@physx@@UEAAPEAXI@Z 000000018003333c     TriangleMeshBuilder.obj
 0002:00004344       $unwind$??$sort@UEdgeTriLookup@physx@@U?$Less@UEdgeTriLookup@physx@@@shdfnd@2@VNamedAllocator@42@@shdfnd@physx@@YAXPEAUEdgeTriLookup@1@IAEBU?$Less@UEdgeTriLookup@physx@@@01@AEBVNamedAllocator@01@I@Z 0000000180033344     TriangleMeshBuilder.obj
 0002:00004364       $unwind$??$sort@USortedNeighbor@GrbTrimeshCookerHelper@physx@@U?$Less@USortedNeighbor@GrbTrimeshCookerHelper@physx@@@shdfnd@3@VNamedAllocator@53@@shdfnd@physx@@YAXPEAUSortedNeighbor@GrbTrimeshCookerHelper@1@IAEBU?$Less@USortedNeighbor@GrbTrimeshCookerHelper@physx@@@01@AEBVNamedAllocator@01@I@Z 0000000180033364     TriangleMeshBuilder.obj
 0002:00004384       $unwind$?precompute@BigConvexDataBuilder@physx@@QEAA_NI@Z 0000000180033384     BigConvexDataBuilder.obj
 0002:0000439c       $chain$10$?precompute@BigConvexDataBuilder@physx@@QEAA_NI@Z 000000018003339c     BigConvexDataBuilder.obj
 0002:000043d8       $chain$11$?precompute@BigConvexDataBuilder@physx@@QEAA_NI@Z 00000001800333d8     BigConvexDataBuilder.obj
 0002:000043e8       $unwind$?initialize@BigConvexDataBuilder@physx@@QEAA_NXZ 00000001800333e8     BigConvexDataBuilder.obj
 0002:000043f4       $chain$0$?initialize@BigConvexDataBuilder@physx@@QEAA_NXZ 00000001800333f4     BigConvexDataBuilder.obj
 0002:00004408       $chain$1$?initialize@BigConvexDataBuilder@physx@@QEAA_NXZ 0000000180033408     BigConvexDataBuilder.obj
 0002:00004418       $unwind$?save@BigConvexDataBuilder@physx@@QEBA_NAEAVPxOutputStream@2@_N@Z 0000000180033418     BigConvexDataBuilder.obj
 0002:00004428       $chain$0$?save@BigConvexDataBuilder@physx@@QEBA_NAEAVPxOutputStream@2@_N@Z 0000000180033428     BigConvexDataBuilder.obj
 0002:0000443c       $chain$1$?save@BigConvexDataBuilder@physx@@QEBA_NAEAVPxOutputStream@2@_N@Z 000000018003343c     BigConvexDataBuilder.obj
 0002:00004450       $chain$2$?save@BigConvexDataBuilder@physx@@QEBA_NAEAVPxOutputStream@2@_N@Z 0000000180033450     BigConvexDataBuilder.obj
 0002:00004460       $chain$3$?save@BigConvexDataBuilder@physx@@QEBA_NAEAVPxOutputStream@2@_N@Z 0000000180033460     BigConvexDataBuilder.obj
 0002:00004470       $unwind$?computeValencies@BigConvexDataBuilder@physx@@QEAA_NAEBVConvexHullBuilder@2@@Z 0000000180033470     BigConvexDataBuilder.obj
 0002:00004484       $chain$2$?computeValencies@BigConvexDataBuilder@physx@@QEAA_NAEBVConvexHullBuilder@2@@Z 0000000180033484     BigConvexDataBuilder.obj
 0002:000044a0       $chain$3$?computeValencies@BigConvexDataBuilder@physx@@QEAA_NAEBVConvexHullBuilder@2@@Z 00000001800334a0     BigConvexDataBuilder.obj
 0002:000044b0       $unwind$?saveValencies@BigConvexDataBuilder@physx@@QEBA_NAEAVPxOutputStream@2@_N@Z 00000001800334b0     BigConvexDataBuilder.obj
 0002:000044bc       $chain$1$?saveValencies@BigConvexDataBuilder@physx@@QEBA_NAEAVPxOutputStream@2@_N@Z 00000001800334bc     BigConvexDataBuilder.obj
 0002:000044d4       $chain$2$?saveValencies@BigConvexDataBuilder@physx@@QEBA_NAEAVPxOutputStream@2@_N@Z 00000001800334d4     BigConvexDataBuilder.obj
 0002:000044e8       $chain$3$?saveValencies@BigConvexDataBuilder@physx@@QEBA_NAEAVPxOutputStream@2@_N@Z 00000001800334e8     BigConvexDataBuilder.obj
 0002:000044f8       $chain$4$?saveValencies@BigConvexDataBuilder@physx@@QEBA_NAEAVPxOutputStream@2@_N@Z 00000001800334f8     BigConvexDataBuilder.obj
 0002:0000450c       $unwind$??1ConvexHullBuilder@physx@@QEAA@XZ 000000018003350c     ConvexHullBuilder.obj
 0002:0000451c       $unwind$?init@ConvexHullBuilder@physx@@QEAA_NIPEBVPxVec3@2@PEBIIIPEBUPxHullPolygon@2@_NPEAVConvexHullLib@2@@Z 000000018003351c     ConvexHullBuilder.obj
 0002:00004534       $chain$0$?init@ConvexHullBuilder@physx@@QEAA_NIPEBVPxVec3@2@PEBIIIPEBUPxHullPolygon@2@_NPEAVConvexHullLib@2@@Z 0000000180033534     ConvexHullBuilder.obj
 0002:00004548       $chain$2$?init@ConvexHullBuilder@physx@@QEAA_NIPEBVPxVec3@2@PEBIIIPEBUPxHullPolygon@2@_NPEAVConvexHullLib@2@@Z 0000000180033548     ConvexHullBuilder.obj
 0002:00004560       $chain$3$?init@ConvexHullBuilder@physx@@QEAA_NIPEBVPxVec3@2@PEBIIIPEBUPxHullPolygon@2@_NPEAVConvexHullLib@2@@Z 0000000180033560     ConvexHullBuilder.obj
 0002:00004570       $chain$4$?init@ConvexHullBuilder@physx@@QEAA_NIPEBVPxVec3@2@PEBIIIPEBUPxHullPolygon@2@_NPEAVConvexHullLib@2@@Z 0000000180033570     ConvexHullBuilder.obj
 0002:00004580       $unwind$?save@ConvexHullBuilder@physx@@QEBA_NAEAVPxOutputStream@2@_N@Z 0000000180033580     ConvexHullBuilder.obj
 0002:00004590       $chain$0$?save@ConvexHullBuilder@physx@@QEBA_NAEAVPxOutputStream@2@_N@Z 0000000180033590     ConvexHullBuilder.obj
 0002:000045a4       $chain$3$?save@ConvexHullBuilder@physx@@QEBA_NAEAVPxOutputStream@2@_N@Z 00000001800335a4     ConvexHullBuilder.obj
 0002:000045c0       $chain$4$?save@ConvexHullBuilder@physx@@QEBA_NAEAVPxOutputStream@2@_N@Z 00000001800335c0     ConvexHullBuilder.obj
 0002:000045d4       $chain$5$?save@ConvexHullBuilder@physx@@QEBA_NAEAVPxOutputStream@2@_N@Z 00000001800335d4     ConvexHullBuilder.obj
 0002:000045e4       $unwind$?copy@ConvexHullBuilder@physx@@QEAA_NAEAUConvexHullData@Gu@2@AEAI@Z 00000001800335e4     ConvexHullBuilder.obj
 0002:00004600       $unwind$?createEdgeList@ConvexHullBuilder@physx@@QEAA_N_NI@Z 0000000180033600     ConvexHullBuilder.obj
 0002:00004610       $chain$4$?createEdgeList@ConvexHullBuilder@physx@@QEAA_N_NI@Z 0000000180033610     ConvexHullBuilder.obj
 0002:00004634       $chain$6$?createEdgeList@ConvexHullBuilder@physx@@QEAA_N_NI@Z 0000000180033634     ConvexHullBuilder.obj
 0002:00004658       $unwind$?checkHullPolygons@ConvexHullBuilder@physx@@QEBA_NXZ 0000000180033658     ConvexHullBuilder.obj
 0002:00004664       $chain$14$?checkHullPolygons@ConvexHullBuilder@physx@@QEBA_NXZ 0000000180033664     ConvexHullBuilder.obj
 0002:000046b0       $chain$16$?checkHullPolygons@ConvexHullBuilder@physx@@QEBA_NXZ 00000001800336b0     ConvexHullBuilder.obj
 0002:000046fc       $chain$17$?checkHullPolygons@ConvexHullBuilder@physx@@QEBA_NXZ 00000001800336fc     ConvexHullBuilder.obj
 0002:0000470c       $unwind$?calculateVertexMapTable@ConvexHullBuilder@physx@@QEAA_NI_N@Z 000000018003370c     ConvexHullBuilder.obj
 0002:00004728       $unwind$?computeGeomCenter@ConvexHullBuilder@physx@@IEBA_NAEAVPxVec3@2@IPEAUHullTriangleData@2@@Z 0000000180033728     ConvexHullBuilder.obj
 0002:00004730       $chain$1$?computeGeomCenter@ConvexHullBuilder@physx@@IEBA_NAEAVPxVec3@2@IPEAUHullTriangleData@2@@Z 0000000180033730     ConvexHullBuilder.obj
 0002:00004748       $chain$10$?computeGeomCenter@ConvexHullBuilder@physx@@IEBA_NAEAVPxVec3@2@IPEAUHullTriangleData@2@@Z 0000000180033748     ConvexHullBuilder.obj
 0002:0000477c       $chain$11$?computeGeomCenter@ConvexHullBuilder@physx@@IEBA_NAEAVPxVec3@2@IPEAUHullTriangleData@2@@Z 000000018003377c     ConvexHullBuilder.obj
 0002:0000478c       $chain$12$?computeGeomCenter@ConvexHullBuilder@physx@@IEBA_NAEAVPxVec3@2@IPEAUHullTriangleData@2@@Z 000000018003378c     ConvexHullBuilder.obj
 0002:0000479c       $unwind$??$?_UE@@YAPEAX_KV?$ReflectionAllocator@E@shdfnd@physx@@PEBDH@Z 000000018003379c     ConvexHullBuilder.obj
 0002:000047ac       $chain$0$??$?_UE@@YAPEAX_KV?$ReflectionAllocator@E@shdfnd@physx@@PEBDH@Z 00000001800337ac     ConvexHullBuilder.obj
 0002:000047c0       $chain$1$??$?_UE@@YAPEAX_KV?$ReflectionAllocator@E@shdfnd@physx@@PEBDH@Z 00000001800337c0     ConvexHullBuilder.obj
 0002:000047d0       $unwind$??1ConvexHullLib@physx@@UEAA@XZ 00000001800337d0     ConvexHullLib.obj
 0002:000047dc       $unwind$?cleanupVertices@ConvexHullLib@physx@@IEAA_NIPEBVPxVec3@2@IAEAIPEAV32@AEAV32@3@Z 00000001800337dc     ConvexHullLib.obj
 0002:00004804       $chain$6$?cleanupVertices@ConvexHullLib@physx@@IEAA_NIPEBVPxVec3@2@IAEAIPEAV32@AEAV32@3@Z 0000000180033804     ConvexHullLib.obj
 0002:0000481c       $chain$12$?cleanupVertices@ConvexHullLib@physx@@IEAA_NIPEBVPxVec3@2@IAEAIPEAV32@AEAV32@3@Z 000000018003381c     ConvexHullLib.obj
 0002:00004844       $chain$13$?cleanupVertices@ConvexHullLib@physx@@IEAA_NIPEBVPxVec3@2@IAEAIPEAV32@AEAV32@3@Z 0000000180033844     ConvexHullLib.obj
 0002:00004854       $chain$14$?cleanupVertices@ConvexHullLib@physx@@IEAA_NIPEBVPxVec3@2@IAEAIPEAV32@AEAV32@3@Z 0000000180033854     ConvexHullLib.obj
 0002:00004864       $unwind$?shiftAndcleanupVertices@ConvexHullLib@physx@@IEAA_NIPEBVPxVec3@2@IAEAIPEAV32@AEAV32@3@Z 0000000180033864     ConvexHullLib.obj
 0002:00004874       $chain$7$?shiftAndcleanupVertices@ConvexHullLib@physx@@IEAA_NIPEBVPxVec3@2@IAEAIPEAV32@AEAV32@3@Z 0000000180033874     ConvexHullLib.obj
 0002:000048a4       $chain$8$?shiftAndcleanupVertices@ConvexHullLib@physx@@IEAA_NIPEBVPxVec3@2@IAEAIPEAV32@AEAV32@3@Z 00000001800338a4     ConvexHullLib.obj
 0002:000048cc       $chain$12$?shiftAndcleanupVertices@ConvexHullLib@physx@@IEAA_NIPEBVPxVec3@2@IAEAIPEAV32@AEAV32@3@Z 00000001800338cc     ConvexHullLib.obj
 0002:000048ec       $chain$13$?shiftAndcleanupVertices@ConvexHullLib@physx@@IEAA_NIPEBVPxVec3@2@IAEAIPEAV32@AEAV32@3@Z 00000001800338ec     ConvexHullLib.obj
 0002:000048fc       $chain$14$?shiftAndcleanupVertices@ConvexHullLib@physx@@IEAA_NIPEBVPxVec3@2@IAEAIPEAV32@AEAV32@3@Z 00000001800338fc     ConvexHullLib.obj
 0002:0000490c       $unwind$?swapLargestFace@ConvexHullLib@physx@@IEAAXAEAVPxConvexMeshDesc@2@@Z 000000018003390c     ConvexHullLib.obj
 0002:0000491c       $chain$1$?swapLargestFace@ConvexHullLib@physx@@IEAAXAEAVPxConvexMeshDesc@2@@Z 000000018003391c     ConvexHullLib.obj
 0002:00004934       $chain$2$?swapLargestFace@ConvexHullLib@physx@@IEAAXAEAVPxConvexMeshDesc@2@@Z 0000000180033934     ConvexHullLib.obj
 0002:00004948       $chain$3$?swapLargestFace@ConvexHullLib@physx@@IEAAXAEAVPxConvexMeshDesc@2@@Z 0000000180033948     ConvexHullLib.obj
 0002:00004958       $chain$4$?swapLargestFace@ConvexHullLib@physx@@IEAAXAEAVPxConvexMeshDesc@2@@Z 0000000180033958     ConvexHullLib.obj
 0002:00004968       $unwind$??_GConvexHullLib@physx@@UEAAPEAXI@Z 0000000180033968     ConvexHullLib.obj
 0002:00004978       $unwind$?checkPointsAABBValidity@local@@YA_NIPEBVPxVec3@physx@@IMMAEAV23@1AEAIPEAV23@_N@Z 0000000180033978     ConvexHullLib.obj
 0002:00004998       $chain$3$?checkPointsAABBValidity@local@@YA_NIPEBVPxVec3@physx@@IMMAEAV23@1AEAIPEAV23@_N@Z 0000000180033998     ConvexHullLib.obj
 0002:000049b8       $chain$4$?checkPointsAABBValidity@local@@YA_NIPEBVPxVec3@physx@@IMMAEAV23@1AEAIPEAV23@_N@Z 00000001800339b8     ConvexHullLib.obj
 0002:000049cc       $chain$5$?checkPointsAABBValidity@local@@YA_NIPEBVPxVec3@physx@@IMMAEAV23@1AEAIPEAV23@_N@Z 00000001800339cc     ConvexHullLib.obj
 0002:000049dc       $chain$6$?checkPointsAABBValidity@local@@YA_NIPEBVPxVec3@physx@@IMMAEAV23@1AEAIPEAV23@_N@Z 00000001800339dc     ConvexHullLib.obj
 0002:000049ec       $unwind$??0PxQuat@physx@@QEAA@AEBVPxMat33@1@@Z 00000001800339ec     ConvexHullUtils.obj
 0002:000049f8       $unwind$?getInverse@PxMat33@physx@@QEBA?BV12@XZ 00000001800339f8     ConvexHullUtils.obj
 0002:00004a18       $chain$1$?getInverse@PxMat33@physx@@QEBA?BV12@XZ 0000000180033a18     ConvexHullUtils.obj
 0002:00004a30       $chain$2$?getInverse@PxMat33@physx@@QEBA?BV12@XZ 0000000180033a30     ConvexHullUtils.obj
 0002:00004a40       $unwind$??0ConvexHull@physx@@QEAA@AEBVPxVec3@1@0AEBV?$Array@VPxPlane@physx@@VNamedAllocator@shdfnd@2@@shdfnd@1@@Z 0000000180033a40     ConvexHullUtils.obj
 0002:00004a5c       $unwind$??0ConvexHull@physx@@QEAA@AEBVPxVec3@1@AEBVPxTransform@1@AEBV?$Array@VPxPlane@physx@@VNamedAllocator@shdfnd@2@@shdfnd@1@@Z 0000000180033a5c     ConvexHullUtils.obj
 0002:00004a9c       $unwind$?findCandidatePlane@ConvexHull@physx@@QEBAHMM@Z 0000000180033a9c     ConvexHullUtils.obj
 0002:00004ab8       $chain$10$?findCandidatePlane@ConvexHull@physx@@QEBAHMM@Z 0000000180033ab8     ConvexHullUtils.obj
 0002:00004af4       $chain$11$?findCandidatePlane@ConvexHull@physx@@QEBAHMM@Z 0000000180033af4     ConvexHullUtils.obj
 0002:00004b04       $chain$12$?findCandidatePlane@ConvexHull@physx@@QEBAHMM@Z 0000000180033b04     ConvexHullUtils.obj
 0002:00004b40       $unwind$?assertIntact@ConvexHull@physx@@QEBA_NM@Z 0000000180033b40     ConvexHullUtils.obj
 0002:00004b84       $unwind$?maxNumVertsPerFace@ConvexHull@physx@@QEBAIXZ 0000000180033b84     ConvexHullUtils.obj
 0002:00004b90       $chain$0$?maxNumVertsPerFace@ConvexHull@physx@@QEBAIXZ 0000000180033b90     ConvexHullUtils.obj
 0002:00004ba4       $chain$1$?maxNumVertsPerFace@ConvexHull@physx@@QEBAIXZ 0000000180033ba4     ConvexHullUtils.obj
 0002:00004bb4       $unwind$?convexHullCrop@physx@@YAPEAVConvexHull@1@AEBV21@AEBVPxPlane@1@M@Z 0000000180033bb4     ConvexHullUtils.obj
 0002:00004bc0       $chain$6$?convexHullCrop@physx@@YAPEAVConvexHull@1@AEBV21@AEBVPxPlane@1@M@Z 0000000180033bc0     ConvexHullUtils.obj
 0002:00004bec       $chain$7$?convexHullCrop@physx@@YAPEAVConvexHull@1@AEBV21@AEBVPxPlane@1@M@Z 0000000180033bec     ConvexHullUtils.obj
 0002:00004c00       $chain$9$?convexHullCrop@physx@@YAPEAVConvexHull@1@AEBV21@AEBVPxPlane@1@M@Z 0000000180033c00     ConvexHullUtils.obj
 0002:00004c14       $chain$10$?convexHullCrop@physx@@YAPEAVConvexHull@1@AEBV21@AEBVPxPlane@1@M@Z 0000000180033c14     ConvexHullUtils.obj
 0002:00004c28       $chain$11$?convexHullCrop@physx@@YAPEAVConvexHull@1@AEBV21@AEBVPxPlane@1@M@Z 0000000180033c28     ConvexHullUtils.obj
 0002:00004c3c       $chain$12$?convexHullCrop@physx@@YAPEAVConvexHull@1@AEBV21@AEBVPxPlane@1@M@Z 0000000180033c3c     ConvexHullUtils.obj
 0002:00004c4c       $unwind$?computeOBBFromConvex@physx@@YA_NAEBVPxConvexMeshDesc@1@AEAVPxVec3@1@AEAVPxTransform@1@@Z 0000000180033c4c     ConvexHullUtils.obj
 0002:00004c70       $chain$4$?computeOBBFromConvex@physx@@YA_NAEBVPxConvexMeshDesc@1@AEAVPxVec3@1@AEAVPxTransform@1@@Z 0000000180033c70     ConvexHullUtils.obj
 0002:00004c94       $chain$5$?computeOBBFromConvex@physx@@YA_NAEBVPxConvexMeshDesc@1@AEAVPxVec3@1@AEAVPxTransform@1@@Z 0000000180033c94     ConvexHullUtils.obj
 0002:00004ca4       $unwind$?computeOBBSIMD@local@@YAXIPEBT__m128@@AEAT2@AEBT2@1@Z 0000000180033ca4     ConvexHullUtils.obj
 0002:00004cb8       $chain$5$?computeOBBSIMD@local@@YAXIPEBT__m128@@AEAT2@AEBT2@1@Z 0000000180033cb8     ConvexHullUtils.obj
 0002:00004ce0       $chain$6$?computeOBBSIMD@local@@YAXIPEBT__m128@@AEAT2@AEBT2@1@Z 0000000180033ce0     ConvexHullUtils.obj
 0002:00004cf0       $unwind$?resize@?$Array@VPxVec3@physx@@VNamedAllocator@shdfnd@2@@shdfnd@physx@@QEAAXIAEBVPxVec3@3@@Z 0000000180033cf0     ConvexHullUtils.obj
 0002:00004d00       $unwind$?resize@?$Array@VHalfEdge@ConvexHull@physx@@VNamedAllocator@shdfnd@3@@shdfnd@physx@@QEAAXIAEBVHalfEdge@ConvexHull@3@@Z 0000000180033d00     ConvexHullUtils.obj
 0002:00004d14       $unwind$?growAndPushBack@?$Array@VHalfEdge@ConvexHull@physx@@VNamedAllocator@shdfnd@3@@shdfnd@physx@@IEAAAEAVHalfEdge@ConvexHull@3@AEBV453@@Z 0000000180033d14     ConvexHullUtils.obj
 0002:00004d28       $unwind$?recreate@?$Array@VHalfEdge@ConvexHull@physx@@VNamedAllocator@shdfnd@3@@shdfnd@physx@@IEAAXI@Z 0000000180033d28     ConvexHullUtils.obj
 0002:00004d38       $chain$0$?recreate@?$Array@VHalfEdge@ConvexHull@physx@@VNamedAllocator@shdfnd@3@@shdfnd@physx@@IEAAXI@Z 0000000180033d38     ConvexHullUtils.obj
 0002:00004d4c       $chain$1$?recreate@?$Array@VHalfEdge@ConvexHull@physx@@VNamedAllocator@shdfnd@3@@shdfnd@physx@@IEAAXI@Z 0000000180033d4c     ConvexHullUtils.obj
 0002:00004d5c       $unwind$?resize@?$Array@VPxPlane@physx@@VNamedAllocator@shdfnd@2@@shdfnd@physx@@QEAAXIAEBVPxPlane@3@@Z 0000000180033d5c     ConvexHullUtils.obj
 0002:00004d6c       $unwind$?growAndPushBack@?$Array@VPxPlane@physx@@VNamedAllocator@shdfnd@2@@shdfnd@physx@@IEAAAEAVPxPlane@3@AEBV43@@Z 0000000180033d6c     ConvexHullUtils.obj
 0002:00004d78       $chain$0$?growAndPushBack@?$Array@VPxPlane@physx@@VNamedAllocator@shdfnd@2@@shdfnd@physx@@IEAAAEAVPxPlane@3@AEBV43@@Z 0000000180033d78     ConvexHullUtils.obj
 0002:00004d8c       $chain$1$?growAndPushBack@?$Array@VPxPlane@physx@@VNamedAllocator@shdfnd@2@@shdfnd@physx@@IEAAAEAVPxPlane@3@AEBV43@@Z 0000000180033d8c     ConvexHullUtils.obj
 0002:00004da0       $chain$2$?growAndPushBack@?$Array@VPxPlane@physx@@VNamedAllocator@shdfnd@2@@shdfnd@physx@@IEAAAEAVPxPlane@3@AEBV43@@Z 0000000180033da0     ConvexHullUtils.obj
 0002:00004db0       $chain$3$?growAndPushBack@?$Array@VPxPlane@physx@@VNamedAllocator@shdfnd@2@@shdfnd@physx@@IEAAAEAVPxPlane@3@AEBV43@@Z 0000000180033db0     ConvexHullUtils.obj
 0002:00004dc0       $unwind$?recreate@?$Array@VPxPlane@physx@@VNamedAllocator@shdfnd@2@@shdfnd@physx@@IEAAXI@Z 0000000180033dc0     ConvexHullUtils.obj
 0002:00004dd0       $chain$0$?recreate@?$Array@VPxPlane@physx@@VNamedAllocator@shdfnd@2@@shdfnd@physx@@IEAAXI@Z 0000000180033dd0     ConvexHullUtils.obj
 0002:00004de4       $chain$1$?recreate@?$Array@VPxPlane@physx@@VNamedAllocator@shdfnd@2@@shdfnd@physx@@IEAAXI@Z 0000000180033de4     ConvexHullUtils.obj
 0002:00004df4       $unwind$?rotate@Box@Gu@physx@@QEBA?AVPxVec3@3@AEBV43@@Z 0000000180033df4     ConvexHullUtils.obj
 0002:00004e00       $unwind$?rotateInv@Box@Gu@physx@@QEBA?AVPxVec3@3@AEBV43@@Z 0000000180033e00     ConvexHullUtils.obj
 0002:00004e0c       $unwind$?transform@Box@Gu@physx@@QEBA?AVPxVec3@3@AEBV43@@Z 0000000180033e0c     ConvexHullUtils.obj
 0002:00004e18       $unwind$?getTransform@Box@Gu@physx@@QEBA?AVPxTransform@3@XZ 0000000180033e18     ConvexHullUtils.obj
 0002:00004e24       $unwind$?computeAABBExtent@Box@Gu@physx@@QEBA?AVPxVec3@3@XZ 0000000180033e24     ConvexHullUtils.obj
 0002:00004e30       $unwind$?computeBoxPoints@Box@Gu@physx@@QEBAXPEIAVPxVec3@3@@Z 0000000180033e30     ConvexHullUtils.obj
 0002:00004e38       $unwind$?isFinite@PxVec3@physx@@QEBA_NXZ 0000000180033e38     ConvexMeshBuilder.obj
 0002:00004e40       $unwind$??0ConvexMeshBuilder@physx@@QEAA@_N@Z 0000000180033e40     ConvexMeshBuilder.obj
 0002:00004e48       $unwind$??1ConvexMeshBuilder@physx@@QEAA@XZ 0000000180033e48     ConvexMeshBuilder.obj
 0002:00004e54       $unwind$?build@ConvexMeshBuilder@physx@@QEAA_NAEBVPxConvexMeshDesc@2@I_NPEAVConvexHullLib@2@@Z 0000000180033e54     ConvexMeshBuilder.obj
 0002:00004e64       $chain$0$?build@ConvexMeshBuilder@physx@@QEAA_NAEBVPxConvexMeshDesc@2@I_NPEAVConvexHullLib@2@@Z 0000000180033e64     ConvexMeshBuilder.obj
 0002:00004e78       $chain$2$?build@ConvexMeshBuilder@physx@@QEAA_NAEBVPxConvexMeshDesc@2@I_NPEAVConvexHullLib@2@@Z 0000000180033e78     ConvexMeshBuilder.obj
 0002:00004e90       $chain$3$?build@ConvexMeshBuilder@physx@@QEAA_NAEBVPxConvexMeshDesc@2@I_NPEAVConvexHullLib@2@@Z 0000000180033e90     ConvexMeshBuilder.obj
 0002:00004ea0       $chain$4$?build@ConvexMeshBuilder@physx@@QEAA_NAEBVPxConvexMeshDesc@2@I_NPEAVConvexHullLib@2@@Z 0000000180033ea0     ConvexMeshBuilder.obj
 0002:00004eb0       $unwind$?save@ConvexMeshBuilder@physx@@QEBA_NAEAVPxOutputStream@2@_N@Z 0000000180033eb0     ConvexMeshBuilder.obj
 0002:00004ec0       $chain$0$?save@ConvexMeshBuilder@physx@@QEBA_NAEAVPxOutputStream@2@_N@Z 0000000180033ec0     ConvexMeshBuilder.obj
 0002:00004ed4       $chain$1$?save@ConvexMeshBuilder@physx@@QEBA_NAEAVPxOutputStream@2@_N@Z 0000000180033ed4     ConvexMeshBuilder.obj
 0002:00004ee4       $unwind$?copy@ConvexMeshBuilder@physx@@QEAA_NAEAUConvexHullData@Gu@2@AEAI@Z 0000000180033ee4     ConvexMeshBuilder.obj
 0002:00004ef0       $unwind$?loadConvexHull@ConvexMeshBuilder@physx@@QEAA_NAEBVPxConvexMeshDesc@2@PEAVConvexHullLib@2@@Z 0000000180033ef0     ConvexMeshBuilder.obj
 0002:00004f10       $unwind$?computeHullPolygons@ConvexMeshBuilder@physx@@QEAA_NAEBIPEBVPxVec3@2@0PEBIAEAVPxAllocatorCallback@2@AEAIAEAPEAV32@4AEAPEAI4AEAPEAUPxHullPolygon@2@@Z 0000000180033f10     ConvexMeshBuilder.obj
 0002:00004f1c       $chain$3$?computeHullPolygons@ConvexMeshBuilder@physx@@QEAA_NAEBIPEBVPxVec3@2@0PEBIAEAVPxAllocatorCallback@2@AEAIAEAPEAV32@4AEAPEAI4AEAPEAUPxHullPolygon@2@@Z 0000000180033f1c     ConvexMeshBuilder.obj
 0002:00004f38       $chain$4$?computeHullPolygons@ConvexMeshBuilder@physx@@QEAA_NAEBIPEBVPxVec3@2@0PEBIAEAVPxAllocatorCallback@2@AEAIAEAPEAV32@4AEAPEAI4AEAPEAUPxHullPolygon@2@@Z 0000000180033f38     ConvexMeshBuilder.obj
 0002:00004f4c       $unwind$?computeGaussMaps@ConvexMeshBuilder@physx@@QEAA_NXZ 0000000180033f4c     ConvexMeshBuilder.obj
 0002:00004f58       $unwind$?computeMassInfo@ConvexMeshBuilder@physx@@QEAAX_N@Z 0000000180033f58     ConvexMeshBuilder.obj
 0002:00004f68       $chain$0$?computeMassInfo@ConvexMeshBuilder@physx@@QEAAX_N@Z 0000000180033f68     ConvexMeshBuilder.obj
 0002:00004f7c       $chain$1$?computeMassInfo@ConvexMeshBuilder@physx@@QEAAX_N@Z 0000000180033f7c     ConvexMeshBuilder.obj
 0002:00004f90       $chain$5$?computeMassInfo@ConvexMeshBuilder@physx@@QEAAX_N@Z 0000000180033f90     ConvexMeshBuilder.obj
 0002:00004fb0       $chain$6$?computeMassInfo@ConvexMeshBuilder@physx@@QEAAX_N@Z 0000000180033fb0     ConvexMeshBuilder.obj
 0002:00004fc0       $chain$7$?computeMassInfo@ConvexMeshBuilder@physx@@QEAAX_N@Z 0000000180033fc0     ConvexMeshBuilder.obj
 0002:00004fd0       $chain$8$?computeMassInfo@ConvexMeshBuilder@physx@@QEAAX_N@Z 0000000180033fd0     ConvexMeshBuilder.obj
 0002:00004fe0       $unwind$?ComputeInternalExtent@@YAXAEAUConvexHullData@Gu@physx@@PEBUHullPolygonData@23@@Z 0000000180033fe0     ConvexMeshBuilder.obj
 0002:0000500c       $chain$0$?ComputeInternalExtent@@YAXAEAUConvexHullData@Gu@physx@@PEBUHullPolygonData@23@@Z 000000018003400c     ConvexMeshBuilder.obj
 0002:00005020       $chain$1$?ComputeInternalExtent@@YAXAEAUConvexHullData@Gu@physx@@PEBUHullPolygonData@23@@Z 0000000180034020     ConvexMeshBuilder.obj
 0002:00005030       $unwind$??0ConvexPolygonsBuilder@physx@@QEAA@PEAUConvexHullData@Gu@1@_N@Z 0000000180034030     ConvexPolygonsBuilder.obj
 0002:00005038       $unwind$??1ConvexPolygonsBuilder@physx@@QEAA@XZ 0000000180034038     ConvexPolygonsBuilder.obj
 0002:00005044       $unwind$?computeHullPolygons@ConvexPolygonsBuilder@physx@@QEAA_NAEBIPEBVPxVec3@2@0PEBI@Z 0000000180034044     ConvexPolygonsBuilder.obj
 0002:0000505c       $unwind$?createPolygonData@ConvexPolygonsBuilder@physx@@AEAA_NXZ 000000018003405c     ConvexPolygonsBuilder.obj
 0002:00005068       $chain$7$?createPolygonData@ConvexPolygonsBuilder@physx@@AEAA_NXZ 0000000180034068     ConvexPolygonsBuilder.obj
 0002:00005098       $chain$8$?createPolygonData@ConvexPolygonsBuilder@physx@@AEAA_NXZ 0000000180034098     ConvexPolygonsBuilder.obj
 0002:000050a8       $chain$9$?createPolygonData@ConvexPolygonsBuilder@physx@@AEAA_NXZ 00000001800340a8     ConvexPolygonsBuilder.obj
 0002:000050d8       $chain$17$?createPolygonData@ConvexPolygonsBuilder@physx@@AEAA_NXZ 00000001800340d8     ConvexPolygonsBuilder.obj
 0002:00005108       $chain$18$?createPolygonData@ConvexPolygonsBuilder@physx@@AEAA_NXZ 0000000180034108     ConvexPolygonsBuilder.obj
 0002:00005118       $unwind$?createTrianglesFromPolygons@ConvexPolygonsBuilder@physx@@AEAA_NXZ 0000000180034118     ConvexPolygonsBuilder.obj
 0002:0000513c       $chain$3$?createTrianglesFromPolygons@ConvexPolygonsBuilder@physx@@AEAA_NXZ 000000018003413c     ConvexPolygonsBuilder.obj
 0002:0000515c       $chain$4$?createTrianglesFromPolygons@ConvexPolygonsBuilder@physx@@AEAA_NXZ 000000018003415c     ConvexPolygonsBuilder.obj
 0002:0000516c       $unwind$?findLineStrip@@YA_NAEAV?$Array@IVNamedAllocator@shdfnd@physx@@@shdfnd@physx@@AEBV?$Array@VPair@@VNamedAllocator@shdfnd@physx@@@23@@Z 000000018003416c     ConvexPolygonsBuilder.obj
 0002:00005184       $unwind$?growAndPushBack@?$Array@VPair@@VNamedAllocator@shdfnd@physx@@@shdfnd@physx@@IEAAAEAVPair@@AEBV4@@Z 0000000180034184     ConvexPolygonsBuilder.obj
 0002:00005198       $unwind$?TestDuplicateTriangles@@YA_NAEAIPEAU?$TriangleT@I@Gu@physx@@_N@Z 0000000180034198     ConvexPolygonsBuilder.obj
 0002:000051b4       $unwind$?TestUnifiedNormals@@YA_NIPEBVPxVec3@physx@@IPEAU?$TriangleT@I@Gu@2@_N@Z 00000001800341b4     ConvexPolygonsBuilder.obj
 0002:000051c4       $chain$10$?TestUnifiedNormals@@YA_NIPEBVPxVec3@physx@@IPEAU?$TriangleT@I@Gu@2@_N@Z 00000001800341c4     ConvexPolygonsBuilder.obj
 0002:00005200       $chain$12$?TestUnifiedNormals@@YA_NIPEBVPxVec3@physx@@IPEAU?$TriangleT@I@Gu@2@_N@Z 0000000180034200     ConvexPolygonsBuilder.obj
 0002:00005218       $chain$13$?TestUnifiedNormals@@YA_NIPEBVPxVec3@physx@@IPEAU?$TriangleT@I@Gu@2@_N@Z 0000000180034218     ConvexPolygonsBuilder.obj
 0002:00005228       $chain$14$?TestUnifiedNormals@@YA_NIPEBVPxVec3@physx@@IPEAU?$TriangleT@I@Gu@2@_N@Z 0000000180034228     ConvexPolygonsBuilder.obj
 0002:00005238       $unwind$?checkRedundantVertices@@YAXAEAIAEAV?$Array@IVNamedAllocator@shdfnd@physx@@@shdfnd@physx@@AEBVConvexPolygonsBuilder@3@11@Z 0000000180034238     ConvexPolygonsBuilder.obj
 0002:00005254       $unwind$?extractHullPolygons@@YA_NAEAIAEAV?$Array@IVNamedAllocator@shdfnd@physx@@@shdfnd@physx@@AEBVConvexPolygonsBuilder@3@PEAV123@1@Z 0000000180034254     ConvexPolygonsBuilder.obj
 0002:00005270       $unwind$?FloodFill@Local@?7??extractHullPolygons@@YA_NAEAIAEAV?$Array@IVNamedAllocator@shdfnd@physx@@@shdfnd@physx@@AEBVConvexPolygonsBuilder@5@PEAV345@1@Z@SAX1PEBVAdjTriangle@5@IPEA_N@Z 0000000180034270     ConvexPolygonsBuilder.obj
 0002:00005280       $chain$0$?FloodFill@Local@?7??extractHullPolygons@@YA_NAEAIAEAV?$Array@IVNamedAllocator@shdfnd@physx@@@shdfnd@physx@@AEBVConvexPolygonsBuilder@5@PEAV345@1@Z@SAX1PEBVAdjTriangle@5@IPEA_N@Z 0000000180034280     ConvexPolygonsBuilder.obj
 0002:00005294       $chain$1$?FloodFill@Local@?7??extractHullPolygons@@YA_NAEAIAEAV?$Array@IVNamedAllocator@shdfnd@physx@@@shdfnd@physx@@AEBVConvexPolygonsBuilder@5@PEAV345@1@Z@SAX1PEBVAdjTriangle@5@IPEA_N@Z 0000000180034294     ConvexPolygonsBuilder.obj
 0002:000052a4       $unwind$?CheckFloodFillFace@Local@?7??extractHullPolygons@@YA_NAEAIAEAV?$Array@IVNamedAllocator@shdfnd@physx@@@shdfnd@physx@@AEBVConvexPolygonsBuilder@5@PEAV345@1@Z@SA_NIPEBVAdjTriangle@5@PEBI@Z 00000001800342a4     ConvexPolygonsBuilder.obj
 0002:000052bc       $unwind$??$copy@VNamedAllocator@shdfnd@physx@@@?$Array@VPair@@VNamedAllocator@shdfnd@physx@@@shdfnd@physx@@IEAAXAEBV012@@Z 00000001800342bc     ConvexPolygonsBuilder.obj
 0002:000052c8       $chain$0$??$copy@VNamedAllocator@shdfnd@physx@@@?$Array@VPair@@VNamedAllocator@shdfnd@physx@@@shdfnd@physx@@IEAAXAEBV012@@Z 00000001800342c8     ConvexPolygonsBuilder.obj
 0002:000052dc       $chain$1$??$copy@VNamedAllocator@shdfnd@physx@@@?$Array@VPair@@VNamedAllocator@shdfnd@physx@@@shdfnd@physx@@IEAAXAEBV012@@Z 00000001800342dc     ConvexPolygonsBuilder.obj
 0002:000052ec       $unwind$??__G@YAXPEAX0_K1P6APEAX00@Z@Z 00000001800342ec     QuickHullConvexHullLib.obj
 0002:00005300       $chain$0$??__G@YAXPEAX0_K1P6APEAX00@Z@Z 0000000180034300     QuickHullConvexHullLib.obj
 0002:00005314       $chain$1$??__G@YAXPEAX0_K1P6APEAX00@Z@Z 0000000180034314     QuickHullConvexHullLib.obj
 0002:00005324       $unwind$??0QuickHullConvexHullLib@physx@@QEAA@AEBVPxConvexMeshDesc@1@AEBUPxCookingParams@1@@Z 0000000180034324     QuickHullConvexHullLib.obj
 0002:0000533c       $unwind$??1QuickHullConvexHullLib@physx@@UEAA@XZ 000000018003433c     QuickHullConvexHullLib.obj
 0002:0000534c       $unwind$?createConvexHull@QuickHullConvexHullLib@physx@@UEAA?AW4Enum@PxConvexMeshCookingResult@2@XZ 000000018003434c     QuickHullConvexHullLib.obj
 0002:00005360       $chain$0$?createConvexHull@QuickHullConvexHullLib@physx@@UEAA?AW4Enum@PxConvexMeshCookingResult@2@XZ 0000000180034360     QuickHullConvexHullLib.obj
 0002:00005374       $chain$2$?createConvexHull@QuickHullConvexHullLib@physx@@UEAA?AW4Enum@PxConvexMeshCookingResult@2@XZ 0000000180034374     QuickHullConvexHullLib.obj
 0002:0000538c       $chain$3$?createConvexHull@QuickHullConvexHullLib@physx@@UEAA?AW4Enum@PxConvexMeshCookingResult@2@XZ 000000018003438c     QuickHullConvexHullLib.obj
 0002:000053a0       $chain$4$?createConvexHull@QuickHullConvexHullLib@physx@@UEAA?AW4Enum@PxConvexMeshCookingResult@2@XZ 00000001800343a0     QuickHullConvexHullLib.obj
 0002:000053b0       $chain$5$?createConvexHull@QuickHullConvexHullLib@physx@@UEAA?AW4Enum@PxConvexMeshCookingResult@2@XZ 00000001800343b0     QuickHullConvexHullLib.obj
 0002:000053c0       $chain$6$?createConvexHull@QuickHullConvexHullLib@physx@@UEAA?AW4Enum@PxConvexMeshCookingResult@2@XZ 00000001800343c0     QuickHullConvexHullLib.obj
 0002:000053d0       $chain$7$?createConvexHull@QuickHullConvexHullLib@physx@@UEAA?AW4Enum@PxConvexMeshCookingResult@2@XZ 00000001800343d0     QuickHullConvexHullLib.obj
 0002:000053f0       $unwind$?fillConvexMeshDesc@QuickHullConvexHullLib@physx@@UEAAXAEAVPxConvexMeshDesc@2@@Z 00000001800343f0     QuickHullConvexHullLib.obj
 0002:000053fc       $unwind$?createEdgeList@QuickHullConvexHullLib@physx@@UEAA_NIPEBEPEAPEAEPEAPEAG2@Z 00000001800343fc     QuickHullConvexHullLib.obj
 0002:0000541c       $unwind$?expandHullOBB@QuickHullConvexHullLib@physx@@IEAA?AW4Enum@PxConvexMeshCookingResult@2@XZ 000000018003441c     QuickHullConvexHullLib.obj
 0002:00005428       $chain$5$?expandHullOBB@QuickHullConvexHullLib@physx@@IEAA?AW4Enum@PxConvexMeshCookingResult@2@XZ 0000000180034428     QuickHullConvexHullLib.obj
 0002:00005450       $chain$6$?expandHullOBB@QuickHullConvexHullLib@physx@@IEAA?AW4Enum@PxConvexMeshCookingResult@2@XZ 0000000180034450     QuickHullConvexHullLib.obj
 0002:00005464       $chain$7$?expandHullOBB@QuickHullConvexHullLib@physx@@IEAA?AW4Enum@PxConvexMeshCookingResult@2@XZ 0000000180034464     QuickHullConvexHullLib.obj
 0002:00005474       $chain$8$?expandHullOBB@QuickHullConvexHullLib@physx@@IEAA?AW4Enum@PxConvexMeshCookingResult@2@XZ 0000000180034474     QuickHullConvexHullLib.obj
 0002:00005484       $unwind$?expandHull@QuickHullConvexHullLib@physx@@IEAA?AW4Enum@PxConvexMeshCookingResult@2@XZ 0000000180034484     QuickHullConvexHullLib.obj
 0002:000054ac       $unwind$?cleanupForSimplex@QuickHullConvexHullLib@physx@@IEAA_NPEAVPxVec3@2@IPEAUQuickHullVertex@local@@1AEAM2@Z 00000001800344ac     QuickHullConvexHullLib.obj
 0002:000054d0       $chain$0$?cleanupForSimplex@QuickHullConvexHullLib@physx@@IEAA_NPEAVPxVec3@2@IPEAUQuickHullVertex@local@@1AEAM2@Z 00000001800344d0     QuickHullConvexHullLib.obj
 0002:000054e4       $chain$3$?cleanupForSimplex@QuickHullConvexHullLib@physx@@IEAA_NPEAVPxVec3@2@IPEAUQuickHullVertex@local@@1AEAM2@Z 00000001800344e4     QuickHullConvexHullLib.obj
 0002:00005500       $chain$5$?cleanupForSimplex@QuickHullConvexHullLib@physx@@IEAA_NPEAVPxVec3@2@IPEAUQuickHullVertex@local@@1AEAM2@Z 0000000180034500     QuickHullConvexHullLib.obj
 0002:00005518       $chain$6$?cleanupForSimplex@QuickHullConvexHullLib@physx@@IEAA_NPEAVPxVec3@2@IPEAUQuickHullVertex@local@@1AEAM2@Z 0000000180034518     QuickHullConvexHullLib.obj
 0002:0000552c       $chain$7$?cleanupForSimplex@QuickHullConvexHullLib@physx@@IEAA_NPEAVPxVec3@2@IPEAUQuickHullVertex@local@@1AEAM2@Z 000000018003452c     QuickHullConvexHullLib.obj
 0002:00005540       $chain$8$?cleanupForSimplex@QuickHullConvexHullLib@physx@@IEAA_NPEAVPxVec3@2@IPEAUQuickHullVertex@local@@1AEAM2@Z 0000000180034540     QuickHullConvexHullLib.obj
 0002:00005550       $chain$9$?cleanupForSimplex@QuickHullConvexHullLib@physx@@IEAA_NPEAVPxVec3@2@IPEAUQuickHullVertex@local@@1AEAM2@Z 0000000180034550     QuickHullConvexHullLib.obj
 0002:00005560       $chain$10$?cleanupForSimplex@QuickHullConvexHullLib@physx@@IEAA_NPEAVPxVec3@2@IPEAUQuickHullVertex@local@@1AEAM2@Z 0000000180034560     QuickHullConvexHullLib.obj
 0002:00005570       $chain$11$?cleanupForSimplex@QuickHullConvexHullLib@physx@@IEAA_NPEAVPxVec3@2@IPEAUQuickHullVertex@local@@1AEAM2@Z 0000000180034570     QuickHullConvexHullLib.obj
 0002:00005584       $chain$12$?cleanupForSimplex@QuickHullConvexHullLib@physx@@IEAA_NPEAVPxVec3@2@IPEAUQuickHullVertex@local@@1AEAM2@Z 0000000180034584     QuickHullConvexHullLib.obj
 0002:00005594       $unwind$?fillConvexMeshDescFromQuickHull@QuickHullConvexHullLib@physx@@IEAAXAEAVPxConvexMeshDesc@2@@Z 0000000180034594     QuickHullConvexHullLib.obj
 0002:000055ac       $unwind$?fillConvexMeshDescFromCroppedHull@QuickHullConvexHullLib@physx@@IEAAXAEAVPxConvexMeshDesc@2@@Z 00000001800345ac     QuickHullConvexHullLib.obj
 0002:000055c4       $unwind$?mergeAdjacentFace@QuickHullFace@local@@QEAA_NPEAUQuickHullHalfEdge@2@AEAV?$Array@PEAUQuickHullFace@local@@VNamedAllocator@shdfnd@physx@@@shdfnd@physx@@@Z 00000001800345c4     QuickHullConvexHullLib.obj
 0002:000055dc       $chain$4$?mergeAdjacentFace@QuickHullFace@local@@QEAA_NPEAUQuickHullHalfEdge@2@AEAV?$Array@PEAUQuickHullFace@local@@VNamedAllocator@shdfnd@physx@@@shdfnd@physx@@@Z 00000001800345dc     QuickHullConvexHullLib.obj
 0002:00005600       $chain$5$?mergeAdjacentFace@QuickHullFace@local@@QEAA_NPEAUQuickHullHalfEdge@2@AEAV?$Array@PEAUQuickHullFace@local@@VNamedAllocator@shdfnd@physx@@@shdfnd@physx@@@Z 0000000180034600     QuickHullConvexHullLib.obj
 0002:00005610       $chain$6$?mergeAdjacentFace@QuickHullFace@local@@QEAA_NPEAUQuickHullHalfEdge@2@AEAV?$Array@PEAUQuickHullFace@local@@VNamedAllocator@shdfnd@physx@@@shdfnd@physx@@@Z 0000000180034610     QuickHullConvexHullLib.obj
 0002:00005634       $chain$7$?mergeAdjacentFace@QuickHullFace@local@@QEAA_NPEAUQuickHullHalfEdge@2@AEAV?$Array@PEAUQuickHullFace@local@@VNamedAllocator@shdfnd@physx@@@shdfnd@physx@@@Z 0000000180034634     QuickHullConvexHullLib.obj
 0002:00005648       $chain$8$?mergeAdjacentFace@QuickHullFace@local@@QEAA_NPEAUQuickHullHalfEdge@2@AEAV?$Array@PEAUQuickHullFace@local@@VNamedAllocator@shdfnd@physx@@@shdfnd@physx@@@Z 0000000180034648     QuickHullConvexHullLib.obj
 0002:00005658       $unwind$?connectHalfEdges@QuickHullFace@local@@AEAAPEAU12@PEAUQuickHullHalfEdge@2@0@Z 0000000180034658     QuickHullConvexHullLib.obj
 0002:00005660       $chain$0$?connectHalfEdges@QuickHullFace@local@@AEAAPEAU12@PEAUQuickHullHalfEdge@2@0@Z 0000000180034660     QuickHullConvexHullLib.obj
 0002:00005674       $chain$4$?connectHalfEdges@QuickHullFace@local@@AEAAPEAU12@PEAUQuickHullHalfEdge@2@0@Z 0000000180034674     QuickHullConvexHullLib.obj
 0002:00005694       $chain$5$?connectHalfEdges@QuickHullFace@local@@AEAAPEAU12@PEAUQuickHullHalfEdge@2@0@Z 0000000180034694     QuickHullConvexHullLib.obj
 0002:000056a4       $chain$6$?connectHalfEdges@QuickHullFace@local@@AEAAPEAU12@PEAUQuickHullHalfEdge@2@0@Z 00000001800346a4     QuickHullConvexHullLib.obj
 0002:000056b4       $unwind$??0QuickHull@local@@QEAA@AEBUPxCookingParams@physx@@AEBVPxConvexMeshDesc@3@@Z 00000001800346b4     QuickHullConvexHullLib.obj
 0002:000056c4       $unwind$??1QuickHull@local@@QEAA@XZ 00000001800346c4     QuickHullConvexHullLib.obj
 0002:000056d0       $unwind$?preallocate@QuickHull@local@@QEAAXI@Z 00000001800346d0     QuickHullConvexHullLib.obj
 0002:000056e0       $unwind$?parseInputVertices@QuickHull@local@@QEAAXPEBVPxVec3@physx@@I@Z 00000001800346e0     QuickHullConvexHullLib.obj
 0002:000056ec       $chain$0$?parseInputVertices@QuickHull@local@@QEAAXPEBVPxVec3@physx@@I@Z 00000001800346ec     QuickHullConvexHullLib.obj
 0002:00005700       $chain$1$?parseInputVertices@QuickHull@local@@QEAAXPEBVPxVec3@physx@@I@Z 0000000180034700     QuickHullConvexHullLib.obj
 0002:00005710       $unwind$?releaseHull@QuickHull@local@@QEAAXXZ 0000000180034710     QuickHullConvexHullLib.obj
 0002:0000571c       $unwind$?buildHull@QuickHull@local@@QEAA?AW4Enum@QuickHullResult@2@XZ 000000018003471c     QuickHullConvexHullLib.obj
 0002:00005730       $unwind$?computeMinMaxVerts@QuickHull@local@@IEAAXXZ 0000000180034730     QuickHullConvexHullLib.obj
 0002:0000573c       $unwind$?findSimplex@QuickHull@local@@IEAA_NXZ 000000018003473c     QuickHullConvexHullLib.obj
 0002:00005750       $chain$8$?findSimplex@QuickHull@local@@IEAA_NXZ 0000000180034750     QuickHullConvexHullLib.obj
 0002:00005784       $chain$10$?findSimplex@QuickHull@local@@IEAA_NXZ 0000000180034784     QuickHullConvexHullLib.obj
 0002:0000579c       $chain$11$?findSimplex@QuickHull@local@@IEAA_NXZ 000000018003479c     QuickHullConvexHullLib.obj
 0002:000057b0       $chain$12$?findSimplex@QuickHull@local@@IEAA_NXZ 00000001800347b0     QuickHullConvexHullLib.obj
 0002:000057c0       $chain$13$?findSimplex@QuickHull@local@@IEAA_NXZ 00000001800347c0     QuickHullConvexHullLib.obj
 0002:000057f0       $chain$14$?findSimplex@QuickHull@local@@IEAA_NXZ 00000001800347f0     QuickHullConvexHullLib.obj
 0002:00005800       $unwind$?addSimplex@QuickHull@local@@IEAAXPEAUQuickHullVertex@2@_N@Z 0000000180034800     QuickHullConvexHullLib.obj
 0002:00005814       $chain$2$?addSimplex@QuickHull@local@@IEAAXPEAUQuickHullVertex@2@_N@Z 0000000180034814     QuickHullConvexHullLib.obj
 0002:00005830       $chain$8$?addSimplex@QuickHull@local@@IEAAXPEAUQuickHullVertex@2@_N@Z 0000000180034830     QuickHullConvexHullLib.obj
 0002:00005854       $chain$3$?addSimplex@QuickHull@local@@IEAAXPEAUQuickHullVertex@2@_N@Z 0000000180034854     QuickHullConvexHullLib.obj
 0002:00005864       $unwind$?nextPointToAdd@QuickHull@local@@IEAAPEAUQuickHullVertex@2@AEAPEAUQuickHullFace@2@@Z 0000000180034864     QuickHullConvexHullLib.obj
 0002:00005874       $unwind$?addPointToHull@QuickHull@local@@IEAA_NPEBUQuickHullVertex@2@AEAUQuickHullFace@2@AEA_N@Z 0000000180034874     QuickHullConvexHullLib.obj
 0002:00005888       $chain$3$?addPointToHull@QuickHull@local@@IEAA_NPEBUQuickHullVertex@2@AEAUQuickHullFace@2@AEA_N@Z 0000000180034888     QuickHullConvexHullLib.obj
 0002:000058a4       $chain$4$?addPointToHull@QuickHull@local@@IEAA_NPEBUQuickHullVertex@2@AEAUQuickHullFace@2@AEA_N@Z 00000001800348a4     QuickHullConvexHullLib.obj
 0002:000058bc       $chain$5$?addPointToHull@QuickHull@local@@IEAA_NPEBUQuickHullVertex@2@AEAUQuickHullFace@2@AEA_N@Z 00000001800348bc     QuickHullConvexHullLib.obj
 0002:000058d0       $chain$6$?addPointToHull@QuickHull@local@@IEAA_NPEBUQuickHullVertex@2@AEAUQuickHullFace@2@AEA_N@Z 00000001800348d0     QuickHullConvexHullLib.obj
 0002:000058e0       $unwind$?createTriangle@QuickHull@local@@IEAAPEAUQuickHullFace@2@AEBUQuickHullVertex@2@00@Z 00000001800348e0     QuickHullConvexHullLib.obj
 0002:00005908       $unwind$?calculateHorizon@QuickHull@local@@IEAAXAEBVPxVec3@physx@@PEAUQuickHullHalfEdge@2@AEAUQuickHullFace@2@AEAV?$Array@PEAUQuickHullHalfEdge@local@@VNamedAllocator@shdfnd@physx@@@shdfnd@4@AEAV?$Array@PEAUQuickHullFace@local@@VNamedAllocator@shdfnd@physx@@@84@@Z 0000000180034908     QuickHullConvexHullLib.obj
 0002:00005920       $unwind$?addNewFacesFromHorizon@QuickHull@local@@IEAAXPEBUQuickHullVertex@2@AEBV?$Array@PEAUQuickHullHalfEdge@local@@VNamedAllocator@shdfnd@physx@@@shdfnd@physx@@AEAV?$Array@PEAUQuickHullFace@local@@VNamedAllocator@shdfnd@physx@@@56@@Z 0000000180034920     QuickHullConvexHullLib.obj
 0002:00005930       $chain$2$?addNewFacesFromHorizon@QuickHull@local@@IEAAXPEBUQuickHullVertex@2@AEBV?$Array@PEAUQuickHullHalfEdge@local@@VNamedAllocator@shdfnd@physx@@@shdfnd@physx@@AEAV?$Array@PEAUQuickHullFace@local@@VNamedAllocator@shdfnd@physx@@@56@@Z 0000000180034930     QuickHullConvexHullLib.obj
 0002:0000594c       $chain$3$?addNewFacesFromHorizon@QuickHull@local@@IEAAXPEBUQuickHullVertex@2@AEBV?$Array@PEAUQuickHullHalfEdge@local@@VNamedAllocator@shdfnd@physx@@@shdfnd@physx@@AEAV?$Array@PEAUQuickHullFace@local@@VNamedAllocator@shdfnd@physx@@@56@@Z 000000018003494c     QuickHullConvexHullLib.obj
 0002:0000595c       $unwind$?doAdjacentMerge@QuickHull@local@@IEAA_NAEAUQuickHullFace@2@_NAEA_N@Z 000000018003495c     QuickHullConvexHullLib.obj
 0002:0000596c       $chain$1$?doAdjacentMerge@QuickHull@local@@IEAA_NAEAUQuickHullFace@2@_NAEA_N@Z 000000018003496c     QuickHullConvexHullLib.obj
 0002:00005984       $unwind$?doPostAdjacentMerge@QuickHull@local@@IEAA_NAEAUQuickHullFace@2@M@Z 0000000180034984     QuickHullConvexHullLib.obj
 0002:00005998       $chain$0$?doPostAdjacentMerge@QuickHull@local@@IEAA_NAEAUQuickHullFace@2@M@Z 0000000180034998     QuickHullConvexHullLib.obj
 0002:000059ac       $chain$1$?doPostAdjacentMerge@QuickHull@local@@IEAA_NAEAUQuickHullFace@2@M@Z 00000001800349ac     QuickHullConvexHullLib.obj
 0002:000059bc       $unwind$?deleteFacePoints@QuickHull@local@@IEAAXAEAUQuickHullFace@2@PEAU32@@Z 00000001800349bc     QuickHullConvexHullLib.obj
 0002:000059cc       $chain$0$?deleteFacePoints@QuickHull@local@@IEAAXAEAUQuickHullFace@2@PEAU32@@Z 00000001800349cc     QuickHullConvexHullLib.obj
 0002:000059e0       $chain$1$?deleteFacePoints@QuickHull@local@@IEAAXAEAUQuickHullFace@2@PEAU32@@Z 00000001800349e0     QuickHullConvexHullLib.obj
 0002:000059f0       $unwind$?resolveUnclaimedPoints@QuickHull@local@@IEAAXAEBV?$Array@PEAUQuickHullFace@local@@VNamedAllocator@shdfnd@physx@@@shdfnd@physx@@@Z 00000001800349f0     QuickHullConvexHullLib.obj
 0002:00005a04       $unwind$?postMergeHull@QuickHull@local@@IEAAXXZ 0000000180034a04     QuickHullConvexHullLib.obj
 0002:00005a10       $chain$2$?postMergeHull@QuickHull@local@@IEAAXXZ 0000000180034a10     QuickHullConvexHullLib.obj
 0002:00005a2c       $chain$3$?postMergeHull@QuickHull@local@@IEAAXXZ 0000000180034a2c     QuickHullConvexHullLib.obj
 0002:00005a3c       $chain$4$?postMergeHull@QuickHull@local@@IEAAXXZ 0000000180034a3c     QuickHullConvexHullLib.obj
 0002:00005a58       $unwind$?canMergeFaces@QuickHull@local@@IEAA_NAEBUQuickHullHalfEdge@2@@Z 0000000180034a58     QuickHullConvexHullLib.obj
 0002:00005a9c       $unwind$??_GQuickHullConvexHullLib@physx@@UEAAPEAXI@Z 0000000180034a9c     QuickHullConvexHullLib.obj
 0002:00005ab0       $unwind$??_GConvexHull@physx@@QEAAPEAXI@Z 0000000180034ab0     QuickHullConvexHullLib.obj
 0002:00005ac0       $unwind$?init@?$MemBlock@UQuickHullHalfEdge@local@@$0A@@local@@QEAAXI@Z 0000000180034ac0     QuickHullConvexHullLib.obj
 0002:00005acc       $unwind$??1?$MemBlock@UQuickHullHalfEdge@local@@$0A@@local@@QEAA@XZ 0000000180034acc     QuickHullConvexHullLib.obj
 0002:00005ad4       $chain$0$??1?$MemBlock@UQuickHullHalfEdge@local@@$0A@@local@@QEAA@XZ 0000000180034ad4     QuickHullConvexHullLib.obj
 0002:00005ae8       $chain$1$??1?$MemBlock@UQuickHullHalfEdge@local@@$0A@@local@@QEAA@XZ 0000000180034ae8     QuickHullConvexHullLib.obj
 0002:00005afc       $chain$2$??1?$MemBlock@UQuickHullHalfEdge@local@@$0A@@local@@QEAA@XZ 0000000180034afc     QuickHullConvexHullLib.obj
 0002:00005b0c       $chain$3$??1?$MemBlock@UQuickHullHalfEdge@local@@$0A@@local@@QEAA@XZ 0000000180034b0c     QuickHullConvexHullLib.obj
 0002:00005b1c       $unwind$?getFreeItem@?$MemBlock@UQuickHullHalfEdge@local@@$0A@@local@@QEAAPEAUQuickHullHalfEdge@2@XZ 0000000180034b1c     QuickHullConvexHullLib.obj
 0002:00005b2c       $unwind$?growAndPushBack@?$Array@PEAUQuickHullHalfEdge@local@@VNamedAllocator@shdfnd@physx@@@shdfnd@physx@@IEAAAEAPEAUQuickHullHalfEdge@local@@AEBQEAU45@@Z 0000000180034b2c     QuickHullConvexHullLib.obj
 0002:00005b40       $unwind$?recreate@?$Array@PEAUQuickHullHalfEdge@local@@VNamedAllocator@shdfnd@physx@@@shdfnd@physx@@IEAAXI@Z 0000000180034b40     QuickHullConvexHullLib.obj
 0002:00005b50       $chain$0$?recreate@?$Array@PEAUQuickHullHalfEdge@local@@VNamedAllocator@shdfnd@physx@@@shdfnd@physx@@IEAAXI@Z 0000000180034b50     QuickHullConvexHullLib.obj
 0002:00005b64       $chain$1$?recreate@?$Array@PEAUQuickHullHalfEdge@local@@VNamedAllocator@shdfnd@physx@@@shdfnd@physx@@IEAAXI@Z 0000000180034b64     QuickHullConvexHullLib.obj
 0002:00005b74       $unwind$?init@?$MemBlock@UQuickHullFace@local@@$00@local@@QEAAXI@Z 0000000180034b74     QuickHullConvexHullLib.obj
 0002:00005b80       $unwind$??1?$MemBlock@UQuickHullFace@local@@$00@local@@QEAA@XZ 0000000180034b80     QuickHullConvexHullLib.obj
 0002:00005b88       $chain$0$??1?$MemBlock@UQuickHullFace@local@@$00@local@@QEAA@XZ 0000000180034b88     QuickHullConvexHullLib.obj
 0002:00005b9c       $chain$1$??1?$MemBlock@UQuickHullFace@local@@$00@local@@QEAA@XZ 0000000180034b9c     QuickHullConvexHullLib.obj
 0002:00005bb0       $chain$2$??1?$MemBlock@UQuickHullFace@local@@$00@local@@QEAA@XZ 0000000180034bb0     QuickHullConvexHullLib.obj
 0002:00005bc0       $chain$3$??1?$MemBlock@UQuickHullFace@local@@$00@local@@QEAA@XZ 0000000180034bc0     QuickHullConvexHullLib.obj
 0002:00005bd0       $unwind$?getFreeItem@?$MemBlock@UQuickHullFace@local@@$00@local@@QEAAPEAUQuickHullFace@2@XZ 0000000180034bd0     QuickHullConvexHullLib.obj
 0002:00005be4       $unwind$?growAndPushBack@?$Array@PEAUQuickHullFace@local@@VNamedAllocator@shdfnd@physx@@@shdfnd@physx@@IEAAAEAPEAUQuickHullFace@local@@AEBQEAU45@@Z 0000000180034be4     QuickHullConvexHullLib.obj
 0002:00005bf8       $unwind$?recreate@?$Array@PEAUQuickHullFace@local@@VNamedAllocator@shdfnd@physx@@@shdfnd@physx@@IEAAXI@Z 0000000180034bf8     QuickHullConvexHullLib.obj
 0002:00005c08       $chain$0$?recreate@?$Array@PEAUQuickHullFace@local@@VNamedAllocator@shdfnd@physx@@@shdfnd@physx@@IEAAXI@Z 0000000180034c08     QuickHullConvexHullLib.obj
 0002:00005c1c       $chain$1$?recreate@?$Array@PEAUQuickHullFace@local@@VNamedAllocator@shdfnd@physx@@@shdfnd@physx@@IEAAXI@Z 0000000180034c1c     QuickHullConvexHullLib.obj
 0002:00005c2c       $unwind$?growAndPushBack@?$Array@PEAUQuickHullVertex@local@@VNamedAllocator@shdfnd@physx@@@shdfnd@physx@@IEAAAEAPEAUQuickHullVertex@local@@AEBQEAU45@@Z 0000000180034c2c     QuickHullConvexHullLib.obj
 0002:00005c40       $unwind$?recreate@?$Array@PEAUQuickHullVertex@local@@VNamedAllocator@shdfnd@physx@@@shdfnd@physx@@IEAAXI@Z 0000000180034c40     QuickHullConvexHullLib.obj
 0002:00005c50       $chain$0$?recreate@?$Array@PEAUQuickHullVertex@local@@VNamedAllocator@shdfnd@physx@@@shdfnd@physx@@IEAAXI@Z 0000000180034c50     QuickHullConvexHullLib.obj
 0002:00005c64       $chain$1$?recreate@?$Array@PEAUQuickHullVertex@local@@VNamedAllocator@shdfnd@physx@@@shdfnd@physx@@IEAAXI@Z 0000000180034c64     QuickHullConvexHullLib.obj
 0002:00005c74       $unwind$?growAndPushBack@?$Array@UExpandPoint@local@@VNamedAllocator@shdfnd@physx@@@shdfnd@physx@@IEAAAEAUExpandPoint@local@@AEBU45@@Z 0000000180034c74     QuickHullConvexHullLib.obj
 0002:00005c80       $chain$0$?growAndPushBack@?$Array@UExpandPoint@local@@VNamedAllocator@shdfnd@physx@@@shdfnd@physx@@IEAAAEAUExpandPoint@local@@AEBU45@@Z 0000000180034c80     QuickHullConvexHullLib.obj
 0002:00005c94       $chain$1$?growAndPushBack@?$Array@UExpandPoint@local@@VNamedAllocator@shdfnd@physx@@@shdfnd@physx@@IEAAAEAUExpandPoint@local@@AEBU45@@Z 0000000180034c94     QuickHullConvexHullLib.obj
 0002:00005ca8       $chain$2$?growAndPushBack@?$Array@UExpandPoint@local@@VNamedAllocator@shdfnd@physx@@@shdfnd@physx@@IEAAAEAUExpandPoint@local@@AEBU45@@Z 0000000180034ca8     QuickHullConvexHullLib.obj
 0002:00005cb8       $chain$3$?growAndPushBack@?$Array@UExpandPoint@local@@VNamedAllocator@shdfnd@physx@@@shdfnd@physx@@IEAAAEAUExpandPoint@local@@AEBU45@@Z 0000000180034cb8     QuickHullConvexHullLib.obj
 0002:00005cc8       $unwind$?recreate@?$Array@UExpandPoint@local@@VNamedAllocator@shdfnd@physx@@@shdfnd@physx@@IEAAXI@Z 0000000180034cc8     QuickHullConvexHullLib.obj
 0002:00005cd8       $chain$0$?recreate@?$Array@UExpandPoint@local@@VNamedAllocator@shdfnd@physx@@@shdfnd@physx@@IEAAXI@Z 0000000180034cd8     QuickHullConvexHullLib.obj
 0002:00005cec       $chain$1$?recreate@?$Array@UExpandPoint@local@@VNamedAllocator@shdfnd@physx@@@shdfnd@physx@@IEAAXI@Z 0000000180034cec     QuickHullConvexHullLib.obj
 0002:00005cfc       $unwind$?computeVolumeIntegrals@physx@@YA_NAEBVPxSimpleTriangleMesh@1@MAEAUPxIntegrals@1@@Z 0000000180034cfc     VolumeIntegration.obj
 0002:00005d04       $unwind$?computeVolumeIntegralsEberly@physx@@YA_NAEBVPxConvexMeshDesc@1@MAEAUPxIntegrals@1@AEBVPxVec3@1@@Z 0000000180034d04     VolumeIntegration.obj
 0002:00005d0c       $unwind$?computeVolumeIntegralsEberlySIMD@physx@@YA_NAEBVPxConvexMeshDesc@1@MAEAUPxIntegrals@1@AEBVPxVec3@1@@Z 0000000180034d0c     VolumeIntegration.obj
 0002:00005d14       $unwind$?computeVolumeIntegrals@VolumeIntegrator@?A0x3236b418@physx@@QEAA_NAEAUPxIntegrals@3@@Z 0000000180034d14     VolumeIntegration.obj
 0002:00005d54       $unwind$?computeProjectionIntegrals@VolumeIntegrator@?A0x3236b418@physx@@AEAAXAEBUFace@123@@Z 0000000180034d54     VolumeIntegration.obj
 0002:00005d90       $unwind$?computeFaceIntegrals@VolumeIntegrator@?A0x3236b418@physx@@AEAAXAEBUFace@123@@Z 0000000180034d90     VolumeIntegration.obj
 0002:00005dc4       $unwind$?computeVolumeIntegralsSIMD@VolumeIntegratorEberly@?A0x3236b418@physx@@QEAA_NAEAUPxIntegrals@3@AEBVPxVec3@3@@Z 0000000180034dc4     VolumeIntegration.obj
 0002:00005df8       $chain$0$?computeVolumeIntegralsSIMD@VolumeIntegratorEberly@?A0x3236b418@physx@@QEAA_NAEAUPxIntegrals@3@AEBVPxVec3@3@@Z 0000000180034df8     VolumeIntegration.obj
 0002:00005e0c       $chain$2$?computeVolumeIntegralsSIMD@VolumeIntegratorEberly@?A0x3236b418@physx@@QEAA_NAEAUPxIntegrals@3@AEBVPxVec3@3@@Z 0000000180034e0c     VolumeIntegration.obj
 0002:00005e24       $chain$3$?computeVolumeIntegralsSIMD@VolumeIntegratorEberly@?A0x3236b418@physx@@QEAA_NAEAUPxIntegrals@3@AEBVPxVec3@3@@Z 0000000180034e24     VolumeIntegration.obj
 0002:00005e34       $chain$4$?computeVolumeIntegralsSIMD@VolumeIntegratorEberly@?A0x3236b418@physx@@QEAA_NAEAUPxIntegrals@3@AEBVPxVec3@3@@Z 0000000180034e34     VolumeIntegration.obj
 0002:00005e44       $unwind$?computeVolumeIntegrals@VolumeIntegratorEberly@?A0x3236b418@physx@@QEAA_NAEAUPxIntegrals@3@AEBVPxVec3@3@@Z 0000000180034e44     VolumeIntegration.obj
 0002:00005e74       $chain$0$?computeVolumeIntegrals@VolumeIntegratorEberly@?A0x3236b418@physx@@QEAA_NAEAUPxIntegrals@3@AEBVPxVec3@3@@Z 0000000180034e74     VolumeIntegration.obj
 0002:00005e88       $chain$6$?computeVolumeIntegrals@VolumeIntegratorEberly@?A0x3236b418@physx@@QEAA_NAEAUPxIntegrals@3@AEBVPxVec3@3@@Z 0000000180034e88     VolumeIntegration.obj
 0002:00005eb0       $chain$7$?computeVolumeIntegrals@VolumeIntegratorEberly@?A0x3236b418@physx@@QEAA_NAEAUPxIntegrals@3@AEBVPxVec3@3@@Z 0000000180034eb0     VolumeIntegration.obj
 0002:00005ec0       $chain$8$?computeVolumeIntegrals@VolumeIntegratorEberly@?A0x3236b418@physx@@QEAA_NAEAUPxIntegrals@3@AEBVPxVec3@3@@Z 0000000180034ec0     VolumeIntegration.obj
 0002:00005ed0       $unwind$?delayHook@@YAP6A_JXZIPEAUDelayLoadInfo@@@Z 0000000180034ed0     WindowsCookingDelayLoadHook.obj
 0002:00005ed8       $chain$1$?delayHook@@YAP6A_JXZIPEAUDelayLoadInfo@@@Z 0000000180034ed8     WindowsCookingDelayLoadHook.obj
 0002:00005ef0       $chain$3$?delayHook@@YAP6A_JXZIPEAUDelayLoadInfo@@@Z 0000000180034ef0     WindowsCookingDelayLoadHook.obj
 0002:00005f08       $chain$5$?delayHook@@YAP6A_JXZIPEAUDelayLoadInfo@@@Z 0000000180034f08     WindowsCookingDelayLoadHook.obj
 0002:00005f20       $chain$6$?delayHook@@YAP6A_JXZIPEAUDelayLoadInfo@@@Z 0000000180034f20     WindowsCookingDelayLoadHook.obj
 0002:00005f30       xdata                      0000000180034f30     PhysXCommon_64:PhysXCommon_64.dll
 0002:00005f38       xdata                      0000000180034f38     PhysXFoundation_64:PhysXFoundation_64.dll
 0002:00005f40       $unwind$__FUnloadDelayLoadedDLL2 0000000180034f40     Delayimp:delayhlp.obj
 0002:00005f58       $unwind$__HrLoadAllImportsForDll 0000000180034f58     Delayimp:delayhlp.obj
 0002:00005f68       $unwind$?DloadGetSRWLockFunctionPointers@@YAEXZ 0000000180034f68     Delayimp:delayhlp.obj
 0002:00005f74       $unwind$?DloadLock@@YAXXZ  0000000180034f74     Delayimp:delayhlp.obj
 0002:00005f7c       $unwind$?DloadUnlock@@YAXXZ 0000000180034f7c     Delayimp:delayhlp.obj
 0002:00005f84       $unwind$?DloadObtainSection@@YAPEAXPEAK0@Z 0000000180034f84     Delayimp:delayhlp.obj
 0002:00005f94       $unwind$?DloadMakePermanentImageCommit@@YAXPEAX_K@Z 0000000180034f94     Delayimp:delayhlp.obj
 0002:00005fa0       $unwind$?DloadProtectSection@@YAXKPEAK@Z 0000000180034fa0     Delayimp:delayhlp.obj
 0002:00005fb0       $unwind$?DloadAcquireSectionWriteAccess@@YAXXZ 0000000180034fb0     Delayimp:delayhlp.obj
 0002:00005fb8       $unwind$?DloadReleaseSectionWriteAccess@@YAXXZ 0000000180034fb8     Delayimp:delayhlp.obj
 0002:00005fc0       $unwind$?PiddFromDllName@@YAPEBUImgDelayDescr@@PEBD@Z 0000000180034fc0     Delayimp:delayhlp.obj
 0002:00005fc8       $unwind$__delayLoadHelper2 0000000180034fc8     Delayimp:delayhlp.obj
 0002:00005fe0       $unwind$??_Gtype_info@@UEAAPEAXI@Z 0000000180034fe0     MSVCRT:std_type_info_static.obj
 0002:00005fe8       $xdatasym                  0000000180034fe8     MSVCRT:chkstk.obj
 0002:00005ff0       $unwind$?dllmain_crt_process_attach@@YAHQEAUHINSTANCE__@@QEAX@Z 0000000180034ff0     MSVCRT:dll_dllmain.obj
 0002:0000602c       $unwind$?fin$0@?0??dllmain_crt_process_attach@@YAHQEAUHINSTANCE__@@QEAX@Z@4HA 000000018003502c     MSVCRT:dll_dllmain.obj
 0002:00006034       $unwind$?dllmain_crt_process_detach@@YAH_N@Z 0000000180035034     MSVCRT:dll_dllmain.obj
 0002:0000606c       $unwind$?fin$0@?0??dllmain_crt_process_detach@@YAH_N@Z@4HA 000000018003506c     MSVCRT:dll_dllmain.obj
 0002:00006074       $unwind$?dllmain_crt_dispatch@@YAHQEAUHINSTANCE__@@KQEAX@Z 0000000180035074     MSVCRT:dll_dllmain.obj
 0002:0000607c       $unwind$?dllmain_dispatch@@YAHQEAUHINSTANCE__@@KQEAX@Z 000000018003507c     MSVCRT:dll_dllmain.obj
 0002:000060a4       $unwind$?filt$0@?0??dllmain_dispatch@@YAHQEAUHINSTANCE__@@KQEAX@Z@4HA 00000001800350a4     MSVCRT:dll_dllmain.obj
 0002:000060ac       $unwind$_DllMainCRTStartup 00000001800350ac     MSVCRT:dll_dllmain.obj
 0002:000060c0       $xdatasym                  00000001800350c0     MSVCRT:svml_ssinf4_sse2.obj
 0002:000060d0       $unwind$__security_init_cookie 00000001800350d0     MSVCRT:gs_support.obj
 0002:000060dc       $unwind$__get_entropy      00000001800350dc     MSVCRT:gs_support.obj
 0002:000060e4       $unwind$DllMain            00000001800350e4     MSVCRT:dll_dllmain_stub.obj
 0002:000060ec       $unwind$__scrt_initialize_default_local_stdio_options 00000001800350ec     MSVCRT:default_local_stdio_options.obj
 0002:000060f4       $unwind$atexit             00000001800350f4     MSVCRT:utility.obj
 0002:000060fc       $unwind$_onexit            00000001800350fc     MSVCRT:utility.obj
 0002:00006104       $unwind$__scrt_is_nonwritable_in_current_image 0000000180035104     MSVCRT:utility.obj
 0002:00006124       $unwind$__scrt_is_nonwritable_in_current_image$filt$0 0000000180035124     MSVCRT:utility.obj
 0002:0000612c       $unwind$__scrt_acquire_startup_lock 000000018003512c     MSVCRT:utility.obj
 0002:00006134       $unwind$__scrt_release_startup_lock 0000000180035134     MSVCRT:utility.obj
 0002:0000613c       $unwind$__scrt_initialize_crt 000000018003513c     MSVCRT:utility.obj
 0002:00006144       $unwind$__scrt_uninitialize_crt 0000000180035144     MSVCRT:utility.obj
 0002:0000614c       $unwind$__scrt_initialize_onexit_tables 000000018003514c     MSVCRT:utility.obj
 0002:00006154       $unwind$__scrt_dllmain_exception_filter 0000000180035154     MSVCRT:utility.obj
 0002:00006168       $unwind$__scrt_dllmain_before_initialize_c 0000000180035168     MSVCRT:utility.obj
 0002:00006170       $unwind$__scrt_dllmain_after_initialize_c 0000000180035170     MSVCRT:utility.obj
 0002:00006178       $unwind$__scrt_dllmain_uninitialize_c 0000000180035178     MSVCRT:utility.obj
 0002:00006180       $unwind$__scrt_dllmain_uninitialize_critical 0000000180035180     MSVCRT:utility.obj
 0002:00006188       $unwind$__scrt_dllmain_crt_thread_attach 0000000180035188     MSVCRT:utility.obj
 0002:00006190       $unwind$__scrt_dllmain_crt_thread_detach 0000000180035190     MSVCRT:utility.obj
 0002:00006198       $unwind$?configure_argv@__scrt_narrow_argv_policy@@SAHXZ 0000000180035198     MSVCRT:utility.obj
 0002:000061a0       $unwind$__scrt_get_show_window_mode 00000001800351a0     MSVCRT:utility_desktop.obj
 0002:000061a8       $unwind$__scrt_is_managed_app 00000001800351a8     MSVCRT:utility_desktop.obj
 0002:000061b0       $unwind$__scrt_fastfail    00000001800351b0     MSVCRT:utility_desktop.obj
 0002:000061c0       $unwind$__scrt_unhandled_exception_filter 00000001800351c0     MSVCRT:utility_desktop.obj
 0002:000061c8       $unwind$_RTC_Initialize    00000001800351c8     MSVCRT:initsect.obj
 0002:000061d4       $unwind$_RTC_Terminate     00000001800351d4     MSVCRT:initsect.obj
 0002:000061e0       $xdatasym                  00000001800351e0     MSVCRT:guard_dispatch.obj
 0002:000061e4       $unwind$__isa_available_init 00000001800351e4     MSVCRT:cpu_disp.obj
 0002:00007370       .edata                     0000000180036370     PhysXCooking_64.exp
 0002:00007398       rgpv                       0000000180036398     PhysXCooking_64.exp
 0002:00007580       rgszName                   0000000180036580     PhysXCooking_64.exp
 0002:00007768       rgwOrd                     0000000180036768     PhysXCooking_64.exp
 0002:0000785c       szName                     000000018003685c     PhysXCooking_64.exp
 0002:00007870       $N00001                    0000000180036870     PhysXCooking_64.exp
 0002:0000789f       $N00002                    000000018003689f     PhysXCooking_64.exp
 0002:000078c6       $N00003                    00000001800368c6     PhysXCooking_64.exp
 0002:00007901       $N00004                    0000000180036901     PhysXCooking_64.exp
 0002:00007928       $N00005                    0000000180036928     PhysXCooking_64.exp
 0002:00007954       $N00006                    0000000180036954     PhysXCooking_64.exp
 0002:00007975       $N00007                    0000000180036975     PhysXCooking_64.exp
 0002:000079aa       $N00008                    00000001800369aa     PhysXCooking_64.exp
 0002:000079c3       $N00009                    00000001800369c3     PhysXCooking_64.exp
 0002:000079e3       $N00010                    00000001800369e3     PhysXCooking_64.exp
 0002:00007a2b       $N00011                    0000000180036a2b     PhysXCooking_64.exp
 0002:00007a54       $N00012                    0000000180036a54     PhysXCooking_64.exp
 0002:00007a7b       $N00013                    0000000180036a7b     PhysXCooking_64.exp
 0002:00007aaa       $N00014                    0000000180036aaa     PhysXCooking_64.exp
 0002:00007ad7       $N00015                    0000000180036ad7     PhysXCooking_64.exp
 0002:00007b08       $N00016                    0000000180036b08     PhysXCooking_64.exp
 0002:00007b2d       $N00017                    0000000180036b2d     PhysXCooking_64.exp
 0002:00007b58       $N00018                    0000000180036b58     PhysXCooking_64.exp
 0002:00007b7e       $N00019                    0000000180036b7e     PhysXCooking_64.exp
 0002:00007b9d       $N00020                    0000000180036b9d     PhysXCooking_64.exp
 0002:00007bd3       $N00021                    0000000180036bd3     PhysXCooking_64.exp
 0002:00007bfd       $N00022                    0000000180036bfd     PhysXCooking_64.exp
 0002:00007c24       $N00023                    0000000180036c24     PhysXCooking_64.exp
 0002:00007c4d       $N00024                    0000000180036c4d     PhysXCooking_64.exp
 0002:00007c66       $N00025                    0000000180036c66     PhysXCooking_64.exp
 0002:00007c8b       $N00026                    0000000180036c8b     PhysXCooking_64.exp
 0002:00007caa       $N00027                    0000000180036caa     PhysXCooking_64.exp
 0002:00007cc9       $N00028                    0000000180036cc9     PhysXCooking_64.exp
 0002:00007ce9       $N00029                    0000000180036ce9     PhysXCooking_64.exp
 0002:00007d1f       $N00030                    0000000180036d1f     PhysXCooking_64.exp
 0002:00007d57       $N00031                    0000000180036d57     PhysXCooking_64.exp
 0002:00007d8b       $N00032                    0000000180036d8b     PhysXCooking_64.exp
 0002:00007dbd       $N00033                    0000000180036dbd     PhysXCooking_64.exp
 0002:00007dea       $N00034                    0000000180036dea     PhysXCooking_64.exp
 0002:00007e12       $N00035                    0000000180036e12     PhysXCooking_64.exp
 0002:00007e43       $N00036                    0000000180036e43     PhysXCooking_64.exp
 0002:00007e72       $N00037                    0000000180036e72     PhysXCooking_64.exp
 0002:00007ea2       $N00038                    0000000180036ea2     PhysXCooking_64.exp
 0002:00007ed0       $N00039                    0000000180036ed0     PhysXCooking_64.exp
 0002:00007f01       $N00040                    0000000180036f01     PhysXCooking_64.exp
 0002:00007f37       $N00041                    0000000180036f37     PhysXCooking_64.exp
 0002:00007f6b       $N00042                    0000000180036f6b     PhysXCooking_64.exp
 0002:00007f9d       $N00043                    0000000180036f9d     PhysXCooking_64.exp
 0002:00007fcf       $N00044                    0000000180036fcf     PhysXCooking_64.exp
 0002:00007ffb       $N00045                    0000000180036ffb     PhysXCooking_64.exp
 0002:00008017       $N00046                    0000000180037017     PhysXCooking_64.exp
 0002:00008041       $N00047                    0000000180037041     PhysXCooking_64.exp
 0002:00008065       $N00048                    0000000180037065     PhysXCooking_64.exp
 0002:0000808e       $N00049                    000000018003708e     PhysXCooking_64.exp
 0002:000080c0       $N00050                    00000001800370c0     PhysXCooking_64.exp
 0002:000080e7       $N00051                    00000001800370e7     PhysXCooking_64.exp
 0002:00008115       $N00052                    0000000180037115     PhysXCooking_64.exp
 0002:00008140       $N00053                    0000000180037140     PhysXCooking_64.exp
 0002:0000816d       $N00054                    000000018003716d     PhysXCooking_64.exp
 0002:00008196       $N00055                    0000000180037196     PhysXCooking_64.exp
 0002:000081c5       $N00056                    00000001800371c5     PhysXCooking_64.exp
 0002:000081ee       $N00057                    00000001800371ee     PhysXCooking_64.exp
 0002:00008217       $N00058                    0000000180037217     PhysXCooking_64.exp
 0002:00008245       $N00059                    0000000180037245     PhysXCooking_64.exp
 0002:0000826d       $N00060                    000000018003726d     PhysXCooking_64.exp
 0002:000082a8       $N00061                    00000001800372a8     PhysXCooking_64.exp
 0002:000082d2       $N00062                    00000001800372d2     PhysXCooking_64.exp
 0002:00008306       $N00063                    0000000180037306     PhysXCooking_64.exp
 0002:0000833c       $N00064                    000000018003733c     PhysXCooking_64.exp
 0002:00008378       $N00065                    0000000180037378     PhysXCooking_64.exp
 0002:000083c0       $N00066                    00000001800373c0     PhysXCooking_64.exp
 0002:00008410       $N00067                    0000000180037410     PhysXCooking_64.exp
 0002:00008444       $N00068                    0000000180037444     PhysXCooking_64.exp
 0002:00008479       $N00069                    0000000180037479     PhysXCooking_64.exp
 0002:000084af       $N00070                    00000001800374af     PhysXCooking_64.exp
 0002:000084d6       $N00071                    00000001800374d6     PhysXCooking_64.exp
 0002:0000851e       $N00072                    000000018003751e     PhysXCooking_64.exp
 0002:00008564       $N00073                    0000000180037564     PhysXCooking_64.exp
 0002:000085bc       $N00074                    00000001800375bc     PhysXCooking_64.exp
 0002:00008603       $N00075                    0000000180037603     PhysXCooking_64.exp
 0002:0000862e       $N00076                    000000018003762e     PhysXCooking_64.exp
 0002:0000865e       $N00077                    000000018003765e     PhysXCooking_64.exp
 0002:000086ae       $N00078                    00000001800376ae     PhysXCooking_64.exp
 0002:0000875d       $N00079                    000000018003775d     PhysXCooking_64.exp
 0002:000087bb       $N00080                    00000001800377bb     PhysXCooking_64.exp
 0002:000087e7       $N00081                    00000001800377e7     PhysXCooking_64.exp
 0002:00008813       $N00082                    0000000180037813     PhysXCooking_64.exp
 0002:00008848       $N00083                    0000000180037848     PhysXCooking_64.exp
 0002:00008871       $N00084                    0000000180037871     PhysXCooking_64.exp
 0002:000088ad       $N00085                    00000001800378ad     PhysXCooking_64.exp
 0002:000088d9       $N00086                    00000001800378d9     PhysXCooking_64.exp
 0002:0000890c       $N00087                    000000018003790c     PhysXCooking_64.exp
 0002:00008959       $N00088                    0000000180037959     PhysXCooking_64.exp
 0002:0000898c       $N00089                    000000018003798c     PhysXCooking_64.exp
 0002:000089c6       $N00090                    00000001800379c6     PhysXCooking_64.exp
 0002:00008a00       $N00091                    0000000180037a00     PhysXCooking_64.exp
 0002:00008a3c       $N00092                    0000000180037a3c     PhysXCooking_64.exp
 0002:00008a80       $N00093                    0000000180037a80     PhysXCooking_64.exp
 0002:00008aaf       $N00094                    0000000180037aaf     PhysXCooking_64.exp
 0002:00008b29       $N00095                    0000000180037b29     PhysXCooking_64.exp
 0002:00008b86       $N00096                    0000000180037b86     PhysXCooking_64.exp
 0002:00008bb2       $N00097                    0000000180037bb2     PhysXCooking_64.exp
 0002:00008be6       $N00098                    0000000180037be6     PhysXCooking_64.exp
 0002:00008c1f       $N00099                    0000000180037c1f     PhysXCooking_64.exp
 0002:00008c5c       $N00100                    0000000180037c5c     PhysXCooking_64.exp
 0002:00008c92       $N00101                    0000000180037c92     PhysXCooking_64.exp
 0002:00008cbf       $N00102                    0000000180037cbf     PhysXCooking_64.exp
 0002:00008cec       $N00103                    0000000180037cec     PhysXCooking_64.exp
 0002:00008d17       $N00104                    0000000180037d17     PhysXCooking_64.exp
 0002:00008d43       $N00105                    0000000180037d43     PhysXCooking_64.exp
 0002:00008d70       $N00106                    0000000180037d70     PhysXCooking_64.exp
 0002:00008d90       $N00107                    0000000180037d90     PhysXCooking_64.exp
 0002:00008dcc       $N00108                    0000000180037dcc     PhysXCooking_64.exp
 0002:00008e0e       $N00109                    0000000180037e0e     PhysXCooking_64.exp
 0002:00008e3b       $N00110                    0000000180037e3b     PhysXCooking_64.exp
 0002:00008e5f       $N00111                    0000000180037e5f     PhysXCooking_64.exp
 0002:00008e8f       $N00112                    0000000180037e8f     PhysXCooking_64.exp
 0002:00008ec2       $N00113                    0000000180037ec2     PhysXCooking_64.exp
 0002:00008ee7       $N00114                    0000000180037ee7     PhysXCooking_64.exp
 0002:00008f15       $N00115                    0000000180037f15     PhysXCooking_64.exp
 0002:00008f3d       $N00116                    0000000180037f3d     PhysXCooking_64.exp
 0002:00008f5d       $N00117                    0000000180037f5d     PhysXCooking_64.exp
 0002:00008fa2       $N00118                    0000000180037fa2     PhysXCooking_64.exp
 0002:00008fdf       $N00119                    0000000180037fdf     PhysXCooking_64.exp
 0002:0000901c       $N00120                    000000018003801c     PhysXCooking_64.exp
 0002:0000904f       $N00121                    000000018003804f     PhysXCooking_64.exp
 0002:0000905f       $N00122                    000000018003805f     PhysXCooking_64.exp
 0002:000092d8       .idata$6                   00000001800382d8     kernel32:KERNEL32.dll
 0002:00009360       .idata$6                   0000000180038360     vcruntime:VCRUNTIME140.dll
 0002:0000949c       .idata$6                   000000018003849c     ucrt:api-ms-win-crt-string-l1-1-0.dll
 0002:000094be       .idata$6                   00000001800384be     ucrt:api-ms-win-crt-math-l1-1-0.dll
 0002:000094de       .idata$6                   00000001800384de     ucrt:api-ms-win-crt-heap-l1-1-0.dll
 0002:000094fe       .idata$6                   00000001800384fe     ucrt:api-ms-win-crt-runtime-l1-1-0.dll
 0003:00000000       ?MAXDOT_MINANG@local@@3MB  0000000180039000     ConvexHullUtils.obj
 0003:00000004       ?MAXDOT_MINANG@local@@3MB  0000000180039004     QuickHullConvexHullLib.obj
 0003:00000590       ?maxV3Error@_VecMathTests@aos@shdfnd@physx@@3T__m128@@B 0000000180039590     Cooking.obj
 0003:000005a0       ?minFError@_VecMathTests@aos@shdfnd@physx@@3T__m128@@B 00000001800395a0     Cooking.obj
 0003:000005b0       ?maxV4Error@_VecMathTests@aos@shdfnd@physx@@3T__m128@@B 00000001800395b0     Cooking.obj
 0003:000005c0       ?minV4Error@_VecMathTests@aos@shdfnd@physx@@3T__m128@@B 00000001800395c0     Cooking.obj
 0003:000005d0       ?minV3Error@_VecMathTests@aos@shdfnd@physx@@3T__m128@@B 00000001800395d0     Cooking.obj
 0003:000005e0       ?maxFError@_VecMathTests@aos@shdfnd@physx@@3T__m128@@B 00000001800395e0     Cooking.obj
 0003:000005f0       ?maxV3Error@_VecMathTests@aos@shdfnd@physx@@3T__m128@@B 00000001800395f0     BVHStructureBuilder.obj
 0003:00000600       ?minFError@_VecMathTests@aos@shdfnd@physx@@3T__m128@@B 0000000180039600     BVHStructureBuilder.obj
 0003:00000610       ?maxV4Error@_VecMathTests@aos@shdfnd@physx@@3T__m128@@B 0000000180039610     BVHStructureBuilder.obj
 0003:00000620       ?minV4Error@_VecMathTests@aos@shdfnd@physx@@3T__m128@@B 0000000180039620     BVHStructureBuilder.obj
 0003:00000630       ?minV3Error@_VecMathTests@aos@shdfnd@physx@@3T__m128@@B 0000000180039630     BVHStructureBuilder.obj
 0003:00000640       ?maxFError@_VecMathTests@aos@shdfnd@physx@@3T__m128@@B 0000000180039640     BVHStructureBuilder.obj
 0003:00000650       ?maxV3Error@_VecMathTests@aos@shdfnd@physx@@3T__m128@@B 0000000180039650     RTreeCooking.obj
 0003:00000660       ?minFError@_VecMathTests@aos@shdfnd@physx@@3T__m128@@B 0000000180039660     RTreeCooking.obj
 0003:00000670       ?maxV4Error@_VecMathTests@aos@shdfnd@physx@@3T__m128@@B 0000000180039670     RTreeCooking.obj
 0003:00000680       ?minV4Error@_VecMathTests@aos@shdfnd@physx@@3T__m128@@B 0000000180039680     RTreeCooking.obj
 0003:00000690       ?minV3Error@_VecMathTests@aos@shdfnd@physx@@3T__m128@@B 0000000180039690     RTreeCooking.obj
 0003:000006a0       ?maxFError@_VecMathTests@aos@shdfnd@physx@@3T__m128@@B 00000001800396a0     RTreeCooking.obj
 0003:000006b0       ?maxV3Error@_VecMathTests@aos@shdfnd@physx@@3T__m128@@B 00000001800396b0     MeshBuilder.obj
 0003:000006c0       ?minFError@_VecMathTests@aos@shdfnd@physx@@3T__m128@@B 00000001800396c0     MeshBuilder.obj
 0003:000006d0       ?maxV4Error@_VecMathTests@aos@shdfnd@physx@@3T__m128@@B 00000001800396d0     MeshBuilder.obj
 0003:000006e0       ?minV4Error@_VecMathTests@aos@shdfnd@physx@@3T__m128@@B 00000001800396e0     MeshBuilder.obj
 0003:000006f0       ?minV3Error@_VecMathTests@aos@shdfnd@physx@@3T__m128@@B 00000001800396f0     MeshBuilder.obj
 0003:00000700       ?maxFError@_VecMathTests@aos@shdfnd@physx@@3T__m128@@B 0000000180039700     MeshBuilder.obj
 0003:00000710       ?maxV3Error@_VecMathTests@aos@shdfnd@physx@@3T__m128@@B 0000000180039710     TriangleMeshBuilder.obj
 0003:00000720       ?minFError@_VecMathTests@aos@shdfnd@physx@@3T__m128@@B 0000000180039720     TriangleMeshBuilder.obj
 0003:00000730       ?maxV4Error@_VecMathTests@aos@shdfnd@physx@@3T__m128@@B 0000000180039730     TriangleMeshBuilder.obj
 0003:00000740       ?minV4Error@_VecMathTests@aos@shdfnd@physx@@3T__m128@@B 0000000180039740     TriangleMeshBuilder.obj
 0003:00000750       ?minV3Error@_VecMathTests@aos@shdfnd@physx@@3T__m128@@B 0000000180039750     TriangleMeshBuilder.obj
 0003:00000760       ?maxFError@_VecMathTests@aos@shdfnd@physx@@3T__m128@@B 0000000180039760     TriangleMeshBuilder.obj
 0003:00000770       ?maxV3Error@_VecMathTests@aos@shdfnd@physx@@3T__m128@@B 0000000180039770     BigConvexDataBuilder.obj
 0003:00000780       ?minFError@_VecMathTests@aos@shdfnd@physx@@3T__m128@@B 0000000180039780     BigConvexDataBuilder.obj
 0003:00000790       ?maxV4Error@_VecMathTests@aos@shdfnd@physx@@3T__m128@@B 0000000180039790     BigConvexDataBuilder.obj
 0003:000007a0       ?minV4Error@_VecMathTests@aos@shdfnd@physx@@3T__m128@@B 00000001800397a0     BigConvexDataBuilder.obj
 0003:000007b0       ?minV3Error@_VecMathTests@aos@shdfnd@physx@@3T__m128@@B 00000001800397b0     BigConvexDataBuilder.obj
 0003:000007c0       ?maxFError@_VecMathTests@aos@shdfnd@physx@@3T__m128@@B 00000001800397c0     BigConvexDataBuilder.obj
 0003:000007d0       ?maxV3Error@_VecMathTests@aos@shdfnd@physx@@3T__m128@@B 00000001800397d0     ConvexHullBuilder.obj
 0003:000007e0       ?minFError@_VecMathTests@aos@shdfnd@physx@@3T__m128@@B 00000001800397e0     ConvexHullBuilder.obj
 0003:000007f0       ?maxV4Error@_VecMathTests@aos@shdfnd@physx@@3T__m128@@B 00000001800397f0     ConvexHullBuilder.obj
 0003:00000800       ?minV4Error@_VecMathTests@aos@shdfnd@physx@@3T__m128@@B 0000000180039800     ConvexHullBuilder.obj
 0003:00000810       ?minV3Error@_VecMathTests@aos@shdfnd@physx@@3T__m128@@B 0000000180039810     ConvexHullBuilder.obj
 0003:00000820       ?maxFError@_VecMathTests@aos@shdfnd@physx@@3T__m128@@B 0000000180039820     ConvexHullBuilder.obj
 0003:00000830       ?maxV3Error@_VecMathTests@aos@shdfnd@physx@@3T__m128@@B 0000000180039830     ConvexHullUtils.obj
 0003:00000840       ?minFError@_VecMathTests@aos@shdfnd@physx@@3T__m128@@B 0000000180039840     ConvexHullUtils.obj
 0003:00000850       ?maxV4Error@_VecMathTests@aos@shdfnd@physx@@3T__m128@@B 0000000180039850     ConvexHullUtils.obj
 0003:00000860       ?minV4Error@_VecMathTests@aos@shdfnd@physx@@3T__m128@@B 0000000180039860     ConvexHullUtils.obj
 0003:00000870       ?minV3Error@_VecMathTests@aos@shdfnd@physx@@3T__m128@@B 0000000180039870     ConvexHullUtils.obj
 0003:00000880       ?maxFError@_VecMathTests@aos@shdfnd@physx@@3T__m128@@B 0000000180039880     ConvexHullUtils.obj
 0003:00000890       ?maxV3Error@_VecMathTests@aos@shdfnd@physx@@3T__m128@@B 0000000180039890     ConvexMeshBuilder.obj
 0003:000008a0       ?minFError@_VecMathTests@aos@shdfnd@physx@@3T__m128@@B 00000001800398a0     ConvexMeshBuilder.obj
 0003:000008b0       ?maxV4Error@_VecMathTests@aos@shdfnd@physx@@3T__m128@@B 00000001800398b0     ConvexMeshBuilder.obj
 0003:000008c0       ?minV4Error@_VecMathTests@aos@shdfnd@physx@@3T__m128@@B 00000001800398c0     ConvexMeshBuilder.obj
 0003:000008d0       ?minV3Error@_VecMathTests@aos@shdfnd@physx@@3T__m128@@B 00000001800398d0     ConvexMeshBuilder.obj
 0003:000008e0       ?maxFError@_VecMathTests@aos@shdfnd@physx@@3T__m128@@B 00000001800398e0     ConvexMeshBuilder.obj
 0003:000008f0       ?maxV3Error@_VecMathTests@aos@shdfnd@physx@@3T__m128@@B 00000001800398f0     VolumeIntegration.obj
 0003:00000900       ?minFError@_VecMathTests@aos@shdfnd@physx@@3T__m128@@B 0000000180039900     VolumeIntegration.obj
 0003:00000910       ?maxV4Error@_VecMathTests@aos@shdfnd@physx@@3T__m128@@B 0000000180039910     VolumeIntegration.obj
 0003:00000920       ?minV4Error@_VecMathTests@aos@shdfnd@physx@@3T__m128@@B 0000000180039920     VolumeIntegration.obj
 0003:00000930       ?minV3Error@_VecMathTests@aos@shdfnd@physx@@3T__m128@@B 0000000180039930     VolumeIntegration.obj
 0003:00000940       ?maxFError@_VecMathTests@aos@shdfnd@physx@@3T__m128@@B 0000000180039940     VolumeIntegration.obj
 0003:00000950       ?gDelayLoadHook@@3PEBVPxDelayLoadHook@physx@@EB 0000000180039950     WindowsCookingDelayLoadHook.obj
 0003:000009b0       ?__proc_attached@@3HA      00000001800399b0     MSVCRT:dll_dllmain.obj
 0003:000009d8       ?is_initialized_as_dll@@3_NA 00000001800399d8     MSVCRT:utility.obj
 0003:000009d9       ?module_local_atexit_table_initialized@@3_NA 00000001800399d9     MSVCRT:utility.obj
 0003:000009e0       ?module_local_atexit_table@@3U_onexit_table_t@@A 00000001800399e0     MSVCRT:utility.obj
 0003:000009f8       ?module_local_at_quick_exit_table@@3U_onexit_table_t@@A 00000001800399f8     MSVCRT:utility.obj
 0004:00000000       $pdata$??_H@YAXPEAX_K1P6APEAX0@Z@Z 000000018003a000     Adjacencies.obj
 0004:0000000c       $pdata$??_I@YAXPEAX_K1P6AX0@Z@Z 000000018003a00c     Adjacencies.obj
 0004:00000018       $pdata$??_GPxFoundation@physx@@MEAAPEAXI@Z 000000018003a018     Adjacencies.obj
 0004:00000024       $pdata$??_EPxFoundation@physx@@MEAAPEAXI@Z 000000018003a024     Adjacencies.obj
 0004:00000030       $pdata$0$??_EPxFoundation@physx@@MEAAPEAXI@Z 000000018003a030     Adjacencies.obj
 0004:0000003c       $pdata$1$??_EPxFoundation@physx@@MEAAPEAXI@Z 000000018003a03c     Adjacencies.obj
 0004:00000048       $pdata$??_EAdjTriangle@physx@@QEAAPEAXI@Z 000000018003a048     Adjacencies.obj
 0004:00000054       $pdata$??1Adjacencies@physx@@QEAA@XZ 000000018003a054     Adjacencies.obj
 0004:00000060       $pdata$0$??1Adjacencies@physx@@QEAA@XZ 000000018003a060     Adjacencies.obj
 0004:0000006c       $pdata$2$??1Adjacencies@physx@@QEAA@XZ 000000018003a06c     Adjacencies.obj
 0004:00000078       $pdata$3$??1Adjacencies@physx@@QEAA@XZ 000000018003a078     Adjacencies.obj
 0004:00000084       $pdata$?Load@Adjacencies@physx@@QEAA_NAEAVPxInputStream@2@@Z 000000018003a084     Adjacencies.obj
 0004:00000090       $pdata$?GetBoundaryVertices@Adjacencies@physx@@QEBA_NIPEA_NPEBU?$TriangleT@I@Gu@2@@Z 000000018003a090     Adjacencies.obj
 0004:0000009c       $pdata$?MakeLastRef@Adjacencies@physx@@QEAA_NAEAVAdjTriangle@2@IPEAU?$TriangleT@I@Gu@2@@Z 000000018003a09c     Adjacencies.obj
 0004:000000a8       $pdata$1$?MakeLastRef@Adjacencies@physx@@QEAA_NAEAVAdjTriangle@2@IPEAU?$TriangleT@I@Gu@2@@Z 000000018003a0a8     Adjacencies.obj
 0004:000000b4       $pdata$3$?MakeLastRef@Adjacencies@physx@@QEAA_NAEAVAdjTriangle@2@IPEAU?$TriangleT@I@Gu@2@@Z 000000018003a0b4     Adjacencies.obj
 0004:000000c0       $pdata$5$?MakeLastRef@Adjacencies@physx@@QEAA_NAEAVAdjTriangle@2@IPEAU?$TriangleT@I@Gu@2@@Z 000000018003a0c0     Adjacencies.obj
 0004:000000cc       $pdata$7$?MakeLastRef@Adjacencies@physx@@QEAA_NAEAVAdjTriangle@2@IPEAU?$TriangleT@I@Gu@2@@Z 000000018003a0cc     Adjacencies.obj
 0004:000000d8       $pdata$?Init@AdjacenciesBuilder@physx@@QEAA_NAEBUADJACENCIESCREATE@2@@Z 000000018003a0d8     Adjacencies.obj
 0004:000000e4       $pdata$3$?Init@AdjacenciesBuilder@physx@@QEAA_NAEBUADJACENCIESCREATE@2@@Z 000000018003a0e4     Adjacencies.obj
 0004:000000f0       $pdata$4$?Init@AdjacenciesBuilder@physx@@QEAA_NAEBUADJACENCIESCREATE@2@@Z 000000018003a0f0     Adjacencies.obj
 0004:000000fc       $pdata$5$?Init@AdjacenciesBuilder@physx@@QEAA_NAEBUADJACENCIESCREATE@2@@Z 000000018003a0fc     Adjacencies.obj
 0004:00000108       $pdata$??$?_UV?$ReflectionAllocator@VAdjTriangle@physx@@@shdfnd@physx@@@UserAllocated@shdfnd@physx@@SAPEAX_KV?$ReflectionAllocator@VAdjTriangle@physx@@@12@PEBDH@Z 000000018003a108     Adjacencies.obj
 0004:00000114       $pdata$0$??$?_UV?$ReflectionAllocator@VAdjTriangle@physx@@@shdfnd@physx@@@UserAllocated@shdfnd@physx@@SAPEAX_KV?$ReflectionAllocator@VAdjTriangle@physx@@@12@PEBDH@Z 000000018003a114     Adjacencies.obj
 0004:00000120       $pdata$1$??$?_UV?$ReflectionAllocator@VAdjTriangle@physx@@@shdfnd@physx@@@UserAllocated@shdfnd@physx@@SAPEAX_KV?$ReflectionAllocator@VAdjTriangle@physx@@@12@PEBDH@Z 000000018003a120     Adjacencies.obj
 0004:0000012c       $pdata$??_EAdjEdge@@QEAAPEAXI@Z 000000018003a12c     Adjacencies.obj
 0004:00000138       $pdata$?UpdateLink@@YA_NIIIIPEAVAdjTriangle@physx@@AEBUADJACENCIESCREATE@2@@Z 000000018003a138     Adjacencies.obj
 0004:00000144       $pdata$3$?UpdateLink@@YA_NIIIIPEAVAdjTriangle@physx@@AEBUADJACENCIESCREATE@2@@Z 000000018003a144     Adjacencies.obj
 0004:00000150       $pdata$5$?UpdateLink@@YA_NIIIIPEAVAdjTriangle@physx@@AEBUADJACENCIESCREATE@2@@Z 000000018003a150     Adjacencies.obj
 0004:0000015c       $pdata$6$?UpdateLink@@YA_NIIIIPEAVAdjTriangle@physx@@AEBUADJACENCIESCREATE@2@@Z 000000018003a15c     Adjacencies.obj
 0004:00000168       $pdata$7$?UpdateLink@@YA_NIIIIPEAVAdjTriangle@physx@@AEBUADJACENCIESCREATE@2@@Z 000000018003a168     Adjacencies.obj
 0004:00000174       $pdata$8$?UpdateLink@@YA_NIIIIPEAVAdjTriangle@physx@@AEBUADJACENCIESCREATE@2@@Z 000000018003a174     Adjacencies.obj
 0004:00000180       $pdata$?CreateDatabase@@YA_NPEAVAdjTriangle@physx@@IPEBVAdjEdge@@AEBUADJACENCIESCREATE@2@@Z 000000018003a180     Adjacencies.obj
 0004:0000018c       $pdata$??_GPxBase@physx@@MEAAPEAXI@Z 000000018003a18c     Cooking.obj
 0004:00000198       $pdata$?isKindOf@PxConvexMesh@physx@@MEBA_NPEBD@Z 000000018003a198     Cooking.obj
 0004:000001a4       $pdata$??_EPxConvexMesh@physx@@MEAAPEAXI@Z 000000018003a1a4     Cooking.obj
 0004:000001b0       $pdata$0$??_EPxConvexMesh@physx@@MEAAPEAXI@Z 000000018003a1b0     Cooking.obj
 0004:000001bc       $pdata$1$??_EPxConvexMesh@physx@@MEAAPEAXI@Z 000000018003a1bc     Cooking.obj
 0004:000001c8       $pdata$??_GPxCooking@physx@@MEAAPEAXI@Z 000000018003a1c8     Cooking.obj
 0004:000001d4       $pdata$PxCreateCooking     000000018003a1d4     Cooking.obj
 0004:000001e0       $pdata$?release@Cooking@physx@@UEAAXXZ 000000018003a1e0     Cooking.obj
 0004:000001ec       $pdata$?cookTriangleMesh@Cooking@physx@@UEBA_NAEBVPxTriangleMeshDesc@2@AEAVPxOutputStream@2@PEAW4Enum@PxTriangleMeshCookingResult@2@@Z 000000018003a1ec     Cooking.obj
 0004:000001f8       $pdata$?createTriangleMesh@Cooking@physx@@UEBAPEAVPxTriangleMesh@2@AEBVPxTriangleMeshDesc@2@AEAVPxPhysicsInsertionCallback@2@PEAW4Enum@PxTriangleMeshCookingResult@2@@Z 000000018003a1f8     Cooking.obj
 0004:00000204       $pdata$?validateTriangleMesh@Cooking@physx@@UEBA_NAEBVPxTriangleMeshDesc@2@@Z 000000018003a204     Cooking.obj
 0004:00000210       $pdata$?cookConvexMesh@Cooking@physx@@UEBA_NAEBVPxConvexMeshDesc@2@AEAVPxOutputStream@2@PEAW4Enum@PxConvexMeshCookingResult@2@@Z 000000018003a210     Cooking.obj
 0004:0000021c       $pdata$?createConvexMesh@Cooking@physx@@UEBAPEAVPxConvexMesh@2@AEBVPxConvexMeshDesc@2@AEAVPxPhysicsInsertionCallback@2@PEAW4Enum@PxConvexMeshCookingResult@2@@Z 000000018003a21c     Cooking.obj
 0004:00000228       $pdata$?validateConvexMesh@Cooking@physx@@UEBA_NAEBVPxConvexMeshDesc@2@@Z 000000018003a228     Cooking.obj
 0004:00000234       $pdata$?computeHullPolygons@Cooking@physx@@UEBA_NAEBVPxSimpleTriangleMesh@2@AEAVPxAllocatorCallback@2@AEAIAEAPEAVPxVec3@2@2AEAPEAI2AEAPEAUPxHullPolygon@2@@Z 000000018003a234     Cooking.obj
 0004:00000240       $pdata$?cookHeightField@Cooking@physx@@UEBA_NAEBVPxHeightFieldDesc@2@AEAVPxOutputStream@2@@Z 000000018003a240     Cooking.obj
 0004:0000024c       $pdata$?createHeightField@Cooking@physx@@UEBAPEAVPxHeightField@2@AEBVPxHeightFieldDesc@2@AEAVPxPhysicsInsertionCallback@2@@Z 000000018003a24c     Cooking.obj
 0004:00000258       $pdata$?cookBVHStructure@Cooking@physx@@UEBA_NAEBVPxBVHStructureDesc@2@AEAVPxOutputStream@2@@Z 000000018003a258     Cooking.obj
 0004:00000264       $pdata$?createBVHStructure@Cooking@physx@@UEBAPEAVPxBVHStructure@2@AEBVPxBVHStructureDesc@2@AEAVPxPhysicsInsertionCallback@2@@Z 000000018003a264     Cooking.obj
 0004:00000270       $pdata$?cookConvexMeshInternal@Cooking@physx@@AEBA_NAEBVPxConvexMeshDesc@2@AEAVConvexMeshBuilder@2@PEAVConvexHullLib@2@PEAW4Enum@PxConvexMeshCookingResult@2@@Z 000000018003a270     Cooking.obj
 0004:0000027c       $pdata$1$?cookConvexMeshInternal@Cooking@physx@@AEBA_NAEBVPxConvexMeshDesc@2@AEAVConvexMeshBuilder@2@PEAVConvexHullLib@2@PEAW4Enum@PxConvexMeshCookingResult@2@@Z 000000018003a27c     Cooking.obj
 0004:00000288       $pdata$2$?cookConvexMeshInternal@Cooking@physx@@AEBA_NAEBVPxConvexMeshDesc@2@AEAVConvexMeshBuilder@2@PEAVConvexHullLib@2@PEAW4Enum@PxConvexMeshCookingResult@2@@Z 000000018003a288     Cooking.obj
 0004:00000294       $pdata$3$?cookConvexMeshInternal@Cooking@physx@@AEBA_NAEBVPxConvexMeshDesc@2@AEAVConvexMeshBuilder@2@PEAVConvexHullLib@2@PEAW4Enum@PxConvexMeshCookingResult@2@@Z 000000018003a294     Cooking.obj
 0004:000002a0       $pdata$4$?cookConvexMeshInternal@Cooking@physx@@AEBA_NAEBVPxConvexMeshDesc@2@AEAVConvexMeshBuilder@2@PEAVConvexHullLib@2@PEAW4Enum@PxConvexMeshCookingResult@2@@Z 000000018003a2a0     Cooking.obj
 0004:000002ac       $pdata$?cookTriangleMesh@Cooking@physx@@AEBA_NAEAVTriangleMeshBuilder@2@AEBVPxTriangleMeshDesc@2@AEAVPxOutputStream@2@PEAW4Enum@PxTriangleMeshCookingResult@2@@Z 000000018003a2ac     Cooking.obj
 0004:000002b8       $pdata$?createTriangleMesh@Cooking@physx@@AEBAPEAVPxTriangleMesh@2@AEAVTriangleMeshBuilder@2@AEBVPxTriangleMeshDesc@2@AEAVPxPhysicsInsertionCallback@2@PEAW4Enum@PxTriangleMeshCookingResult@2@@Z 000000018003a2b8     Cooking.obj
 0004:000002c4       $pdata$??_GCooking@physx@@UEAAPEAXI@Z 000000018003a2c4     Cooking.obj
 0004:000002d0       $pdata$??_GRefCountable@Cm@physx@@UEAAPEAXI@Z 000000018003a2d0     Cooking.obj
 0004:000002dc       $pdata$?recreate@?$Array@UPxDebugLine@physx@@VNamedAllocator@shdfnd@2@@shdfnd@physx@@IEAAXI@Z 000000018003a2dc     Cooking.obj
 0004:000002e8       $pdata$0$?recreate@?$Array@UPxDebugLine@physx@@VNamedAllocator@shdfnd@2@@shdfnd@physx@@IEAAXI@Z 000000018003a2e8     Cooking.obj
 0004:000002f4       $pdata$1$?recreate@?$Array@UPxDebugLine@physx@@VNamedAllocator@shdfnd@2@@shdfnd@physx@@IEAAXI@Z 000000018003a2f4     Cooking.obj
 0004:00000300       $pdata$?reserveSegments@RenderOutput@Cm@physx@@QEAAPEAUPxDebugLine@3@I@Z 000000018003a300     Cooking.obj
 0004:0000030c       $pdata$?outputSegment@RenderOutput@Cm@physx@@QEAAXAEBVPxVec3@3@0@Z 000000018003a30c     Cooking.obj
 0004:00000318       $pdata$??_EConvexMesh@Gu@physx@@UEAAPEAXI@Z 000000018003a318     Cooking.obj
 0004:00000324       $pdata$2$??_EConvexMesh@Gu@physx@@UEAAPEAXI@Z 000000018003a324     Cooking.obj
 0004:00000330       $pdata$3$??_EConvexMesh@Gu@physx@@UEAAPEAXI@Z 000000018003a330     Cooking.obj
 0004:0000033c       $pdata$5$??_EConvexMesh@Gu@physx@@UEAAPEAXI@Z 000000018003a33c     Cooking.obj
 0004:00000348       $pdata$6$??_EConvexMesh@Gu@physx@@UEAAPEAXI@Z 000000018003a348     Cooking.obj
 0004:00000354       $pdata$?isKindOf@PxHeightField@physx@@MEBA_NPEBD@Z 000000018003a354     Cooking.obj
 0004:00000360       $pdata$?getHeight@HeightField@Gu@physx@@UEBAMMM@Z 000000018003a360     Cooking.obj
 0004:0000036c       $pdata$?getTriangleNormal@HeightField@Gu@physx@@UEBA?AVPxVec3@3@I@Z 000000018003a36c     Cooking.obj
 0004:00000378       $pdata$?getHeightInternal2@HeightField@Gu@physx@@QEBAMIMM@Z 000000018003a378     Cooking.obj
 0004:00000384       $pdata$0$?getHeightInternal2@HeightField@Gu@physx@@QEBAMIMM@Z 000000018003a384     Cooking.obj
 0004:00000390       $pdata$2$?getHeightInternal2@HeightField@Gu@physx@@QEBAMIMM@Z 000000018003a390     Cooking.obj
 0004:0000039c       $pdata$?Clean@ReducedVertexCloud@physx@@QEAAAEAV12@XZ 000000018003a39c     CookingUtils.obj
 0004:000003a8       $pdata$?Reduce@ReducedVertexCloud@physx@@QEAA_NPEAUREDUCEDCLOUD@2@@Z 000000018003a3a8     CookingUtils.obj
 0004:000003b4       $pdata$??1EdgeList@Gu@physx@@QEAA@XZ 000000018003a3b4     EdgeList.obj
 0004:000003c0       $pdata$?load@EdgeList@Gu@physx@@QEAA_NAEAVPxInputStream@3@@Z 000000018003a3c0     EdgeList.obj
 0004:000003cc       $pdata$?init@EdgeListBuilder@Gu@physx@@QEAA_NAEBUEDGELISTCREATE@23@@Z 000000018003a3cc     EdgeList.obj
 0004:000003d8       $pdata$?createFacesToEdges@EdgeListBuilder@Gu@physx@@AEAA_NIPEBIPEBG@Z 000000018003a3d8     EdgeList.obj
 0004:000003e4       $pdata$3$?createFacesToEdges@EdgeListBuilder@Gu@physx@@AEAA_NIPEBIPEBG@Z 000000018003a3e4     EdgeList.obj
 0004:000003f0       $pdata$4$?createFacesToEdges@EdgeListBuilder@Gu@physx@@AEAA_NIPEBIPEBG@Z 000000018003a3f0     EdgeList.obj
 0004:000003fc       $pdata$5$?createFacesToEdges@EdgeListBuilder@Gu@physx@@AEAA_NIPEBIPEBG@Z 000000018003a3fc     EdgeList.obj
 0004:00000408       $pdata$6$?createFacesToEdges@EdgeListBuilder@Gu@physx@@AEAA_NIPEBIPEBG@Z 000000018003a408     EdgeList.obj
 0004:00000414       $pdata$?createEdgesToFaces@EdgeListBuilder@Gu@physx@@AEAA_NIPEBIPEBG@Z 000000018003a414     EdgeList.obj
 0004:00000420       $pdata$1$?createEdgesToFaces@EdgeListBuilder@Gu@physx@@AEAA_NIPEBIPEBG@Z 000000018003a420     EdgeList.obj
 0004:0000042c       $pdata$2$?createEdgesToFaces@EdgeListBuilder@Gu@physx@@AEAA_NIPEBIPEBG@Z 000000018003a42c     EdgeList.obj
 0004:00000438       $pdata$?computeActiveEdges@EdgeListBuilder@Gu@physx@@AEAA_NIPEBIPEBGPEBVPxVec3@3@M@Z 000000018003a438     EdgeList.obj
 0004:00000444       $pdata$0$?computeActiveEdges@EdgeListBuilder@Gu@physx@@AEAA_NIPEBIPEBGPEBVPxVec3@3@M@Z 000000018003a444     EdgeList.obj
 0004:00000450       $pdata$4$?computeActiveEdges@EdgeListBuilder@Gu@physx@@AEAA_NIPEBIPEBGPEBVPxVec3@3@M@Z 000000018003a450     EdgeList.obj
 0004:0000045c       $pdata$16$?computeActiveEdges@EdgeListBuilder@Gu@physx@@AEAA_NIPEBIPEBGPEBVPxVec3@3@M@Z 000000018003a45c     EdgeList.obj
 0004:00000468       $pdata$17$?computeActiveEdges@EdgeListBuilder@Gu@physx@@AEAA_NIPEBIPEBGPEBVPxVec3@3@M@Z 000000018003a468     EdgeList.obj
 0004:00000474       $pdata$18$?computeActiveEdges@EdgeListBuilder@Gu@physx@@AEAA_NIPEBIPEBGPEBVPxVec3@3@M@Z 000000018003a474     EdgeList.obj
 0004:00000480       $pdata$2$?computeActiveEdges@EdgeListBuilder@Gu@physx@@AEAA_NIPEBIPEBGPEBVPxVec3@3@M@Z 000000018003a480     EdgeList.obj
 0004:0000048c       $pdata$19$?computeActiveEdges@EdgeListBuilder@Gu@physx@@AEAA_NIPEBIPEBGPEBVPxVec3@3@M@Z 000000018003a48c     EdgeList.obj
 0004:00000498       $pdata$??$?_UI@@YAPEAX_KV?$ReflectionAllocator@I@shdfnd@physx@@PEBDH@Z 000000018003a498     EdgeList.obj
 0004:000004a4       $pdata$0$??$?_UI@@YAPEAX_KV?$ReflectionAllocator@I@shdfnd@physx@@PEBDH@Z 000000018003a4a4     EdgeList.obj
 0004:000004b0       $pdata$1$??$?_UI@@YAPEAX_KV?$ReflectionAllocator@I@shdfnd@physx@@PEBDH@Z 000000018003a4b0     EdgeList.obj
 0004:000004bc       $pdata$??0MeshCleaner@physx@@QEAA@IPEBVPxVec3@1@IPEBIM@Z 000000018003a4bc     MeshCleaner.obj
 0004:000004c8       $pdata$1$??0MeshCleaner@physx@@QEAA@IPEBVPxVec3@1@IPEBIM@Z 000000018003a4c8     MeshCleaner.obj
 0004:000004d4       $pdata$5$??0MeshCleaner@physx@@QEAA@IPEBVPxVec3@1@IPEBIM@Z 000000018003a4d4     MeshCleaner.obj
 0004:000004e0       $pdata$7$??0MeshCleaner@physx@@QEAA@IPEBVPxVec3@1@IPEBIM@Z 000000018003a4e0     MeshCleaner.obj
 0004:000004ec       $pdata$8$??0MeshCleaner@physx@@QEAA@IPEBVPxVec3@1@IPEBIM@Z 000000018003a4ec     MeshCleaner.obj
 0004:000004f8       $pdata$9$??0MeshCleaner@physx@@QEAA@IPEBVPxVec3@1@IPEBIM@Z 000000018003a4f8     MeshCleaner.obj
 0004:00000504       $pdata$10$??0MeshCleaner@physx@@QEAA@IPEBVPxVec3@1@IPEBIM@Z 000000018003a504     MeshCleaner.obj
 0004:00000510       $pdata$11$??0MeshCleaner@physx@@QEAA@IPEBVPxVec3@1@IPEBIM@Z 000000018003a510     MeshCleaner.obj
 0004:0000051c       $pdata$12$??0MeshCleaner@physx@@QEAA@IPEBVPxVec3@1@IPEBIM@Z 000000018003a51c     MeshCleaner.obj
 0004:00000528       $pdata$13$??0MeshCleaner@physx@@QEAA@IPEBVPxVec3@1@IPEBIM@Z 000000018003a528     MeshCleaner.obj
 0004:00000534       $pdata$14$??0MeshCleaner@physx@@QEAA@IPEBVPxVec3@1@IPEBIM@Z 000000018003a534     MeshCleaner.obj
 0004:00000540       $pdata$??1MeshCleaner@physx@@QEAA@XZ 000000018003a540     MeshCleaner.obj
 0004:0000054c       $pdata$??_GQuantizer@physx@@MEAAPEAXI@Z 000000018003a54c     Quantizer.obj
 0004:00000558       $pdata$?createQuantizer@physx@@YAPEAVQuantizer@1@XZ 000000018003a558     Quantizer.obj
 0004:00000564       $pdata$??$kmeans_cluster@VPxVec3@physx@@M@@YAIPEBVPxVec3@physx@@IIPEAV01@PEAIMM@Z 000000018003a564     Quantizer.obj
 0004:00000570       $pdata$6$??$kmeans_cluster@VPxVec3@physx@@M@@YAIPEBVPxVec3@physx@@IIPEAV01@PEAIMM@Z 000000018003a570     Quantizer.obj
 0004:0000057c       $pdata$12$??$kmeans_cluster@VPxVec3@physx@@M@@YAIPEBVPxVec3@physx@@IIPEAV01@PEAIMM@Z 000000018003a57c     Quantizer.obj
 0004:00000588       $pdata$13$??$kmeans_cluster@VPxVec3@physx@@M@@YAIPEBVPxVec3@physx@@IIPEAV01@PEAIMM@Z 000000018003a588     Quantizer.obj
 0004:00000594       $pdata$14$??$kmeans_cluster@VPxVec3@physx@@M@@YAIPEBVPxVec3@physx@@IIPEAV01@PEAIMM@Z 000000018003a594     Quantizer.obj
 0004:000005a0       $pdata$?kmeansQuantize3D@QuantizerImpl@@UEAAPEBVPxVec3@physx@@IPEBV23@I_NIAEAI@Z 000000018003a5a0     Quantizer.obj
 0004:000005ac       $pdata$0$?kmeansQuantize3D@QuantizerImpl@@UEAAPEBVPxVec3@physx@@IPEBV23@I_NIAEAI@Z 000000018003a5ac     Quantizer.obj
 0004:000005b8       $pdata$2$?kmeansQuantize3D@QuantizerImpl@@UEAAPEBVPxVec3@physx@@IPEBV23@I_NIAEAI@Z 000000018003a5b8     Quantizer.obj
 0004:000005c4       $pdata$3$?kmeansQuantize3D@QuantizerImpl@@UEAAPEBVPxVec3@physx@@IPEBV23@I_NIAEAI@Z 000000018003a5c4     Quantizer.obj
 0004:000005d0       $pdata$4$?kmeansQuantize3D@QuantizerImpl@@UEAAPEBVPxVec3@physx@@IPEBV23@I_NIAEAI@Z 000000018003a5d0     Quantizer.obj
 0004:000005dc       $pdata$5$?kmeansQuantize3D@QuantizerImpl@@UEAAPEBVPxVec3@physx@@IPEBV23@I_NIAEAI@Z 000000018003a5dc     Quantizer.obj
 0004:000005e8       $pdata$?normalizeInput@QuantizerImpl@@AEAAXIPEBVPxVec3@physx@@I@Z 000000018003a5e8     Quantizer.obj
 0004:000005f4       $pdata$6$?normalizeInput@QuantizerImpl@@AEAAXIPEBVPxVec3@physx@@I@Z 000000018003a5f4     Quantizer.obj
 0004:00000600       $pdata$7$?normalizeInput@QuantizerImpl@@AEAAXIPEBVPxVec3@physx@@I@Z 000000018003a600     Quantizer.obj
 0004:0000060c       $pdata$8$?normalizeInput@QuantizerImpl@@AEAAXIPEBVPxVec3@physx@@I@Z 000000018003a60c     Quantizer.obj
 0004:00000618       $pdata$9$?normalizeInput@QuantizerImpl@@AEAAXIPEBVPxVec3@physx@@I@Z 000000018003a618     Quantizer.obj
 0004:00000624       $pdata$??1QuantizerImpl@@EEAA@XZ 000000018003a624     Quantizer.obj
 0004:00000630       $pdata$?growAndPushBack@?$Array@VPxVec3@physx@@VNamedAllocator@shdfnd@2@@shdfnd@physx@@IEAAAEAVPxVec3@3@AEBV43@@Z 000000018003a630     Quantizer.obj
 0004:0000063c       $pdata$??_GQuantizerImpl@@EEAAPEAXI@Z 000000018003a63c     Quantizer.obj
 0004:00000648       $pdata$??1BVHStructureBuilder@physx@@QEAA@XZ 000000018003a648     BVHStructureBuilder.obj
 0004:00000654       $pdata$?loadFromDesc@BVHStructureBuilder@physx@@QEAA_NAEBVPxBVHStructureDesc@2@@Z 000000018003a654     BVHStructureBuilder.obj
 0004:00000660       $pdata$2$?loadFromDesc@BVHStructureBuilder@physx@@QEAA_NAEBVPxBVHStructureDesc@2@@Z 000000018003a660     BVHStructureBuilder.obj
 0004:0000066c       $pdata$5$?loadFromDesc@BVHStructureBuilder@physx@@QEAA_NAEBVPxBVHStructureDesc@2@@Z 000000018003a66c     BVHStructureBuilder.obj
 0004:00000678       $pdata$6$?loadFromDesc@BVHStructureBuilder@physx@@QEAA_NAEBVPxBVHStructureDesc@2@@Z 000000018003a678     BVHStructureBuilder.obj
 0004:00000684       $pdata$7$?loadFromDesc@BVHStructureBuilder@physx@@QEAA_NAEBVPxBVHStructureDesc@2@@Z 000000018003a684     BVHStructureBuilder.obj
 0004:00000690       $pdata$?save@BVHStructureBuilder@physx@@QEBA_NAEAVPxOutputStream@2@_N@Z 000000018003a690     BVHStructureBuilder.obj
 0004:0000069c       $pdata$2$?save@BVHStructureBuilder@physx@@QEBA_NAEAVPxOutputStream@2@_N@Z 000000018003a69c     BVHStructureBuilder.obj
 0004:000006a8       $pdata$3$?save@BVHStructureBuilder@physx@@QEBA_NAEAVPxOutputStream@2@_N@Z 000000018003a6a8     BVHStructureBuilder.obj
 0004:000006b4       $pdata$?flatten@@YAXAEBVNodeAllocator@Gu@physx@@PEAUBVHNode@23@@Z 000000018003a6b4     BVHStructureBuilder.obj
 0004:000006c0       $pdata$4$?flatten@@YAXAEBVNodeAllocator@Gu@physx@@PEAUBVHNode@23@@Z 000000018003a6c0     BVHStructureBuilder.obj
 0004:000006cc       $pdata$5$?flatten@@YAXAEBVNodeAllocator@Gu@physx@@PEAUBVHNode@23@@Z 000000018003a6cc     BVHStructureBuilder.obj
 0004:000006d8       $pdata$??1AABBTreeBuildParams@Gu@physx@@QEAA@XZ 000000018003a6d8     BVHStructureBuilder.obj
 0004:000006e4       $pdata$?reset@AABBTreeBuildParams@Gu@physx@@QEAAXXZ 000000018003a6e4     BVHStructureBuilder.obj
 0004:000006f0       $pdata$?recreate@?$Array@USlab@NodeAllocator@Gu@physx@@VNamedAllocator@shdfnd@4@@shdfnd@physx@@IEAAXI@Z 000000018003a6f0     BVHStructureBuilder.obj
 0004:000006fc       $pdata$??0NodeAllocator@Gu@physx@@QEAA@AEBV012@@Z 000000018003a6fc     BVHStructureBuilder.obj
 0004:00000708       $pdata$??4NodeAllocator@Gu@physx@@QEAAAEAV012@AEBV012@@Z 000000018003a708     BVHStructureBuilder.obj
 0004:00000714       $pdata$??$copy@VNamedAllocator@shdfnd@physx@@@?$Array@USlab@NodeAllocator@Gu@physx@@VNamedAllocator@shdfnd@4@@shdfnd@physx@@IEAAXAEBV012@@Z 000000018003a714     BVHStructureBuilder.obj
 0004:00000720       $pdata$0$??$copy@VNamedAllocator@shdfnd@physx@@@?$Array@USlab@NodeAllocator@Gu@physx@@VNamedAllocator@shdfnd@4@@shdfnd@physx@@IEAAXAEBV012@@Z 000000018003a720     BVHStructureBuilder.obj
 0004:0000072c       $pdata$1$??$copy@VNamedAllocator@shdfnd@physx@@@?$Array@USlab@NodeAllocator@Gu@physx@@VNamedAllocator@shdfnd@4@@shdfnd@physx@@IEAAXAEBV012@@Z 000000018003a72c     BVHStructureBuilder.obj
 0004:00000738       $pdata$?saveHeightField@physx@@YA_NAEBVHeightField@Gu@1@AEAVPxOutputStream@1@_N@Z 000000018003a738     HeightFieldCooking.obj
 0004:00000744       $pdata$2$?saveHeightField@physx@@YA_NAEBVHeightField@Gu@1@AEAVPxOutputStream@1@_N@Z 000000018003a744     HeightFieldCooking.obj
 0004:00000750       $pdata$3$?saveHeightField@physx@@YA_NAEBVHeightField@Gu@1@AEAVPxOutputStream@1@_N@Z 000000018003a750     HeightFieldCooking.obj
 0004:0000075c       $pdata$?buildFromTriangles@RTreeCooker@physx@@SAXAEAURTree@Gu@2@PEBVPxVec3@2@IPEBGPEBIIAEAV?$Array@IVNamedAllocator@shdfnd@physx@@@shdfnd@2@PEAURemapCallback@12@MW4Enum@PxMeshCookingHint@2@@Z 000000018003a75c     RTreeCooking.obj
 0004:00000768       $pdata$7$?buildFromTriangles@RTreeCooker@physx@@SAXAEAURTree@Gu@2@PEBVPxVec3@2@IPEBGPEBIIAEAV?$Array@IVNamedAllocator@shdfnd@physx@@@shdfnd@2@PEAURemapCallback@12@MW4Enum@PxMeshCookingHint@2@@Z 000000018003a768     RTreeCooking.obj
 0004:00000774       $pdata$8$?buildFromTriangles@RTreeCooker@physx@@SAXAEAURTree@Gu@2@PEBVPxVec3@2@IPEBGPEBIIAEAV?$Array@IVNamedAllocator@shdfnd@physx@@@shdfnd@2@PEAURemapCallback@12@MW4Enum@PxMeshCookingHint@2@@Z 000000018003a774     RTreeCooking.obj
 0004:00000780       $pdata$9$?buildFromTriangles@RTreeCooker@physx@@SAXAEAURTree@Gu@2@PEBVPxVec3@2@IPEBGPEBIIAEAV?$Array@IVNamedAllocator@shdfnd@physx@@@shdfnd@2@PEAURemapCallback@12@MW4Enum@PxMeshCookingHint@2@@Z 000000018003a780     RTreeCooking.obj
 0004:0000078c       $pdata$10$?buildFromTriangles@RTreeCooker@physx@@SAXAEAURTree@Gu@2@PEBVPxVec3@2@IPEBGPEBIIAEAV?$Array@IVNamedAllocator@shdfnd@physx@@@shdfnd@2@PEAURemapCallback@12@MW4Enum@PxMeshCookingHint@2@@Z 000000018003a78c     RTreeCooking.obj
 0004:00000798       $pdata$?buildFromBounds@physx@@YAXAEAURTree@Gu@1@PEBUPxBounds3V@1@IAEAV?$Array@IVNamedAllocator@shdfnd@physx@@@shdfnd@1@PEAURemapCallback@RTreeCooker@1@AEAT__m128@@4MW4Enum@PxMeshCookingHint@1@@Z 000000018003a798     RTreeCooking.obj
 0004:000007a4       $pdata$?growAndPushBack@?$Array@UPxBounds3V@physx@@VNamedAllocator@shdfnd@2@@shdfnd@physx@@IEAAAEAUPxBounds3V@3@AEBU43@@Z 000000018003a7a4     RTreeCooking.obj
 0004:000007b0       $pdata$?recreate@?$Array@UPxBounds3V@physx@@VNamedAllocator@shdfnd@2@@shdfnd@physx@@IEAAXI@Z 000000018003a7b0     RTreeCooking.obj
 0004:000007bc       $pdata$?resize@?$Array@IVNamedAllocator@shdfnd@physx@@@shdfnd@physx@@QEAAXIAEBI@Z 000000018003a7bc     RTreeCooking.obj
 0004:000007c8       $pdata$?growAndPushBack@?$Array@IVNamedAllocator@shdfnd@physx@@@shdfnd@physx@@IEAAAEAIAEBI@Z 000000018003a7c8     RTreeCooking.obj
 0004:000007d4       $pdata$?recreate@?$Array@IVNamedAllocator@shdfnd@physx@@@shdfnd@physx@@IEAAXI@Z 000000018003a7d4     RTreeCooking.obj
 0004:000007e0       $pdata$0$?recreate@?$Array@IVNamedAllocator@shdfnd@physx@@@shdfnd@physx@@IEAAXI@Z 000000018003a7e0     RTreeCooking.obj
 0004:000007ec       $pdata$1$?recreate@?$Array@IVNamedAllocator@shdfnd@physx@@@shdfnd@physx@@IEAAXI@Z 000000018003a7ec     RTreeCooking.obj
 0004:000007f8       $pdata$?recreate@?$Array@VPxVec3@physx@@VNamedAllocator@shdfnd@2@@shdfnd@physx@@IEAAXI@Z 000000018003a7f8     RTreeCooking.obj
 0004:00000804       $pdata$0$?recreate@?$Array@VPxVec3@physx@@VNamedAllocator@shdfnd@2@@shdfnd@physx@@IEAAXI@Z 000000018003a804     RTreeCooking.obj
 0004:00000810       $pdata$1$?recreate@?$Array@VPxVec3@physx@@VNamedAllocator@shdfnd@2@@shdfnd@physx@@IEAAXI@Z 000000018003a810     RTreeCooking.obj
 0004:0000081c       $pdata$?sort4@SubSortQuick@physx@@QEAAXPEIAIIAEAV?$Array@URTreeNodeNQ@physx@@VNamedAllocator@shdfnd@2@@shdfnd@2@AEAIAEAUPxBounds3V@2@I@Z 000000018003a81c     RTreeCooking.obj
 0004:00000828       $pdata$?resizeUninitialized@?$Array@URTreeNodeNQ@physx@@VNamedAllocator@shdfnd@2@@shdfnd@physx@@QEAAXI@Z 000000018003a828     RTreeCooking.obj
 0004:00000834       $pdata$?growAndPushBack@?$Array@URTreeNodeNQ@physx@@VNamedAllocator@shdfnd@2@@shdfnd@physx@@IEAAAEAURTreeNodeNQ@3@AEBU43@@Z 000000018003a834     RTreeCooking.obj
 0004:00000840       $pdata$0$?growAndPushBack@?$Array@URTreeNodeNQ@physx@@VNamedAllocator@shdfnd@2@@shdfnd@physx@@IEAAAEAURTreeNodeNQ@3@AEBU43@@Z 000000018003a840     RTreeCooking.obj
 0004:0000084c       $pdata$1$?growAndPushBack@?$Array@URTreeNodeNQ@physx@@VNamedAllocator@shdfnd@2@@shdfnd@physx@@IEAAAEAURTreeNodeNQ@3@AEBU43@@Z 000000018003a84c     RTreeCooking.obj
 0004:00000858       $pdata$2$?growAndPushBack@?$Array@URTreeNodeNQ@physx@@VNamedAllocator@shdfnd@2@@shdfnd@physx@@IEAAAEAURTreeNodeNQ@3@AEBU43@@Z 000000018003a858     RTreeCooking.obj
 0004:00000864       $pdata$3$?growAndPushBack@?$Array@URTreeNodeNQ@physx@@VNamedAllocator@shdfnd@2@@shdfnd@physx@@IEAAAEAURTreeNodeNQ@3@AEBU43@@Z 000000018003a864     RTreeCooking.obj
 0004:00000870       $pdata$?recreate@?$Array@URTreeNodeNQ@physx@@VNamedAllocator@shdfnd@2@@shdfnd@physx@@IEAAXI@Z 000000018003a870     RTreeCooking.obj
 0004:0000087c       $pdata$0$?recreate@?$Array@URTreeNodeNQ@physx@@VNamedAllocator@shdfnd@2@@shdfnd@physx@@IEAAXI@Z 000000018003a87c     RTreeCooking.obj
 0004:00000888       $pdata$1$?recreate@?$Array@URTreeNodeNQ@physx@@VNamedAllocator@shdfnd@2@@shdfnd@physx@@IEAAXI@Z 000000018003a888     RTreeCooking.obj
 0004:00000894       $pdata$??$quickSelectFirstK@UBoundsLTE@physx@@@quickSelect@physx@@YAXPEIAIIIIAEBUBoundsLTE@1@@Z 000000018003a894     RTreeCooking.obj
 0004:000008a0       $pdata$?split@SubSortSAH@physx@@QEAAIPEAII@Z 000000018003a8a0     RTreeCooking.obj
 0004:000008ac       $pdata$4$?split@SubSortSAH@physx@@QEAAIPEAII@Z 000000018003a8ac     RTreeCooking.obj
 0004:000008b8       $pdata$5$?split@SubSortSAH@physx@@QEAAIPEAII@Z 000000018003a8b8     RTreeCooking.obj
 0004:000008c4       $pdata$6$?split@SubSortSAH@physx@@QEAAIPEAII@Z 000000018003a8c4     RTreeCooking.obj
 0004:000008d0       $pdata$7$?split@SubSortSAH@physx@@QEAAIPEAII@Z 000000018003a8d0     RTreeCooking.obj
 0004:000008dc       $pdata$?sort4@SubSortSAH@physx@@QEAAXPEAIIAEAV?$Array@URTreeNodeNQ@physx@@VNamedAllocator@shdfnd@2@@shdfnd@2@AEAIIPEAURTreeNodeNQ@2@@Z 000000018003a8dc     RTreeCooking.obj
 0004:000008e8       $pdata$??$sort@I@shdfnd@physx@@YAXPEAII@Z 000000018003a8e8     RTreeCooking.obj
 0004:000008f4       $pdata$?allocate@?$Array@UInterval@physx@@V?$InlineAllocator@$0CAAA@VNamedAllocator@shdfnd@physx@@@shdfnd@2@@shdfnd@physx@@IEAAPEAUInterval@3@I@Z 000000018003a8f4     RTreeCooking.obj
 0004:00000900       $pdata$?growAndPushBack@?$Array@UInterval@physx@@V?$InlineAllocator@$0CAAA@VNamedAllocator@shdfnd@physx@@@shdfnd@2@@shdfnd@physx@@IEAAAEAUInterval@3@AEBU43@@Z 000000018003a900     RTreeCooking.obj
 0004:0000090c       $pdata$??0?$InlineArray@UInterval@physx@@$0EAA@VNamedAllocator@shdfnd@2@@shdfnd@physx@@QEAA@AEBVNamedAllocator@12@@Z 000000018003a90c     RTreeCooking.obj
 0004:00000918       $pdata$??$sort@IUSortBoundsPredicate@physx@@@shdfnd@physx@@YAXPEAIIAEBUSortBoundsPredicate@1@@Z 000000018003a918     RTreeCooking.obj
 0004:00000924       $pdata$?growAndPushBack@?$Array@URTreeNodeQ@Gu@physx@@VNamedAllocator@shdfnd@3@@shdfnd@physx@@IEAAAEAURTreeNodeQ@Gu@3@AEBU453@@Z 000000018003a924     RTreeCooking.obj
 0004:00000930       $pdata$?recreate@?$Array@URTreeNodeQ@Gu@physx@@VNamedAllocator@shdfnd@3@@shdfnd@physx@@IEAAXI@Z 000000018003a930     RTreeCooking.obj
 0004:0000093c       $pdata$??$partition@UBoundsLTE@physx@@@quickSelect@physx@@YAIPEIAIIIIAEBUBoundsLTE@1@@Z 000000018003a93c     RTreeCooking.obj
 0004:00000948       $pdata$2$??$partition@UBoundsLTE@physx@@@quickSelect@physx@@YAIPEIAIIIIAEBUBoundsLTE@1@@Z 000000018003a948     RTreeCooking.obj
 0004:00000954       $pdata$3$??$partition@UBoundsLTE@physx@@@quickSelect@physx@@YAIPEIAIIIIAEBUBoundsLTE@1@@Z 000000018003a954     RTreeCooking.obj
 0004:00000960       $pdata$??$sort@IU?$Less@I@shdfnd@physx@@VNamedAllocator@23@@shdfnd@physx@@YAXPEAIIAEBU?$Less@I@01@AEBVNamedAllocator@01@I@Z 000000018003a960     RTreeCooking.obj
 0004:0000096c       $pdata$??$sort@IUSortBoundsPredicate@physx@@VNamedAllocator@shdfnd@2@@shdfnd@physx@@YAXPEAIIAEBUSortBoundsPredicate@1@AEBVNamedAllocator@01@I@Z 000000018003a96c     RTreeCooking.obj
 0004:00000978       $pdata$??$smallSort@I$$CBUSortBoundsPredicate@physx@@@internal@shdfnd@physx@@YAXPEAIHHAEBUSortBoundsPredicate@2@@Z 000000018003a978     RTreeCooking.obj
 0004:00000984       $pdata$5$??$smallSort@I$$CBUSortBoundsPredicate@physx@@@internal@shdfnd@physx@@YAXPEAIHHAEBUSortBoundsPredicate@2@@Z 000000018003a984     RTreeCooking.obj
 0004:00000990       $pdata$6$??$smallSort@I$$CBUSortBoundsPredicate@physx@@@internal@shdfnd@physx@@YAXPEAIHHAEBUSortBoundsPredicate@2@@Z 000000018003a990     RTreeCooking.obj
 0004:0000099c       $pdata$?computeLocalBounds@MeshBulider@physx@@IEAAXAEAVMeshDataBase@Gu@2@@Z 000000018003a99c     MeshBuilder.obj
 0004:000009a8       $pdata$??1MeshDataBase@Gu@physx@@UEAA@XZ 000000018003a9a8     TriangleMeshBuilder.obj
 0004:000009b4       $pdata$?allocateVertices@MeshDataBase@Gu@physx@@QEAAPEAVPxVec3@3@I@Z 000000018003a9b4     TriangleMeshBuilder.obj
 0004:000009c0       $pdata$??_GMeshDataBase@Gu@physx@@UEAAPEAXI@Z 000000018003a9c0     TriangleMeshBuilder.obj
 0004:000009cc       $pdata$??1TriangleMeshData@Gu@physx@@UEAA@XZ 000000018003a9cc     TriangleMeshBuilder.obj
 0004:000009d8       $pdata$?allocateTriangles@TriangleMeshData@Gu@physx@@QEAAPEAXI_NI@Z 000000018003a9d8     TriangleMeshBuilder.obj
 0004:000009e4       $pdata$??_GTriangleMeshData@Gu@physx@@UEAAPEAXI@Z 000000018003a9e4     TriangleMeshBuilder.obj
 0004:000009f0       $pdata$??$?_UG@@YAPEAX_KV?$ReflectionAllocator@G@shdfnd@physx@@PEBDH@Z 000000018003a9f0     TriangleMeshBuilder.obj
 0004:000009fc       $pdata$0$??$?_UG@@YAPEAX_KV?$ReflectionAllocator@G@shdfnd@physx@@PEBDH@Z 000000018003a9fc     TriangleMeshBuilder.obj
 0004:00000a08       $pdata$1$??$?_UG@@YAPEAX_KV?$ReflectionAllocator@G@shdfnd@physx@@PEBDH@Z 000000018003aa08     TriangleMeshBuilder.obj
 0004:00000a14       $pdata$??1RTreeTriangleData@Gu@physx@@UEAA@XZ 000000018003aa14     TriangleMeshBuilder.obj
 0004:00000a20       $pdata$0$??1RTreeTriangleData@Gu@physx@@UEAA@XZ 000000018003aa20     TriangleMeshBuilder.obj
 0004:00000a2c       $pdata$1$??1RTreeTriangleData@Gu@physx@@UEAA@XZ 000000018003aa2c     TriangleMeshBuilder.obj
 0004:00000a38       $pdata$??_GRTreeTriangleData@Gu@physx@@UEAAPEAXI@Z 000000018003aa38     TriangleMeshBuilder.obj
 0004:00000a44       $pdata$??1BV4TriangleData@Gu@physx@@UEAA@XZ 000000018003aa44     TriangleMeshBuilder.obj
 0004:00000a50       $pdata$??_GBV4TriangleData@Gu@physx@@UEAAPEAXI@Z 000000018003aa50     TriangleMeshBuilder.obj
 0004:00000a5c       $pdata$??_GRemapCallback@RTreeCooker@physx@@UEAAPEAXI@Z 000000018003aa5c     TriangleMeshBuilder.obj
 0004:00000a68       $pdata$??1TriangleMeshBuilder@physx@@UEAA@XZ 000000018003aa68     TriangleMeshBuilder.obj
 0004:00000a74       $pdata$?cleanMesh@TriangleMeshBuilder@physx@@QEAA_N_NPEAW4Enum@PxTriangleMeshCookingResult@2@@Z 000000018003aa74     TriangleMeshBuilder.obj
 0004:00000a80       $pdata$1$?cleanMesh@TriangleMeshBuilder@physx@@QEAA_N_NPEAW4Enum@PxTriangleMeshCookingResult@2@@Z 000000018003aa80     TriangleMeshBuilder.obj
 0004:00000a8c       $pdata$2$?cleanMesh@TriangleMeshBuilder@physx@@QEAA_N_NPEAW4Enum@PxTriangleMeshCookingResult@2@@Z 000000018003aa8c     TriangleMeshBuilder.obj
 0004:00000a98       $pdata$3$?cleanMesh@TriangleMeshBuilder@physx@@QEAA_N_NPEAW4Enum@PxTriangleMeshCookingResult@2@@Z 000000018003aa98     TriangleMeshBuilder.obj
 0004:00000aa4       $pdata$7$?cleanMesh@TriangleMeshBuilder@physx@@QEAA_N_NPEAW4Enum@PxTriangleMeshCookingResult@2@@Z 000000018003aaa4     TriangleMeshBuilder.obj
 0004:00000ab0       $pdata$4$?cleanMesh@TriangleMeshBuilder@physx@@QEAA_N_NPEAW4Enum@PxTriangleMeshCookingResult@2@@Z 000000018003aab0     TriangleMeshBuilder.obj
 0004:00000abc       $pdata$8$?cleanMesh@TriangleMeshBuilder@physx@@QEAA_N_NPEAW4Enum@PxTriangleMeshCookingResult@2@@Z 000000018003aabc     TriangleMeshBuilder.obj
 0004:00000ac8       $pdata$?remapTopology@TriangleMeshBuilder@physx@@QEAAXPEBI@Z 000000018003aac8     TriangleMeshBuilder.obj
 0004:00000ad4       $pdata$3$?remapTopology@TriangleMeshBuilder@physx@@QEAAXPEBI@Z 000000018003aad4     TriangleMeshBuilder.obj
 0004:00000ae0       $pdata$4$?remapTopology@TriangleMeshBuilder@physx@@QEAAXPEBI@Z 000000018003aae0     TriangleMeshBuilder.obj
 0004:00000aec       $pdata$5$?remapTopology@TriangleMeshBuilder@physx@@QEAAXPEBI@Z 000000018003aaec     TriangleMeshBuilder.obj
 0004:00000af8       $pdata$6$?remapTopology@TriangleMeshBuilder@physx@@QEAAXPEBI@Z 000000018003aaf8     TriangleMeshBuilder.obj
 0004:00000b04       $pdata$?createSharedEdgeData@TriangleMeshBuilder@physx@@QEAAX_N0@Z 000000018003ab04     TriangleMeshBuilder.obj
 0004:00000b10       $pdata$3$?createSharedEdgeData@TriangleMeshBuilder@physx@@QEAAX_N0@Z 000000018003ab10     TriangleMeshBuilder.obj
 0004:00000b1c       $pdata$4$?createSharedEdgeData@TriangleMeshBuilder@physx@@QEAAX_N0@Z 000000018003ab1c     TriangleMeshBuilder.obj
 0004:00000b28       $pdata$5$?createSharedEdgeData@TriangleMeshBuilder@physx@@QEAAX_N0@Z 000000018003ab28     TriangleMeshBuilder.obj
 0004:00000b34       $pdata$6$?createSharedEdgeData@TriangleMeshBuilder@physx@@QEAAX_N0@Z 000000018003ab34     TriangleMeshBuilder.obj
 0004:00000b40       $pdata$?recordTriangleIndices@TriangleMeshBuilder@physx@@QEAAXXZ 000000018003ab40     TriangleMeshBuilder.obj
 0004:00000b4c       $pdata$?createGRBMidPhaseAndData@TriangleMeshBuilder@physx@@QEAAXI@Z 000000018003ab4c     TriangleMeshBuilder.obj
 0004:00000b58       $pdata$0$?createGRBMidPhaseAndData@TriangleMeshBuilder@physx@@QEAAXI@Z 000000018003ab58     TriangleMeshBuilder.obj
 0004:00000b64       $pdata$1$?createGRBMidPhaseAndData@TriangleMeshBuilder@physx@@QEAAXI@Z 000000018003ab64     TriangleMeshBuilder.obj
 0004:00000b70       $pdata$4$?createGRBMidPhaseAndData@TriangleMeshBuilder@physx@@QEAAXI@Z 000000018003ab70     TriangleMeshBuilder.obj
 0004:00000b7c       $pdata$5$?createGRBMidPhaseAndData@TriangleMeshBuilder@physx@@QEAAXI@Z 000000018003ab7c     TriangleMeshBuilder.obj
 0004:00000b88       $pdata$6$?createGRBMidPhaseAndData@TriangleMeshBuilder@physx@@QEAAXI@Z 000000018003ab88     TriangleMeshBuilder.obj
 0004:00000b94       $pdata$7$?createGRBMidPhaseAndData@TriangleMeshBuilder@physx@@QEAAXI@Z 000000018003ab94     TriangleMeshBuilder.obj
 0004:00000ba0       $pdata$8$?createGRBMidPhaseAndData@TriangleMeshBuilder@physx@@QEAAXI@Z 000000018003aba0     TriangleMeshBuilder.obj
 0004:00000bac       $pdata$?createGRBData@TriangleMeshBuilder@physx@@QEAAXXZ 000000018003abac     TriangleMeshBuilder.obj
 0004:00000bb8       $pdata$?loadFromDesc@TriangleMeshBuilder@physx@@QEAA_NAEBVPxTriangleMeshDesc@2@PEAW4Enum@PxTriangleMeshCookingResult@2@_N@Z 000000018003abb8     TriangleMeshBuilder.obj
 0004:00000bc4       $pdata$1$?loadFromDesc@TriangleMeshBuilder@physx@@QEAA_NAEBVPxTriangleMeshDesc@2@PEAW4Enum@PxTriangleMeshCookingResult@2@_N@Z 000000018003abc4     TriangleMeshBuilder.obj
 0004:00000bd0       $pdata$2$?loadFromDesc@TriangleMeshBuilder@physx@@QEAA_NAEBVPxTriangleMeshDesc@2@PEAW4Enum@PxTriangleMeshCookingResult@2@_N@Z 000000018003abd0     TriangleMeshBuilder.obj
 0004:00000bdc       $pdata$3$?loadFromDesc@TriangleMeshBuilder@physx@@QEAA_NAEBVPxTriangleMeshDesc@2@PEAW4Enum@PxTriangleMeshCookingResult@2@_N@Z 000000018003abdc     TriangleMeshBuilder.obj
 0004:00000be8       $pdata$5$?loadFromDesc@TriangleMeshBuilder@physx@@QEAA_NAEBVPxTriangleMeshDesc@2@PEAW4Enum@PxTriangleMeshCookingResult@2@_N@Z 000000018003abe8     TriangleMeshBuilder.obj
 0004:00000bf4       $pdata$6$?loadFromDesc@TriangleMeshBuilder@physx@@QEAA_NAEBVPxTriangleMeshDesc@2@PEAW4Enum@PxTriangleMeshCookingResult@2@_N@Z 000000018003abf4     TriangleMeshBuilder.obj
 0004:00000c00       $pdata$?save@TriangleMeshBuilder@physx@@QEBA_NAEAVPxOutputStream@2@_NAEBUPxCookingParams@2@@Z 000000018003ac00     TriangleMeshBuilder.obj
 0004:00000c0c       $pdata$3$?save@TriangleMeshBuilder@physx@@QEBA_NAEAVPxOutputStream@2@_NAEBUPxCookingParams@2@@Z 000000018003ac0c     TriangleMeshBuilder.obj
 0004:00000c18       $pdata$?checkMeshIndicesSize@TriangleMeshBuilder@physx@@QEAAXXZ 000000018003ac18     TriangleMeshBuilder.obj
 0004:00000c24       $pdata$1$?checkMeshIndicesSize@TriangleMeshBuilder@physx@@QEAAXXZ 000000018003ac24     TriangleMeshBuilder.obj
 0004:00000c30       $pdata$2$?checkMeshIndicesSize@TriangleMeshBuilder@physx@@QEAAXXZ 000000018003ac30     TriangleMeshBuilder.obj
 0004:00000c3c       $pdata$3$?checkMeshIndicesSize@TriangleMeshBuilder@physx@@QEAAXXZ 000000018003ac3c     TriangleMeshBuilder.obj
 0004:00000c48       $pdata$4$?checkMeshIndicesSize@TriangleMeshBuilder@physx@@QEAAXXZ 000000018003ac48     TriangleMeshBuilder.obj
 0004:00000c54       $pdata$?importMesh@TriangleMeshBuilder@physx@@IEAA_NAEBVPxTriangleMeshDesc@2@AEBUPxCookingParams@2@PEAW4Enum@PxTriangleMeshCookingResult@2@_N@Z 000000018003ac54     TriangleMeshBuilder.obj
 0004:00000c60       $pdata$?releaseEdgeList@TriangleMeshBuilder@physx@@IEAAXXZ 000000018003ac60     TriangleMeshBuilder.obj
 0004:00000c6c       $pdata$?createEdgeList@TriangleMeshBuilder@physx@@IEAAXXZ 000000018003ac6c     TriangleMeshBuilder.obj
 0004:00000c78       $pdata$??1RTreeTriangleMeshBuilder@physx@@UEAA@XZ 000000018003ac78     TriangleMeshBuilder.obj
 0004:00000c84       $pdata$?createMidPhaseStructure@RTreeTriangleMeshBuilder@physx@@UEAAXXZ 000000018003ac84     TriangleMeshBuilder.obj
 0004:00000c90       $pdata$?saveMidPhaseStructure@RTreeTriangleMeshBuilder@physx@@UEBAXAEAVPxOutputStream@2@_N@Z 000000018003ac90     TriangleMeshBuilder.obj
 0004:00000c9c       $pdata$0$?saveMidPhaseStructure@RTreeTriangleMeshBuilder@physx@@UEBAXAEAVPxOutputStream@2@_N@Z 000000018003ac9c     TriangleMeshBuilder.obj
 0004:00000ca8       $pdata$1$?saveMidPhaseStructure@RTreeTriangleMeshBuilder@physx@@UEBAXAEAVPxOutputStream@2@_N@Z 000000018003aca8     TriangleMeshBuilder.obj
 0004:00000cb4       $pdata$??0BV4TriangleMeshBuilder@physx@@QEAA@AEBUPxCookingParams@1@@Z 000000018003acb4     TriangleMeshBuilder.obj
 0004:00000cc0       $pdata$??1BV4TriangleMeshBuilder@physx@@UEAA@XZ 000000018003acc0     TriangleMeshBuilder.obj
 0004:00000ccc       $pdata$?createMidPhaseStructure@BV4TriangleMeshBuilder@physx@@UEAAXXZ 000000018003accc     TriangleMeshBuilder.obj
 0004:00000cd8       $pdata$2$?createMidPhaseStructure@BV4TriangleMeshBuilder@physx@@UEAAXXZ 000000018003acd8     TriangleMeshBuilder.obj
 0004:00000ce4       $pdata$3$?createMidPhaseStructure@BV4TriangleMeshBuilder@physx@@UEAAXXZ 000000018003ace4     TriangleMeshBuilder.obj
 0004:00000cf0       $pdata$4$?createMidPhaseStructure@BV4TriangleMeshBuilder@physx@@UEAAXXZ 000000018003acf0     TriangleMeshBuilder.obj
 0004:00000cfc       $pdata$5$?createMidPhaseStructure@BV4TriangleMeshBuilder@physx@@UEAAXXZ 000000018003acfc     TriangleMeshBuilder.obj
 0004:00000d08       $pdata$?saveMidPhaseStructure@BV4TriangleMeshBuilder@physx@@UEBAXAEAVPxOutputStream@2@_N@Z 000000018003ad08     TriangleMeshBuilder.obj
 0004:00000d14       $pdata$?createMidPhaseStructure@BV32TriangleMeshBuilder@physx@@SAXAEBUPxCookingParams@2@AEAVTriangleMeshData@Gu@2@AEAVBV32Tree@52@@Z 000000018003ad14     TriangleMeshBuilder.obj
 0004:00000d20       $pdata$?saveMidPhaseStructure@BV32TriangleMeshBuilder@physx@@SAXPEAVBV32Tree@Gu@2@AEAVPxOutputStream@2@_N@Z 000000018003ad20     TriangleMeshBuilder.obj
 0004:00000d2c       $pdata$1$?saveMidPhaseStructure@BV32TriangleMeshBuilder@physx@@SAXPEAVBV32Tree@Gu@2@AEAVPxOutputStream@2@_N@Z 000000018003ad2c     TriangleMeshBuilder.obj
 0004:00000d38       $pdata$2$?saveMidPhaseStructure@BV32TriangleMeshBuilder@physx@@SAXPEAVBV32Tree@Gu@2@AEAVPxOutputStream@2@_N@Z 000000018003ad38     TriangleMeshBuilder.obj
 0004:00000d44       $pdata$?findSharpVertices@GrbTrimeshCookerHelper@physx@@YAXAEAV?$Array@USortedNeighbor@GrbTrimeshCookerHelper@physx@@VNamedAllocator@shdfnd@3@@shdfnd@2@AEAV?$Array@USharpEdgeRange@GrbTrimeshCookerHelper@physx@@VNamedAllocator@shdfnd@3@@42@PEBUuint3@2@PEBUuint4@2@II@Z 000000018003ad44     TriangleMeshBuilder.obj
 0004:00000d50       $pdata$0$?findSharpVertices@GrbTrimeshCookerHelper@physx@@YAXAEAV?$Array@USortedNeighbor@GrbTrimeshCookerHelper@physx@@VNamedAllocator@shdfnd@3@@shdfnd@2@AEAV?$Array@USharpEdgeRange@GrbTrimeshCookerHelper@physx@@VNamedAllocator@shdfnd@3@@42@PEBUuint3@2@PEBUuint4@2@II@Z 000000018003ad50     TriangleMeshBuilder.obj
 0004:00000d5c       $pdata$1$?findSharpVertices@GrbTrimeshCookerHelper@physx@@YAXAEAV?$Array@USortedNeighbor@GrbTrimeshCookerHelper@physx@@VNamedAllocator@shdfnd@3@@shdfnd@2@AEAV?$Array@USharpEdgeRange@GrbTrimeshCookerHelper@physx@@VNamedAllocator@shdfnd@3@@42@PEBUuint3@2@PEBUuint4@2@II@Z 000000018003ad5c     TriangleMeshBuilder.obj
 0004:00000d68       $pdata$2$?findSharpVertices@GrbTrimeshCookerHelper@physx@@YAXAEAV?$Array@USortedNeighbor@GrbTrimeshCookerHelper@physx@@VNamedAllocator@shdfnd@3@@shdfnd@2@AEAV?$Array@USharpEdgeRange@GrbTrimeshCookerHelper@physx@@VNamedAllocator@shdfnd@3@@42@PEBUuint3@2@PEBUuint4@2@II@Z 000000018003ad68     TriangleMeshBuilder.obj
 0004:00000d74       $pdata$3$?findSharpVertices@GrbTrimeshCookerHelper@physx@@YAXAEAV?$Array@USortedNeighbor@GrbTrimeshCookerHelper@physx@@VNamedAllocator@shdfnd@3@@shdfnd@2@AEAV?$Array@USharpEdgeRange@GrbTrimeshCookerHelper@physx@@VNamedAllocator@shdfnd@3@@42@PEBUuint3@2@PEBUuint4@2@II@Z 000000018003ad74     TriangleMeshBuilder.obj
 0004:00000d80       $pdata$?buildVertexConnectionNew_p1@GrbTrimeshCookerHelper@physx@@YAIAEAV?$Array@USortedNeighbor@GrbTrimeshCookerHelper@physx@@VNamedAllocator@shdfnd@3@@shdfnd@2@AEAV?$Array@USharpEdgeRange@GrbTrimeshCookerHelper@physx@@VNamedAllocator@shdfnd@3@@42@PEBUuint3@2@PEBUuint4@2@II@Z 000000018003ad80     TriangleMeshBuilder.obj
 0004:00000d8c       $pdata$1$?buildVertexConnectionNew_p1@GrbTrimeshCookerHelper@physx@@YAIAEAV?$Array@USortedNeighbor@GrbTrimeshCookerHelper@physx@@VNamedAllocator@shdfnd@3@@shdfnd@2@AEAV?$Array@USharpEdgeRange@GrbTrimeshCookerHelper@physx@@VNamedAllocator@shdfnd@3@@42@PEBUuint3@2@PEBUuint4@2@II@Z 000000018003ad8c     TriangleMeshBuilder.obj
 0004:00000d98       $pdata$2$?buildVertexConnectionNew_p1@GrbTrimeshCookerHelper@physx@@YAIAEAV?$Array@USortedNeighbor@GrbTrimeshCookerHelper@physx@@VNamedAllocator@shdfnd@3@@shdfnd@2@AEAV?$Array@USharpEdgeRange@GrbTrimeshCookerHelper@physx@@VNamedAllocator@shdfnd@3@@42@PEBUuint3@2@PEBUuint4@2@II@Z 000000018003ad98     TriangleMeshBuilder.obj
 0004:00000da4       $pdata$?buildVertexConnectionNew_p2@GrbTrimeshCookerHelper@physx@@YAXPEAI00AEAV?$Array@USortedNeighbor@GrbTrimeshCookerHelper@physx@@VNamedAllocator@shdfnd@3@@shdfnd@2@AEAV?$Array@USharpEdgeRange@GrbTrimeshCookerHelper@physx@@VNamedAllocator@shdfnd@3@@42@I@Z 000000018003ada4     TriangleMeshBuilder.obj
 0004:00000db0       $pdata$2$?buildVertexConnectionNew_p2@GrbTrimeshCookerHelper@physx@@YAXPEAI00AEAV?$Array@USortedNeighbor@GrbTrimeshCookerHelper@physx@@VNamedAllocator@shdfnd@3@@shdfnd@2@AEAV?$Array@USharpEdgeRange@GrbTrimeshCookerHelper@physx@@VNamedAllocator@shdfnd@3@@42@I@Z 000000018003adb0     TriangleMeshBuilder.obj
 0004:00000dbc       $pdata$3$?buildVertexConnectionNew_p2@GrbTrimeshCookerHelper@physx@@YAXPEAI00AEAV?$Array@USortedNeighbor@GrbTrimeshCookerHelper@physx@@VNamedAllocator@shdfnd@3@@shdfnd@2@AEAV?$Array@USharpEdgeRange@GrbTrimeshCookerHelper@physx@@VNamedAllocator@shdfnd@3@@42@I@Z 000000018003adbc     TriangleMeshBuilder.obj
 0004:00000dc8       $pdata$??_GTriangleMeshBuilder@physx@@UEAAPEAXI@Z 000000018003adc8     TriangleMeshBuilder.obj
 0004:00000dd4       $pdata$??_GRTreeTriangleMeshBuilder@physx@@UEAAPEAXI@Z 000000018003add4     TriangleMeshBuilder.obj
 0004:00000de0       $pdata$??_GBV4TriangleMeshBuilder@physx@@UEAAPEAXI@Z 000000018003ade0     TriangleMeshBuilder.obj
 0004:00000dec       $pdata$?findAdjacent@physx@@YAIPEBVPxVec3@1@0PEBUuint3@1@IIIAEBVPxPlane@1@PEAUEdgeTriLookup@1@I@Z 000000018003adec     TriangleMeshBuilder.obj
 0004:00000df8       $pdata$?buildAdjacencies@physx@@YAXPEAUuint4@1@PEAVPxVec3@1@PEBV31@PEBUuint3@1@I@Z 000000018003adf8     TriangleMeshBuilder.obj
 0004:00000e04       $pdata$7$?buildAdjacencies@physx@@YAXPEAUuint4@1@PEAVPxVec3@1@PEBV31@PEBUuint3@1@I@Z 000000018003ae04     TriangleMeshBuilder.obj
 0004:00000e10       $pdata$11$?buildAdjacencies@physx@@YAXPEAUuint4@1@PEAVPxVec3@1@PEBV31@PEBUuint3@1@I@Z 000000018003ae10     TriangleMeshBuilder.obj
 0004:00000e1c       $pdata$12$?buildAdjacencies@physx@@YAXPEAUuint4@1@PEAVPxVec3@1@PEBV31@PEBUuint3@1@I@Z 000000018003ae1c     TriangleMeshBuilder.obj
 0004:00000e28       $pdata$13$?buildAdjacencies@physx@@YAXPEAUuint4@1@PEAVPxVec3@1@PEBV31@PEBUuint3@1@I@Z 000000018003ae28     TriangleMeshBuilder.obj
 0004:00000e34       $pdata$??$sort@UEdgeTriLookup@physx@@@shdfnd@physx@@YAXPEAUEdgeTriLookup@1@I@Z 000000018003ae34     TriangleMeshBuilder.obj
 0004:00000e40       $pdata$?resizeUninitialized@?$Array@USortedNeighbor@GrbTrimeshCookerHelper@physx@@VNamedAllocator@shdfnd@3@@shdfnd@physx@@QEAAXI@Z 000000018003ae40     TriangleMeshBuilder.obj
 0004:00000e4c       $pdata$?growAndPushBack@?$Array@USortedNeighbor@GrbTrimeshCookerHelper@physx@@VNamedAllocator@shdfnd@3@@shdfnd@physx@@IEAAAEAUSortedNeighbor@GrbTrimeshCookerHelper@3@AEBU453@@Z 000000018003ae4c     TriangleMeshBuilder.obj
 0004:00000e58       $pdata$?recreate@?$Array@USortedNeighbor@GrbTrimeshCookerHelper@physx@@VNamedAllocator@shdfnd@3@@shdfnd@physx@@IEAAXI@Z 000000018003ae58     TriangleMeshBuilder.obj
 0004:00000e64       $pdata$??$sort@USortedNeighbor@GrbTrimeshCookerHelper@physx@@@shdfnd@physx@@YAXPEAUSortedNeighbor@GrbTrimeshCookerHelper@1@I@Z 000000018003ae64     TriangleMeshBuilder.obj
 0004:00000e70       $pdata$?resize@?$Array@USharpEdgeRange@GrbTrimeshCookerHelper@physx@@VNamedAllocator@shdfnd@3@@shdfnd@physx@@QEAAXIAEBUSharpEdgeRange@GrbTrimeshCookerHelper@3@@Z 000000018003ae70     TriangleMeshBuilder.obj
 0004:00000e7c       $pdata$?recreate@?$Array@USharpEdgeRange@GrbTrimeshCookerHelper@physx@@VNamedAllocator@shdfnd@3@@shdfnd@physx@@IEAAXI@Z 000000018003ae7c     TriangleMeshBuilder.obj
 0004:00000e88       $pdata$0$?recreate@?$Array@USharpEdgeRange@GrbTrimeshCookerHelper@physx@@VNamedAllocator@shdfnd@3@@shdfnd@physx@@IEAAXI@Z 000000018003ae88     TriangleMeshBuilder.obj
 0004:00000e94       $pdata$1$?recreate@?$Array@USharpEdgeRange@GrbTrimeshCookerHelper@physx@@VNamedAllocator@shdfnd@3@@shdfnd@physx@@IEAAXI@Z 000000018003ae94     TriangleMeshBuilder.obj
 0004:00000ea0       $pdata$??_GRTreeCookerRemap@physx@@UEAAPEAXI@Z 000000018003aea0     TriangleMeshBuilder.obj
 0004:00000eac       $pdata$??$sort@UEdgeTriLookup@physx@@U?$Less@UEdgeTriLookup@physx@@@shdfnd@2@VNamedAllocator@42@@shdfnd@physx@@YAXPEAUEdgeTriLookup@1@IAEBU?$Less@UEdgeTriLookup@physx@@@01@AEBVNamedAllocator@01@I@Z 000000018003aeac     TriangleMeshBuilder.obj
 0004:00000eb8       $pdata$??$sort@USortedNeighbor@GrbTrimeshCookerHelper@physx@@U?$Less@USortedNeighbor@GrbTrimeshCookerHelper@physx@@@shdfnd@3@VNamedAllocator@53@@shdfnd@physx@@YAXPEAUSortedNeighbor@GrbTrimeshCookerHelper@1@IAEBU?$Less@USortedNeighbor@GrbTrimeshCookerHelper@physx@@@01@AEBVNamedAllocator@01@I@Z 000000018003aeb8     TriangleMeshBuilder.obj
 0004:00000ec4       $pdata$?precompute@BigConvexDataBuilder@physx@@QEAA_NI@Z 000000018003aec4     BigConvexDataBuilder.obj
 0004:00000ed0       $pdata$10$?precompute@BigConvexDataBuilder@physx@@QEAA_NI@Z 000000018003aed0     BigConvexDataBuilder.obj
 0004:00000edc       $pdata$11$?precompute@BigConvexDataBuilder@physx@@QEAA_NI@Z 000000018003aedc     BigConvexDataBuilder.obj
 0004:00000ee8       $pdata$?initialize@BigConvexDataBuilder@physx@@QEAA_NXZ 000000018003aee8     BigConvexDataBuilder.obj
 0004:00000ef4       $pdata$0$?initialize@BigConvexDataBuilder@physx@@QEAA_NXZ 000000018003aef4     BigConvexDataBuilder.obj
 0004:00000f00       $pdata$1$?initialize@BigConvexDataBuilder@physx@@QEAA_NXZ 000000018003af00     BigConvexDataBuilder.obj
 0004:00000f0c       $pdata$?save@BigConvexDataBuilder@physx@@QEBA_NAEAVPxOutputStream@2@_N@Z 000000018003af0c     BigConvexDataBuilder.obj
 0004:00000f18       $pdata$0$?save@BigConvexDataBuilder@physx@@QEBA_NAEAVPxOutputStream@2@_N@Z 000000018003af18     BigConvexDataBuilder.obj
 0004:00000f24       $pdata$1$?save@BigConvexDataBuilder@physx@@QEBA_NAEAVPxOutputStream@2@_N@Z 000000018003af24     BigConvexDataBuilder.obj
 0004:00000f30       $pdata$2$?save@BigConvexDataBuilder@physx@@QEBA_NAEAVPxOutputStream@2@_N@Z 000000018003af30     BigConvexDataBuilder.obj
 0004:00000f3c       $pdata$3$?save@BigConvexDataBuilder@physx@@QEBA_NAEAVPxOutputStream@2@_N@Z 000000018003af3c     BigConvexDataBuilder.obj
 0004:00000f48       $pdata$?computeValencies@BigConvexDataBuilder@physx@@QEAA_NAEBVConvexHullBuilder@2@@Z 000000018003af48     BigConvexDataBuilder.obj
 0004:00000f54       $pdata$2$?computeValencies@BigConvexDataBuilder@physx@@QEAA_NAEBVConvexHullBuilder@2@@Z 000000018003af54     BigConvexDataBuilder.obj
 0004:00000f60       $pdata$3$?computeValencies@BigConvexDataBuilder@physx@@QEAA_NAEBVConvexHullBuilder@2@@Z 000000018003af60     BigConvexDataBuilder.obj
 0004:00000f6c       $pdata$?saveValencies@BigConvexDataBuilder@physx@@QEBA_NAEAVPxOutputStream@2@_N@Z 000000018003af6c     BigConvexDataBuilder.obj
 0004:00000f78       $pdata$1$?saveValencies@BigConvexDataBuilder@physx@@QEBA_NAEAVPxOutputStream@2@_N@Z 000000018003af78     BigConvexDataBuilder.obj
 0004:00000f84       $pdata$2$?saveValencies@BigConvexDataBuilder@physx@@QEBA_NAEAVPxOutputStream@2@_N@Z 000000018003af84     BigConvexDataBuilder.obj
 0004:00000f90       $pdata$3$?saveValencies@BigConvexDataBuilder@physx@@QEBA_NAEAVPxOutputStream@2@_N@Z 000000018003af90     BigConvexDataBuilder.obj
 0004:00000f9c       $pdata$4$?saveValencies@BigConvexDataBuilder@physx@@QEBA_NAEAVPxOutputStream@2@_N@Z 000000018003af9c     BigConvexDataBuilder.obj
 0004:00000fa8       $pdata$??1ConvexHullBuilder@physx@@QEAA@XZ 000000018003afa8     ConvexHullBuilder.obj
 0004:00000fb4       $pdata$?init@ConvexHullBuilder@physx@@QEAA_NIPEBVPxVec3@2@PEBIIIPEBUPxHullPolygon@2@_NPEAVConvexHullLib@2@@Z 000000018003afb4     ConvexHullBuilder.obj
 0004:00000fc0       $pdata$0$?init@ConvexHullBuilder@physx@@QEAA_NIPEBVPxVec3@2@PEBIIIPEBUPxHullPolygon@2@_NPEAVConvexHullLib@2@@Z 000000018003afc0     ConvexHullBuilder.obj
 0004:00000fcc       $pdata$2$?init@ConvexHullBuilder@physx@@QEAA_NIPEBVPxVec3@2@PEBIIIPEBUPxHullPolygon@2@_NPEAVConvexHullLib@2@@Z 000000018003afcc     ConvexHullBuilder.obj
 0004:00000fd8       $pdata$3$?init@ConvexHullBuilder@physx@@QEAA_NIPEBVPxVec3@2@PEBIIIPEBUPxHullPolygon@2@_NPEAVConvexHullLib@2@@Z 000000018003afd8     ConvexHullBuilder.obj
 0004:00000fe4       $pdata$4$?init@ConvexHullBuilder@physx@@QEAA_NIPEBVPxVec3@2@PEBIIIPEBUPxHullPolygon@2@_NPEAVConvexHullLib@2@@Z 000000018003afe4     ConvexHullBuilder.obj
 0004:00000ff0       $pdata$?save@ConvexHullBuilder@physx@@QEBA_NAEAVPxOutputStream@2@_N@Z 000000018003aff0     ConvexHullBuilder.obj
 0004:00000ffc       $pdata$0$?save@ConvexHullBuilder@physx@@QEBA_NAEAVPxOutputStream@2@_N@Z 000000018003affc     ConvexHullBuilder.obj
 0004:00001008       $pdata$3$?save@ConvexHullBuilder@physx@@QEBA_NAEAVPxOutputStream@2@_N@Z 000000018003b008     ConvexHullBuilder.obj
 0004:00001014       $pdata$4$?save@ConvexHullBuilder@physx@@QEBA_NAEAVPxOutputStream@2@_N@Z 000000018003b014     ConvexHullBuilder.obj
 0004:00001020       $pdata$5$?save@ConvexHullBuilder@physx@@QEBA_NAEAVPxOutputStream@2@_N@Z 000000018003b020     ConvexHullBuilder.obj
 0004:0000102c       $pdata$?copy@ConvexHullBuilder@physx@@QEAA_NAEAUConvexHullData@Gu@2@AEAI@Z 000000018003b02c     ConvexHullBuilder.obj
 0004:00001038       $pdata$?createEdgeList@ConvexHullBuilder@physx@@QEAA_N_NI@Z 000000018003b038     ConvexHullBuilder.obj
 0004:00001044       $pdata$4$?createEdgeList@ConvexHullBuilder@physx@@QEAA_N_NI@Z 000000018003b044     ConvexHullBuilder.obj
 0004:00001050       $pdata$6$?createEdgeList@ConvexHullBuilder@physx@@QEAA_N_NI@Z 000000018003b050     ConvexHullBuilder.obj
 0004:0000105c       $pdata$?checkHullPolygons@ConvexHullBuilder@physx@@QEBA_NXZ 000000018003b05c     ConvexHullBuilder.obj
 0004:00001068       $pdata$14$?checkHullPolygons@ConvexHullBuilder@physx@@QEBA_NXZ 000000018003b068     ConvexHullBuilder.obj
 0004:00001074       $pdata$16$?checkHullPolygons@ConvexHullBuilder@physx@@QEBA_NXZ 000000018003b074     ConvexHullBuilder.obj
 0004:00001080       $pdata$17$?checkHullPolygons@ConvexHullBuilder@physx@@QEBA_NXZ 000000018003b080     ConvexHullBuilder.obj
 0004:0000108c       $pdata$?calculateVertexMapTable@ConvexHullBuilder@physx@@QEAA_NI_N@Z 000000018003b08c     ConvexHullBuilder.obj
 0004:00001098       $pdata$?computeGeomCenter@ConvexHullBuilder@physx@@IEBA_NAEAVPxVec3@2@IPEAUHullTriangleData@2@@Z 000000018003b098     ConvexHullBuilder.obj
 0004:000010a4       $pdata$1$?computeGeomCenter@ConvexHullBuilder@physx@@IEBA_NAEAVPxVec3@2@IPEAUHullTriangleData@2@@Z 000000018003b0a4     ConvexHullBuilder.obj
 0004:000010b0       $pdata$10$?computeGeomCenter@ConvexHullBuilder@physx@@IEBA_NAEAVPxVec3@2@IPEAUHullTriangleData@2@@Z 000000018003b0b0     ConvexHullBuilder.obj
 0004:000010bc       $pdata$11$?computeGeomCenter@ConvexHullBuilder@physx@@IEBA_NAEAVPxVec3@2@IPEAUHullTriangleData@2@@Z 000000018003b0bc     ConvexHullBuilder.obj
 0004:000010c8       $pdata$12$?computeGeomCenter@ConvexHullBuilder@physx@@IEBA_NAEAVPxVec3@2@IPEAUHullTriangleData@2@@Z 000000018003b0c8     ConvexHullBuilder.obj
 0004:000010d4       $pdata$??$?_UE@@YAPEAX_KV?$ReflectionAllocator@E@shdfnd@physx@@PEBDH@Z 000000018003b0d4     ConvexHullBuilder.obj
 0004:000010e0       $pdata$0$??$?_UE@@YAPEAX_KV?$ReflectionAllocator@E@shdfnd@physx@@PEBDH@Z 000000018003b0e0     ConvexHullBuilder.obj
 0004:000010ec       $pdata$1$??$?_UE@@YAPEAX_KV?$ReflectionAllocator@E@shdfnd@physx@@PEBDH@Z 000000018003b0ec     ConvexHullBuilder.obj
 0004:000010f8       $pdata$??1ConvexHullLib@physx@@UEAA@XZ 000000018003b0f8     ConvexHullLib.obj
 0004:00001104       $pdata$?cleanupVertices@ConvexHullLib@physx@@IEAA_NIPEBVPxVec3@2@IAEAIPEAV32@AEAV32@3@Z 000000018003b104     ConvexHullLib.obj
 0004:00001110       $pdata$6$?cleanupVertices@ConvexHullLib@physx@@IEAA_NIPEBVPxVec3@2@IAEAIPEAV32@AEAV32@3@Z 000000018003b110     ConvexHullLib.obj
 0004:0000111c       $pdata$12$?cleanupVertices@ConvexHullLib@physx@@IEAA_NIPEBVPxVec3@2@IAEAIPEAV32@AEAV32@3@Z 000000018003b11c     ConvexHullLib.obj
 0004:00001128       $pdata$13$?cleanupVertices@ConvexHullLib@physx@@IEAA_NIPEBVPxVec3@2@IAEAIPEAV32@AEAV32@3@Z 000000018003b128     ConvexHullLib.obj
 0004:00001134       $pdata$14$?cleanupVertices@ConvexHullLib@physx@@IEAA_NIPEBVPxVec3@2@IAEAIPEAV32@AEAV32@3@Z 000000018003b134     ConvexHullLib.obj
 0004:00001140       $pdata$?shiftAndcleanupVertices@ConvexHullLib@physx@@IEAA_NIPEBVPxVec3@2@IAEAIPEAV32@AEAV32@3@Z 000000018003b140     ConvexHullLib.obj
 0004:0000114c       $pdata$7$?shiftAndcleanupVertices@ConvexHullLib@physx@@IEAA_NIPEBVPxVec3@2@IAEAIPEAV32@AEAV32@3@Z 000000018003b14c     ConvexHullLib.obj
 0004:00001158       $pdata$8$?shiftAndcleanupVertices@ConvexHullLib@physx@@IEAA_NIPEBVPxVec3@2@IAEAIPEAV32@AEAV32@3@Z 000000018003b158     ConvexHullLib.obj
 0004:00001164       $pdata$12$?shiftAndcleanupVertices@ConvexHullLib@physx@@IEAA_NIPEBVPxVec3@2@IAEAIPEAV32@AEAV32@3@Z 000000018003b164     ConvexHullLib.obj
 0004:00001170       $pdata$13$?shiftAndcleanupVertices@ConvexHullLib@physx@@IEAA_NIPEBVPxVec3@2@IAEAIPEAV32@AEAV32@3@Z 000000018003b170     ConvexHullLib.obj
 0004:0000117c       $pdata$14$?shiftAndcleanupVertices@ConvexHullLib@physx@@IEAA_NIPEBVPxVec3@2@IAEAIPEAV32@AEAV32@3@Z 000000018003b17c     ConvexHullLib.obj
 0004:00001188       $pdata$?swapLargestFace@ConvexHullLib@physx@@IEAAXAEAVPxConvexMeshDesc@2@@Z 000000018003b188     ConvexHullLib.obj
 0004:00001194       $pdata$1$?swapLargestFace@ConvexHullLib@physx@@IEAAXAEAVPxConvexMeshDesc@2@@Z 000000018003b194     ConvexHullLib.obj
 0004:000011a0       $pdata$2$?swapLargestFace@ConvexHullLib@physx@@IEAAXAEAVPxConvexMeshDesc@2@@Z 000000018003b1a0     ConvexHullLib.obj
 0004:000011ac       $pdata$3$?swapLargestFace@ConvexHullLib@physx@@IEAAXAEAVPxConvexMeshDesc@2@@Z 000000018003b1ac     ConvexHullLib.obj
 0004:000011b8       $pdata$4$?swapLargestFace@ConvexHullLib@physx@@IEAAXAEAVPxConvexMeshDesc@2@@Z 000000018003b1b8     ConvexHullLib.obj
 0004:000011c4       $pdata$??_GConvexHullLib@physx@@UEAAPEAXI@Z 000000018003b1c4     ConvexHullLib.obj
 0004:000011d0       $pdata$?checkPointsAABBValidity@local@@YA_NIPEBVPxVec3@physx@@IMMAEAV23@1AEAIPEAV23@_N@Z 000000018003b1d0     ConvexHullLib.obj
 0004:000011dc       $pdata$3$?checkPointsAABBValidity@local@@YA_NIPEBVPxVec3@physx@@IMMAEAV23@1AEAIPEAV23@_N@Z 000000018003b1dc     ConvexHullLib.obj
 0004:000011e8       $pdata$4$?checkPointsAABBValidity@local@@YA_NIPEBVPxVec3@physx@@IMMAEAV23@1AEAIPEAV23@_N@Z 000000018003b1e8     ConvexHullLib.obj
 0004:000011f4       $pdata$5$?checkPointsAABBValidity@local@@YA_NIPEBVPxVec3@physx@@IMMAEAV23@1AEAIPEAV23@_N@Z 000000018003b1f4     ConvexHullLib.obj
 0004:00001200       $pdata$6$?checkPointsAABBValidity@local@@YA_NIPEBVPxVec3@physx@@IMMAEAV23@1AEAIPEAV23@_N@Z 000000018003b200     ConvexHullLib.obj
 0004:0000120c       $pdata$??0PxQuat@physx@@QEAA@AEBVPxMat33@1@@Z 000000018003b20c     ConvexHullUtils.obj
 0004:00001218       $pdata$?getInverse@PxMat33@physx@@QEBA?BV12@XZ 000000018003b218     ConvexHullUtils.obj
 0004:00001224       $pdata$1$?getInverse@PxMat33@physx@@QEBA?BV12@XZ 000000018003b224     ConvexHullUtils.obj
 0004:00001230       $pdata$2$?getInverse@PxMat33@physx@@QEBA?BV12@XZ 000000018003b230     ConvexHullUtils.obj
 0004:0000123c       $pdata$??0ConvexHull@physx@@QEAA@AEBVPxVec3@1@0AEBV?$Array@VPxPlane@physx@@VNamedAllocator@shdfnd@2@@shdfnd@1@@Z 000000018003b23c     ConvexHullUtils.obj
 0004:00001248       $pdata$??0ConvexHull@physx@@QEAA@AEBVPxVec3@1@AEBVPxTransform@1@AEBV?$Array@VPxPlane@physx@@VNamedAllocator@shdfnd@2@@shdfnd@1@@Z 000000018003b248     ConvexHullUtils.obj
 0004:00001254       $pdata$?findCandidatePlane@ConvexHull@physx@@QEBAHMM@Z 000000018003b254     ConvexHullUtils.obj
 0004:00001260       $pdata$10$?findCandidatePlane@ConvexHull@physx@@QEBAHMM@Z 000000018003b260     ConvexHullUtils.obj
 0004:0000126c       $pdata$11$?findCandidatePlane@ConvexHull@physx@@QEBAHMM@Z 000000018003b26c     ConvexHullUtils.obj
 0004:00001278       $pdata$12$?findCandidatePlane@ConvexHull@physx@@QEBAHMM@Z 000000018003b278     ConvexHullUtils.obj
 0004:00001284       $pdata$?assertIntact@ConvexHull@physx@@QEBA_NM@Z 000000018003b284     ConvexHullUtils.obj
 0004:00001290       $pdata$?maxNumVertsPerFace@ConvexHull@physx@@QEBAIXZ 000000018003b290     ConvexHullUtils.obj
 0004:0000129c       $pdata$0$?maxNumVertsPerFace@ConvexHull@physx@@QEBAIXZ 000000018003b29c     ConvexHullUtils.obj
 0004:000012a8       $pdata$1$?maxNumVertsPerFace@ConvexHull@physx@@QEBAIXZ 000000018003b2a8     ConvexHullUtils.obj
 0004:000012b4       $pdata$?convexHullCrop@physx@@YAPEAVConvexHull@1@AEBV21@AEBVPxPlane@1@M@Z 000000018003b2b4     ConvexHullUtils.obj
 0004:000012c0       $pdata$6$?convexHullCrop@physx@@YAPEAVConvexHull@1@AEBV21@AEBVPxPlane@1@M@Z 000000018003b2c0     ConvexHullUtils.obj
 0004:000012cc       $pdata$7$?convexHullCrop@physx@@YAPEAVConvexHull@1@AEBV21@AEBVPxPlane@1@M@Z 000000018003b2cc     ConvexHullUtils.obj
 0004:000012d8       $pdata$9$?convexHullCrop@physx@@YAPEAVConvexHull@1@AEBV21@AEBVPxPlane@1@M@Z 000000018003b2d8     ConvexHullUtils.obj
 0004:000012e4       $pdata$10$?convexHullCrop@physx@@YAPEAVConvexHull@1@AEBV21@AEBVPxPlane@1@M@Z 000000018003b2e4     ConvexHullUtils.obj
 0004:000012f0       $pdata$11$?convexHullCrop@physx@@YAPEAVConvexHull@1@AEBV21@AEBVPxPlane@1@M@Z 000000018003b2f0     ConvexHullUtils.obj
 0004:000012fc       $pdata$12$?convexHullCrop@physx@@YAPEAVConvexHull@1@AEBV21@AEBVPxPlane@1@M@Z 000000018003b2fc     ConvexHullUtils.obj
 0004:00001308       $pdata$?computeOBBFromConvex@physx@@YA_NAEBVPxConvexMeshDesc@1@AEAVPxVec3@1@AEAVPxTransform@1@@Z 000000018003b308     ConvexHullUtils.obj
 0004:00001314       $pdata$4$?computeOBBFromConvex@physx@@YA_NAEBVPxConvexMeshDesc@1@AEAVPxVec3@1@AEAVPxTransform@1@@Z 000000018003b314     ConvexHullUtils.obj
 0004:00001320       $pdata$5$?computeOBBFromConvex@physx@@YA_NAEBVPxConvexMeshDesc@1@AEAVPxVec3@1@AEAVPxTransform@1@@Z 000000018003b320     ConvexHullUtils.obj
 0004:0000132c       $pdata$?computeOBBSIMD@local@@YAXIPEBT__m128@@AEAT2@AEBT2@1@Z 000000018003b32c     ConvexHullUtils.obj
 0004:00001338       $pdata$5$?computeOBBSIMD@local@@YAXIPEBT__m128@@AEAT2@AEBT2@1@Z 000000018003b338     ConvexHullUtils.obj
 0004:00001344       $pdata$6$?computeOBBSIMD@local@@YAXIPEBT__m128@@AEAT2@AEBT2@1@Z 000000018003b344     ConvexHullUtils.obj
 0004:00001350       $pdata$?resize@?$Array@VPxVec3@physx@@VNamedAllocator@shdfnd@2@@shdfnd@physx@@QEAAXIAEBVPxVec3@3@@Z 000000018003b350     ConvexHullUtils.obj
 0004:0000135c       $pdata$?resize@?$Array@VHalfEdge@ConvexHull@physx@@VNamedAllocator@shdfnd@3@@shdfnd@physx@@QEAAXIAEBVHalfEdge@ConvexHull@3@@Z 000000018003b35c     ConvexHullUtils.obj
 0004:00001368       $pdata$?growAndPushBack@?$Array@VHalfEdge@ConvexHull@physx@@VNamedAllocator@shdfnd@3@@shdfnd@physx@@IEAAAEAVHalfEdge@ConvexHull@3@AEBV453@@Z 000000018003b368     ConvexHullUtils.obj
 0004:00001374       $pdata$?recreate@?$Array@VHalfEdge@ConvexHull@physx@@VNamedAllocator@shdfnd@3@@shdfnd@physx@@IEAAXI@Z 000000018003b374     ConvexHullUtils.obj
 0004:00001380       $pdata$0$?recreate@?$Array@VHalfEdge@ConvexHull@physx@@VNamedAllocator@shdfnd@3@@shdfnd@physx@@IEAAXI@Z 000000018003b380     ConvexHullUtils.obj
 0004:0000138c       $pdata$1$?recreate@?$Array@VHalfEdge@ConvexHull@physx@@VNamedAllocator@shdfnd@3@@shdfnd@physx@@IEAAXI@Z 000000018003b38c     ConvexHullUtils.obj
 0004:00001398       $pdata$?resize@?$Array@VPxPlane@physx@@VNamedAllocator@shdfnd@2@@shdfnd@physx@@QEAAXIAEBVPxPlane@3@@Z 000000018003b398     ConvexHullUtils.obj
 0004:000013a4       $pdata$?growAndPushBack@?$Array@VPxPlane@physx@@VNamedAllocator@shdfnd@2@@shdfnd@physx@@IEAAAEAVPxPlane@3@AEBV43@@Z 000000018003b3a4     ConvexHullUtils.obj
 0004:000013b0       $pdata$0$?growAndPushBack@?$Array@VPxPlane@physx@@VNamedAllocator@shdfnd@2@@shdfnd@physx@@IEAAAEAVPxPlane@3@AEBV43@@Z 000000018003b3b0     ConvexHullUtils.obj
 0004:000013bc       $pdata$1$?growAndPushBack@?$Array@VPxPlane@physx@@VNamedAllocator@shdfnd@2@@shdfnd@physx@@IEAAAEAVPxPlane@3@AEBV43@@Z 000000018003b3bc     ConvexHullUtils.obj
 0004:000013c8       $pdata$2$?growAndPushBack@?$Array@VPxPlane@physx@@VNamedAllocator@shdfnd@2@@shdfnd@physx@@IEAAAEAVPxPlane@3@AEBV43@@Z 000000018003b3c8     ConvexHullUtils.obj
 0004:000013d4       $pdata$3$?growAndPushBack@?$Array@VPxPlane@physx@@VNamedAllocator@shdfnd@2@@shdfnd@physx@@IEAAAEAVPxPlane@3@AEBV43@@Z 000000018003b3d4     ConvexHullUtils.obj
 0004:000013e0       $pdata$?recreate@?$Array@VPxPlane@physx@@VNamedAllocator@shdfnd@2@@shdfnd@physx@@IEAAXI@Z 000000018003b3e0     ConvexHullUtils.obj
 0004:000013ec       $pdata$0$?recreate@?$Array@VPxPlane@physx@@VNamedAllocator@shdfnd@2@@shdfnd@physx@@IEAAXI@Z 000000018003b3ec     ConvexHullUtils.obj
 0004:000013f8       $pdata$1$?recreate@?$Array@VPxPlane@physx@@VNamedAllocator@shdfnd@2@@shdfnd@physx@@IEAAXI@Z 000000018003b3f8     ConvexHullUtils.obj
 0004:00001404       $pdata$?rotate@Box@Gu@physx@@QEBA?AVPxVec3@3@AEBV43@@Z 000000018003b404     ConvexHullUtils.obj
 0004:00001410       $pdata$?rotateInv@Box@Gu@physx@@QEBA?AVPxVec3@3@AEBV43@@Z 000000018003b410     ConvexHullUtils.obj
 0004:0000141c       $pdata$?transform@Box@Gu@physx@@QEBA?AVPxVec3@3@AEBV43@@Z 000000018003b41c     ConvexHullUtils.obj
 0004:00001428       $pdata$?getTransform@Box@Gu@physx@@QEBA?AVPxTransform@3@XZ 000000018003b428     ConvexHullUtils.obj
 0004:00001434       $pdata$?computeAABBExtent@Box@Gu@physx@@QEBA?AVPxVec3@3@XZ 000000018003b434     ConvexHullUtils.obj
 0004:00001440       $pdata$?computeBoxPoints@Box@Gu@physx@@QEBAXPEIAVPxVec3@3@@Z 000000018003b440     ConvexHullUtils.obj
 0004:0000144c       $pdata$?isFinite@PxVec3@physx@@QEBA_NXZ 000000018003b44c     ConvexMeshBuilder.obj
 0004:00001458       $pdata$??0ConvexMeshBuilder@physx@@QEAA@_N@Z 000000018003b458     ConvexMeshBuilder.obj
 0004:00001464       $pdata$??1ConvexMeshBuilder@physx@@QEAA@XZ 000000018003b464     ConvexMeshBuilder.obj
 0004:00001470       $pdata$?build@ConvexMeshBuilder@physx@@QEAA_NAEBVPxConvexMeshDesc@2@I_NPEAVConvexHullLib@2@@Z 000000018003b470     ConvexMeshBuilder.obj
 0004:0000147c       $pdata$0$?build@ConvexMeshBuilder@physx@@QEAA_NAEBVPxConvexMeshDesc@2@I_NPEAVConvexHullLib@2@@Z 000000018003b47c     ConvexMeshBuilder.obj
 0004:00001488       $pdata$2$?build@ConvexMeshBuilder@physx@@QEAA_NAEBVPxConvexMeshDesc@2@I_NPEAVConvexHullLib@2@@Z 000000018003b488     ConvexMeshBuilder.obj
 0004:00001494       $pdata$3$?build@ConvexMeshBuilder@physx@@QEAA_NAEBVPxConvexMeshDesc@2@I_NPEAVConvexHullLib@2@@Z 000000018003b494     ConvexMeshBuilder.obj
 0004:000014a0       $pdata$4$?build@ConvexMeshBuilder@physx@@QEAA_NAEBVPxConvexMeshDesc@2@I_NPEAVConvexHullLib@2@@Z 000000018003b4a0     ConvexMeshBuilder.obj
 0004:000014ac       $pdata$?save@ConvexMeshBuilder@physx@@QEBA_NAEAVPxOutputStream@2@_N@Z 000000018003b4ac     ConvexMeshBuilder.obj
 0004:000014b8       $pdata$0$?save@ConvexMeshBuilder@physx@@QEBA_NAEAVPxOutputStream@2@_N@Z 000000018003b4b8     ConvexMeshBuilder.obj
 0004:000014c4       $pdata$1$?save@ConvexMeshBuilder@physx@@QEBA_NAEAVPxOutputStream@2@_N@Z 000000018003b4c4     ConvexMeshBuilder.obj
 0004:000014d0       $pdata$?copy@ConvexMeshBuilder@physx@@QEAA_NAEAUConvexHullData@Gu@2@AEAI@Z 000000018003b4d0     ConvexMeshBuilder.obj
 0004:000014dc       $pdata$?loadConvexHull@ConvexMeshBuilder@physx@@QEAA_NAEBVPxConvexMeshDesc@2@PEAVConvexHullLib@2@@Z 000000018003b4dc     ConvexMeshBuilder.obj
 0004:000014e8       $pdata$?computeHullPolygons@ConvexMeshBuilder@physx@@QEAA_NAEBIPEBVPxVec3@2@0PEBIAEAVPxAllocatorCallback@2@AEAIAEAPEAV32@4AEAPEAI4AEAPEAUPxHullPolygon@2@@Z 000000018003b4e8     ConvexMeshBuilder.obj
 0004:000014f4       $pdata$3$?computeHullPolygons@ConvexMeshBuilder@physx@@QEAA_NAEBIPEBVPxVec3@2@0PEBIAEAVPxAllocatorCallback@2@AEAIAEAPEAV32@4AEAPEAI4AEAPEAUPxHullPolygon@2@@Z 000000018003b4f4     ConvexMeshBuilder.obj
 0004:00001500       $pdata$4$?computeHullPolygons@ConvexMeshBuilder@physx@@QEAA_NAEBIPEBVPxVec3@2@0PEBIAEAVPxAllocatorCallback@2@AEAIAEAPEAV32@4AEAPEAI4AEAPEAUPxHullPolygon@2@@Z 000000018003b500     ConvexMeshBuilder.obj
 0004:0000150c       $pdata$?computeGaussMaps@ConvexMeshBuilder@physx@@QEAA_NXZ 000000018003b50c     ConvexMeshBuilder.obj
 0004:00001518       $pdata$?computeMassInfo@ConvexMeshBuilder@physx@@QEAAX_N@Z 000000018003b518     ConvexMeshBuilder.obj
 0004:00001524       $pdata$0$?computeMassInfo@ConvexMeshBuilder@physx@@QEAAX_N@Z 000000018003b524     ConvexMeshBuilder.obj
 0004:00001530       $pdata$1$?computeMassInfo@ConvexMeshBuilder@physx@@QEAAX_N@Z 000000018003b530     ConvexMeshBuilder.obj
 0004:0000153c       $pdata$5$?computeMassInfo@ConvexMeshBuilder@physx@@QEAAX_N@Z 000000018003b53c     ConvexMeshBuilder.obj
 0004:00001548       $pdata$6$?computeMassInfo@ConvexMeshBuilder@physx@@QEAAX_N@Z 000000018003b548     ConvexMeshBuilder.obj
 0004:00001554       $pdata$7$?computeMassInfo@ConvexMeshBuilder@physx@@QEAAX_N@Z 000000018003b554     ConvexMeshBuilder.obj
 0004:00001560       $pdata$8$?computeMassInfo@ConvexMeshBuilder@physx@@QEAAX_N@Z 000000018003b560     ConvexMeshBuilder.obj
 0004:0000156c       $pdata$?ComputeInternalExtent@@YAXAEAUConvexHullData@Gu@physx@@PEBUHullPolygonData@23@@Z 000000018003b56c     ConvexMeshBuilder.obj
 0004:00001578       $pdata$0$?ComputeInternalExtent@@YAXAEAUConvexHullData@Gu@physx@@PEBUHullPolygonData@23@@Z 000000018003b578     ConvexMeshBuilder.obj
 0004:00001584       $pdata$1$?ComputeInternalExtent@@YAXAEAUConvexHullData@Gu@physx@@PEBUHullPolygonData@23@@Z 000000018003b584     ConvexMeshBuilder.obj
 0004:00001590       $pdata$??0ConvexPolygonsBuilder@physx@@QEAA@PEAUConvexHullData@Gu@1@_N@Z 000000018003b590     ConvexPolygonsBuilder.obj
 0004:0000159c       $pdata$??1ConvexPolygonsBuilder@physx@@QEAA@XZ 000000018003b59c     ConvexPolygonsBuilder.obj
 0004:000015a8       $pdata$?computeHullPolygons@ConvexPolygonsBuilder@physx@@QEAA_NAEBIPEBVPxVec3@2@0PEBI@Z 000000018003b5a8     ConvexPolygonsBuilder.obj
 0004:000015b4       $pdata$?createPolygonData@ConvexPolygonsBuilder@physx@@AEAA_NXZ 000000018003b5b4     ConvexPolygonsBuilder.obj
 0004:000015c0       $pdata$7$?createPolygonData@ConvexPolygonsBuilder@physx@@AEAA_NXZ 000000018003b5c0     ConvexPolygonsBuilder.obj
 0004:000015cc       $pdata$8$?createPolygonData@ConvexPolygonsBuilder@physx@@AEAA_NXZ 000000018003b5cc     ConvexPolygonsBuilder.obj
 0004:000015d8       $pdata$9$?createPolygonData@ConvexPolygonsBuilder@physx@@AEAA_NXZ 000000018003b5d8     ConvexPolygonsBuilder.obj
 0004:000015e4       $pdata$17$?createPolygonData@ConvexPolygonsBuilder@physx@@AEAA_NXZ 000000018003b5e4     ConvexPolygonsBuilder.obj
 0004:000015f0       $pdata$18$?createPolygonData@ConvexPolygonsBuilder@physx@@AEAA_NXZ 000000018003b5f0     ConvexPolygonsBuilder.obj
 0004:000015fc       $pdata$?createTrianglesFromPolygons@ConvexPolygonsBuilder@physx@@AEAA_NXZ 000000018003b5fc     ConvexPolygonsBuilder.obj
 0004:00001608       $pdata$3$?createTrianglesFromPolygons@ConvexPolygonsBuilder@physx@@AEAA_NXZ 000000018003b608     ConvexPolygonsBuilder.obj
 0004:00001614       $pdata$4$?createTrianglesFromPolygons@ConvexPolygonsBuilder@physx@@AEAA_NXZ 000000018003b614     ConvexPolygonsBuilder.obj
 0004:00001620       $pdata$?findLineStrip@@YA_NAEAV?$Array@IVNamedAllocator@shdfnd@physx@@@shdfnd@physx@@AEBV?$Array@VPair@@VNamedAllocator@shdfnd@physx@@@23@@Z 000000018003b620     ConvexPolygonsBuilder.obj
 0004:0000162c       $pdata$?growAndPushBack@?$Array@VPair@@VNamedAllocator@shdfnd@physx@@@shdfnd@physx@@IEAAAEAVPair@@AEBV4@@Z 000000018003b62c     ConvexPolygonsBuilder.obj
 0004:00001638       $pdata$?TestDuplicateTriangles@@YA_NAEAIPEAU?$TriangleT@I@Gu@physx@@_N@Z 000000018003b638     ConvexPolygonsBuilder.obj
 0004:00001644       $pdata$?TestUnifiedNormals@@YA_NIPEBVPxVec3@physx@@IPEAU?$TriangleT@I@Gu@2@_N@Z 000000018003b644     ConvexPolygonsBuilder.obj
 0004:00001650       $pdata$10$?TestUnifiedNormals@@YA_NIPEBVPxVec3@physx@@IPEAU?$TriangleT@I@Gu@2@_N@Z 000000018003b650     ConvexPolygonsBuilder.obj
 0004:0000165c       $pdata$12$?TestUnifiedNormals@@YA_NIPEBVPxVec3@physx@@IPEAU?$TriangleT@I@Gu@2@_N@Z 000000018003b65c     ConvexPolygonsBuilder.obj
 0004:00001668       $pdata$13$?TestUnifiedNormals@@YA_NIPEBVPxVec3@physx@@IPEAU?$TriangleT@I@Gu@2@_N@Z 000000018003b668     ConvexPolygonsBuilder.obj
 0004:00001674       $pdata$14$?TestUnifiedNormals@@YA_NIPEBVPxVec3@physx@@IPEAU?$TriangleT@I@Gu@2@_N@Z 000000018003b674     ConvexPolygonsBuilder.obj
 0004:00001680       $pdata$?checkRedundantVertices@@YAXAEAIAEAV?$Array@IVNamedAllocator@shdfnd@physx@@@shdfnd@physx@@AEBVConvexPolygonsBuilder@3@11@Z 000000018003b680     ConvexPolygonsBuilder.obj
 0004:0000168c       $pdata$?extractHullPolygons@@YA_NAEAIAEAV?$Array@IVNamedAllocator@shdfnd@physx@@@shdfnd@physx@@AEBVConvexPolygonsBuilder@3@PEAV123@1@Z 000000018003b68c     ConvexPolygonsBuilder.obj
 0004:00001698       $pdata$?FloodFill@Local@?7??extractHullPolygons@@YA_NAEAIAEAV?$Array@IVNamedAllocator@shdfnd@physx@@@shdfnd@physx@@AEBVConvexPolygonsBuilder@5@PEAV345@1@Z@SAX1PEBVAdjTriangle@5@IPEA_N@Z 000000018003b698     ConvexPolygonsBuilder.obj
 0004:000016a4       $pdata$0$?FloodFill@Local@?7??extractHullPolygons@@YA_NAEAIAEAV?$Array@IVNamedAllocator@shdfnd@physx@@@shdfnd@physx@@AEBVConvexPolygonsBuilder@5@PEAV345@1@Z@SAX1PEBVAdjTriangle@5@IPEA_N@Z 000000018003b6a4     ConvexPolygonsBuilder.obj
 0004:000016b0       $pdata$1$?FloodFill@Local@?7??extractHullPolygons@@YA_NAEAIAEAV?$Array@IVNamedAllocator@shdfnd@physx@@@shdfnd@physx@@AEBVConvexPolygonsBuilder@5@PEAV345@1@Z@SAX1PEBVAdjTriangle@5@IPEA_N@Z 000000018003b6b0     ConvexPolygonsBuilder.obj
 0004:000016bc       $pdata$?CheckFloodFillFace@Local@?7??extractHullPolygons@@YA_NAEAIAEAV?$Array@IVNamedAllocator@shdfnd@physx@@@shdfnd@physx@@AEBVConvexPolygonsBuilder@5@PEAV345@1@Z@SA_NIPEBVAdjTriangle@5@PEBI@Z 000000018003b6bc     ConvexPolygonsBuilder.obj
 0004:000016c8       $pdata$??$copy@VNamedAllocator@shdfnd@physx@@@?$Array@VPair@@VNamedAllocator@shdfnd@physx@@@shdfnd@physx@@IEAAXAEBV012@@Z 000000018003b6c8     ConvexPolygonsBuilder.obj
 0004:000016d4       $pdata$0$??$copy@VNamedAllocator@shdfnd@physx@@@?$Array@VPair@@VNamedAllocator@shdfnd@physx@@@shdfnd@physx@@IEAAXAEBV012@@Z 000000018003b6d4     ConvexPolygonsBuilder.obj
 0004:000016e0       $pdata$1$??$copy@VNamedAllocator@shdfnd@physx@@@?$Array@VPair@@VNamedAllocator@shdfnd@physx@@@shdfnd@physx@@IEAAXAEBV012@@Z 000000018003b6e0     ConvexPolygonsBuilder.obj
 0004:000016ec       $pdata$??__G@YAXPEAX0_K1P6APEAX00@Z@Z 000000018003b6ec     QuickHullConvexHullLib.obj
 0004:000016f8       $pdata$0$??__G@YAXPEAX0_K1P6APEAX00@Z@Z 000000018003b6f8     QuickHullConvexHullLib.obj
 0004:00001704       $pdata$1$??__G@YAXPEAX0_K1P6APEAX00@Z@Z 000000018003b704     QuickHullConvexHullLib.obj
 0004:00001710       $pdata$??0QuickHullConvexHullLib@physx@@QEAA@AEBVPxConvexMeshDesc@1@AEBUPxCookingParams@1@@Z 000000018003b710     QuickHullConvexHullLib.obj
 0004:0000171c       $pdata$??1QuickHullConvexHullLib@physx@@UEAA@XZ 000000018003b71c     QuickHullConvexHullLib.obj
 0004:00001728       $pdata$?createConvexHull@QuickHullConvexHullLib@physx@@UEAA?AW4Enum@PxConvexMeshCookingResult@2@XZ 000000018003b728     QuickHullConvexHullLib.obj
 0004:00001734       $pdata$0$?createConvexHull@QuickHullConvexHullLib@physx@@UEAA?AW4Enum@PxConvexMeshCookingResult@2@XZ 000000018003b734     QuickHullConvexHullLib.obj
 0004:00001740       $pdata$2$?createConvexHull@QuickHullConvexHullLib@physx@@UEAA?AW4Enum@PxConvexMeshCookingResult@2@XZ 000000018003b740     QuickHullConvexHullLib.obj
 0004:0000174c       $pdata$3$?createConvexHull@QuickHullConvexHullLib@physx@@UEAA?AW4Enum@PxConvexMeshCookingResult@2@XZ 000000018003b74c     QuickHullConvexHullLib.obj
 0004:00001758       $pdata$4$?createConvexHull@QuickHullConvexHullLib@physx@@UEAA?AW4Enum@PxConvexMeshCookingResult@2@XZ 000000018003b758     QuickHullConvexHullLib.obj
 0004:00001764       $pdata$5$?createConvexHull@QuickHullConvexHullLib@physx@@UEAA?AW4Enum@PxConvexMeshCookingResult@2@XZ 000000018003b764     QuickHullConvexHullLib.obj
 0004:00001770       $pdata$6$?createConvexHull@QuickHullConvexHullLib@physx@@UEAA?AW4Enum@PxConvexMeshCookingResult@2@XZ 000000018003b770     QuickHullConvexHullLib.obj
 0004:0000177c       $pdata$7$?createConvexHull@QuickHullConvexHullLib@physx@@UEAA?AW4Enum@PxConvexMeshCookingResult@2@XZ 000000018003b77c     QuickHullConvexHullLib.obj
 0004:00001788       $pdata$?fillConvexMeshDesc@QuickHullConvexHullLib@physx@@UEAAXAEAVPxConvexMeshDesc@2@@Z 000000018003b788     QuickHullConvexHullLib.obj
 0004:00001794       $pdata$?createEdgeList@QuickHullConvexHullLib@physx@@UEAA_NIPEBEPEAPEAEPEAPEAG2@Z 000000018003b794     QuickHullConvexHullLib.obj
 0004:000017a0       $pdata$?expandHullOBB@QuickHullConvexHullLib@physx@@IEAA?AW4Enum@PxConvexMeshCookingResult@2@XZ 000000018003b7a0     QuickHullConvexHullLib.obj
 0004:000017ac       $pdata$5$?expandHullOBB@QuickHullConvexHullLib@physx@@IEAA?AW4Enum@PxConvexMeshCookingResult@2@XZ 000000018003b7ac     QuickHullConvexHullLib.obj
 0004:000017b8       $pdata$6$?expandHullOBB@QuickHullConvexHullLib@physx@@IEAA?AW4Enum@PxConvexMeshCookingResult@2@XZ 000000018003b7b8     QuickHullConvexHullLib.obj
 0004:000017c4       $pdata$7$?expandHullOBB@QuickHullConvexHullLib@physx@@IEAA?AW4Enum@PxConvexMeshCookingResult@2@XZ 000000018003b7c4     QuickHullConvexHullLib.obj
 0004:000017d0       $pdata$8$?expandHullOBB@QuickHullConvexHullLib@physx@@IEAA?AW4Enum@PxConvexMeshCookingResult@2@XZ 000000018003b7d0     QuickHullConvexHullLib.obj
 0004:000017dc       $pdata$?expandHull@QuickHullConvexHullLib@physx@@IEAA?AW4Enum@PxConvexMeshCookingResult@2@XZ 000000018003b7dc     QuickHullConvexHullLib.obj
 0004:000017e8       $pdata$?cleanupForSimplex@QuickHullConvexHullLib@physx@@IEAA_NPEAVPxVec3@2@IPEAUQuickHullVertex@local@@1AEAM2@Z 000000018003b7e8     QuickHullConvexHullLib.obj
 0004:000017f4       $pdata$0$?cleanupForSimplex@QuickHullConvexHullLib@physx@@IEAA_NPEAVPxVec3@2@IPEAUQuickHullVertex@local@@1AEAM2@Z 000000018003b7f4     QuickHullConvexHullLib.obj
 0004:00001800       $pdata$3$?cleanupForSimplex@QuickHullConvexHullLib@physx@@IEAA_NPEAVPxVec3@2@IPEAUQuickHullVertex@local@@1AEAM2@Z 000000018003b800     QuickHullConvexHullLib.obj
 0004:0000180c       $pdata$5$?cleanupForSimplex@QuickHullConvexHullLib@physx@@IEAA_NPEAVPxVec3@2@IPEAUQuickHullVertex@local@@1AEAM2@Z 000000018003b80c     QuickHullConvexHullLib.obj
 0004:00001818       $pdata$6$?cleanupForSimplex@QuickHullConvexHullLib@physx@@IEAA_NPEAVPxVec3@2@IPEAUQuickHullVertex@local@@1AEAM2@Z 000000018003b818     QuickHullConvexHullLib.obj
 0004:00001824       $pdata$7$?cleanupForSimplex@QuickHullConvexHullLib@physx@@IEAA_NPEAVPxVec3@2@IPEAUQuickHullVertex@local@@1AEAM2@Z 000000018003b824     QuickHullConvexHullLib.obj
 0004:00001830       $pdata$8$?cleanupForSimplex@QuickHullConvexHullLib@physx@@IEAA_NPEAVPxVec3@2@IPEAUQuickHullVertex@local@@1AEAM2@Z 000000018003b830     QuickHullConvexHullLib.obj
 0004:0000183c       $pdata$9$?cleanupForSimplex@QuickHullConvexHullLib@physx@@IEAA_NPEAVPxVec3@2@IPEAUQuickHullVertex@local@@1AEAM2@Z 000000018003b83c     QuickHullConvexHullLib.obj
 0004:00001848       $pdata$10$?cleanupForSimplex@QuickHullConvexHullLib@physx@@IEAA_NPEAVPxVec3@2@IPEAUQuickHullVertex@local@@1AEAM2@Z 000000018003b848     QuickHullConvexHullLib.obj
 0004:00001854       $pdata$11$?cleanupForSimplex@QuickHullConvexHullLib@physx@@IEAA_NPEAVPxVec3@2@IPEAUQuickHullVertex@local@@1AEAM2@Z 000000018003b854     QuickHullConvexHullLib.obj
 0004:00001860       $pdata$12$?cleanupForSimplex@QuickHullConvexHullLib@physx@@IEAA_NPEAVPxVec3@2@IPEAUQuickHullVertex@local@@1AEAM2@Z 000000018003b860     QuickHullConvexHullLib.obj
 0004:0000186c       $pdata$?fillConvexMeshDescFromQuickHull@QuickHullConvexHullLib@physx@@IEAAXAEAVPxConvexMeshDesc@2@@Z 000000018003b86c     QuickHullConvexHullLib.obj
 0004:00001878       $pdata$?fillConvexMeshDescFromCroppedHull@QuickHullConvexHullLib@physx@@IEAAXAEAVPxConvexMeshDesc@2@@Z 000000018003b878     QuickHullConvexHullLib.obj
 0004:00001884       $pdata$?mergeAdjacentFace@QuickHullFace@local@@QEAA_NPEAUQuickHullHalfEdge@2@AEAV?$Array@PEAUQuickHullFace@local@@VNamedAllocator@shdfnd@physx@@@shdfnd@physx@@@Z 000000018003b884     QuickHullConvexHullLib.obj
 0004:00001890       $pdata$4$?mergeAdjacentFace@QuickHullFace@local@@QEAA_NPEAUQuickHullHalfEdge@2@AEAV?$Array@PEAUQuickHullFace@local@@VNamedAllocator@shdfnd@physx@@@shdfnd@physx@@@Z 000000018003b890     QuickHullConvexHullLib.obj
 0004:0000189c       $pdata$5$?mergeAdjacentFace@QuickHullFace@local@@QEAA_NPEAUQuickHullHalfEdge@2@AEAV?$Array@PEAUQuickHullFace@local@@VNamedAllocator@shdfnd@physx@@@shdfnd@physx@@@Z 000000018003b89c     QuickHullConvexHullLib.obj
 0004:000018a8       $pdata$6$?mergeAdjacentFace@QuickHullFace@local@@QEAA_NPEAUQuickHullHalfEdge@2@AEAV?$Array@PEAUQuickHullFace@local@@VNamedAllocator@shdfnd@physx@@@shdfnd@physx@@@Z 000000018003b8a8     QuickHullConvexHullLib.obj
 0004:000018b4       $pdata$7$?mergeAdjacentFace@QuickHullFace@local@@QEAA_NPEAUQuickHullHalfEdge@2@AEAV?$Array@PEAUQuickHullFace@local@@VNamedAllocator@shdfnd@physx@@@shdfnd@physx@@@Z 000000018003b8b4     QuickHullConvexHullLib.obj
 0004:000018c0       $pdata$8$?mergeAdjacentFace@QuickHullFace@local@@QEAA_NPEAUQuickHullHalfEdge@2@AEAV?$Array@PEAUQuickHullFace@local@@VNamedAllocator@shdfnd@physx@@@shdfnd@physx@@@Z 000000018003b8c0     QuickHullConvexHullLib.obj
 0004:000018cc       $pdata$?connectHalfEdges@QuickHullFace@local@@AEAAPEAU12@PEAUQuickHullHalfEdge@2@0@Z 000000018003b8cc     QuickHullConvexHullLib.obj
 0004:000018d8       $pdata$0$?connectHalfEdges@QuickHullFace@local@@AEAAPEAU12@PEAUQuickHullHalfEdge@2@0@Z 000000018003b8d8     QuickHullConvexHullLib.obj
 0004:000018e4       $pdata$4$?connectHalfEdges@QuickHullFace@local@@AEAAPEAU12@PEAUQuickHullHalfEdge@2@0@Z 000000018003b8e4     QuickHullConvexHullLib.obj
 0004:000018f0       $pdata$5$?connectHalfEdges@QuickHullFace@local@@AEAAPEAU12@PEAUQuickHullHalfEdge@2@0@Z 000000018003b8f0     QuickHullConvexHullLib.obj
 0004:000018fc       $pdata$6$?connectHalfEdges@QuickHullFace@local@@AEAAPEAU12@PEAUQuickHullHalfEdge@2@0@Z 000000018003b8fc     QuickHullConvexHullLib.obj
 0004:00001908       $pdata$??0QuickHull@local@@QEAA@AEBUPxCookingParams@physx@@AEBVPxConvexMeshDesc@3@@Z 000000018003b908     QuickHullConvexHullLib.obj
 0004:00001914       $pdata$??1QuickHull@local@@QEAA@XZ 000000018003b914     QuickHullConvexHullLib.obj
 0004:00001920       $pdata$?preallocate@QuickHull@local@@QEAAXI@Z 000000018003b920     QuickHullConvexHullLib.obj
 0004:0000192c       $pdata$?parseInputVertices@QuickHull@local@@QEAAXPEBVPxVec3@physx@@I@Z 000000018003b92c     QuickHullConvexHullLib.obj
 0004:00001938       $pdata$0$?parseInputVertices@QuickHull@local@@QEAAXPEBVPxVec3@physx@@I@Z 000000018003b938     QuickHullConvexHullLib.obj
 0004:00001944       $pdata$1$?parseInputVertices@QuickHull@local@@QEAAXPEBVPxVec3@physx@@I@Z 000000018003b944     QuickHullConvexHullLib.obj
 0004:00001950       $pdata$?releaseHull@QuickHull@local@@QEAAXXZ 000000018003b950     QuickHullConvexHullLib.obj
 0004:0000195c       $pdata$?buildHull@QuickHull@local@@QEAA?AW4Enum@QuickHullResult@2@XZ 000000018003b95c     QuickHullConvexHullLib.obj
 0004:00001968       $pdata$?computeMinMaxVerts@QuickHull@local@@IEAAXXZ 000000018003b968     QuickHullConvexHullLib.obj
 0004:00001974       $pdata$?findSimplex@QuickHull@local@@IEAA_NXZ 000000018003b974     QuickHullConvexHullLib.obj
 0004:00001980       $pdata$8$?findSimplex@QuickHull@local@@IEAA_NXZ 000000018003b980     QuickHullConvexHullLib.obj
 0004:0000198c       $pdata$10$?findSimplex@QuickHull@local@@IEAA_NXZ 000000018003b98c     QuickHullConvexHullLib.obj
 0004:00001998       $pdata$11$?findSimplex@QuickHull@local@@IEAA_NXZ 000000018003b998     QuickHullConvexHullLib.obj
 0004:000019a4       $pdata$12$?findSimplex@QuickHull@local@@IEAA_NXZ 000000018003b9a4     QuickHullConvexHullLib.obj
 0004:000019b0       $pdata$13$?findSimplex@QuickHull@local@@IEAA_NXZ 000000018003b9b0     QuickHullConvexHullLib.obj
 0004:000019bc       $pdata$14$?findSimplex@QuickHull@local@@IEAA_NXZ 000000018003b9bc     QuickHullConvexHullLib.obj
 0004:000019c8       $pdata$?addSimplex@QuickHull@local@@IEAAXPEAUQuickHullVertex@2@_N@Z 000000018003b9c8     QuickHullConvexHullLib.obj
 0004:000019d4       $pdata$2$?addSimplex@QuickHull@local@@IEAAXPEAUQuickHullVertex@2@_N@Z 000000018003b9d4     QuickHullConvexHullLib.obj
 0004:000019e0       $pdata$8$?addSimplex@QuickHull@local@@IEAAXPEAUQuickHullVertex@2@_N@Z 000000018003b9e0     QuickHullConvexHullLib.obj
 0004:000019ec       $pdata$3$?addSimplex@QuickHull@local@@IEAAXPEAUQuickHullVertex@2@_N@Z 000000018003b9ec     QuickHullConvexHullLib.obj
 0004:000019f8       $pdata$?nextPointToAdd@QuickHull@local@@IEAAPEAUQuickHullVertex@2@AEAPEAUQuickHullFace@2@@Z 000000018003b9f8     QuickHullConvexHullLib.obj
 0004:00001a04       $pdata$?addPointToHull@QuickHull@local@@IEAA_NPEBUQuickHullVertex@2@AEAUQuickHullFace@2@AEA_N@Z 000000018003ba04     QuickHullConvexHullLib.obj
 0004:00001a10       $pdata$3$?addPointToHull@QuickHull@local@@IEAA_NPEBUQuickHullVertex@2@AEAUQuickHullFace@2@AEA_N@Z 000000018003ba10     QuickHullConvexHullLib.obj
 0004:00001a1c       $pdata$4$?addPointToHull@QuickHull@local@@IEAA_NPEBUQuickHullVertex@2@AEAUQuickHullFace@2@AEA_N@Z 000000018003ba1c     QuickHullConvexHullLib.obj
 0004:00001a28       $pdata$5$?addPointToHull@QuickHull@local@@IEAA_NPEBUQuickHullVertex@2@AEAUQuickHullFace@2@AEA_N@Z 000000018003ba28     QuickHullConvexHullLib.obj
 0004:00001a34       $pdata$6$?addPointToHull@QuickHull@local@@IEAA_NPEBUQuickHullVertex@2@AEAUQuickHullFace@2@AEA_N@Z 000000018003ba34     QuickHullConvexHullLib.obj
 0004:00001a40       $pdata$?createTriangle@QuickHull@local@@IEAAPEAUQuickHullFace@2@AEBUQuickHullVertex@2@00@Z 000000018003ba40     QuickHullConvexHullLib.obj
 0004:00001a4c       $pdata$?calculateHorizon@QuickHull@local@@IEAAXAEBVPxVec3@physx@@PEAUQuickHullHalfEdge@2@AEAUQuickHullFace@2@AEAV?$Array@PEAUQuickHullHalfEdge@local@@VNamedAllocator@shdfnd@physx@@@shdfnd@4@AEAV?$Array@PEAUQuickHullFace@local@@VNamedAllocator@shdfnd@physx@@@84@@Z 000000018003ba4c     QuickHullConvexHullLib.obj
 0004:00001a58       $pdata$?addNewFacesFromHorizon@QuickHull@local@@IEAAXPEBUQuickHullVertex@2@AEBV?$Array@PEAUQuickHullHalfEdge@local@@VNamedAllocator@shdfnd@physx@@@shdfnd@physx@@AEAV?$Array@PEAUQuickHullFace@local@@VNamedAllocator@shdfnd@physx@@@56@@Z 000000018003ba58     QuickHullConvexHullLib.obj
 0004:00001a64       $pdata$2$?addNewFacesFromHorizon@QuickHull@local@@IEAAXPEBUQuickHullVertex@2@AEBV?$Array@PEAUQuickHullHalfEdge@local@@VNamedAllocator@shdfnd@physx@@@shdfnd@physx@@AEAV?$Array@PEAUQuickHullFace@local@@VNamedAllocator@shdfnd@physx@@@56@@Z 000000018003ba64     QuickHullConvexHullLib.obj
 0004:00001a70       $pdata$3$?addNewFacesFromHorizon@QuickHull@local@@IEAAXPEBUQuickHullVertex@2@AEBV?$Array@PEAUQuickHullHalfEdge@local@@VNamedAllocator@shdfnd@physx@@@shdfnd@physx@@AEAV?$Array@PEAUQuickHullFace@local@@VNamedAllocator@shdfnd@physx@@@56@@Z 000000018003ba70     QuickHullConvexHullLib.obj
 0004:00001a7c       $pdata$?doAdjacentMerge@QuickHull@local@@IEAA_NAEAUQuickHullFace@2@_NAEA_N@Z 000000018003ba7c     QuickHullConvexHullLib.obj
 0004:00001a88       $pdata$1$?doAdjacentMerge@QuickHull@local@@IEAA_NAEAUQuickHullFace@2@_NAEA_N@Z 000000018003ba88     QuickHullConvexHullLib.obj
 0004:00001a94       $pdata$?doPostAdjacentMerge@QuickHull@local@@IEAA_NAEAUQuickHullFace@2@M@Z 000000018003ba94     QuickHullConvexHullLib.obj
 0004:00001aa0       $pdata$0$?doPostAdjacentMerge@QuickHull@local@@IEAA_NAEAUQuickHullFace@2@M@Z 000000018003baa0     QuickHullConvexHullLib.obj
 0004:00001aac       $pdata$1$?doPostAdjacentMerge@QuickHull@local@@IEAA_NAEAUQuickHullFace@2@M@Z 000000018003baac     QuickHullConvexHullLib.obj
 0004:00001ab8       $pdata$?deleteFacePoints@QuickHull@local@@IEAAXAEAUQuickHullFace@2@PEAU32@@Z 000000018003bab8     QuickHullConvexHullLib.obj
 0004:00001ac4       $pdata$0$?deleteFacePoints@QuickHull@local@@IEAAXAEAUQuickHullFace@2@PEAU32@@Z 000000018003bac4     QuickHullConvexHullLib.obj
 0004:00001ad0       $pdata$1$?deleteFacePoints@QuickHull@local@@IEAAXAEAUQuickHullFace@2@PEAU32@@Z 000000018003bad0     QuickHullConvexHullLib.obj
 0004:00001adc       $pdata$?resolveUnclaimedPoints@QuickHull@local@@IEAAXAEBV?$Array@PEAUQuickHullFace@local@@VNamedAllocator@shdfnd@physx@@@shdfnd@physx@@@Z 000000018003badc     QuickHullConvexHullLib.obj
 0004:00001ae8       $pdata$?postMergeHull@QuickHull@local@@IEAAXXZ 000000018003bae8     QuickHullConvexHullLib.obj
 0004:00001af4       $pdata$2$?postMergeHull@QuickHull@local@@IEAAXXZ 000000018003baf4     QuickHullConvexHullLib.obj
 0004:00001b00       $pdata$3$?postMergeHull@QuickHull@local@@IEAAXXZ 000000018003bb00     QuickHullConvexHullLib.obj
 0004:00001b0c       $pdata$4$?postMergeHull@QuickHull@local@@IEAAXXZ 000000018003bb0c     QuickHullConvexHullLib.obj
 0004:00001b18       $pdata$?canMergeFaces@QuickHull@local@@IEAA_NAEBUQuickHullHalfEdge@2@@Z 000000018003bb18     QuickHullConvexHullLib.obj
 0004:00001b24       $pdata$??_GQuickHullConvexHullLib@physx@@UEAAPEAXI@Z 000000018003bb24     QuickHullConvexHullLib.obj
 0004:00001b30       $pdata$??_GConvexHull@physx@@QEAAPEAXI@Z 000000018003bb30     QuickHullConvexHullLib.obj
 0004:00001b3c       $pdata$?init@?$MemBlock@UQuickHullHalfEdge@local@@$0A@@local@@QEAAXI@Z 000000018003bb3c     QuickHullConvexHullLib.obj
 0004:00001b48       $pdata$??1?$MemBlock@UQuickHullHalfEdge@local@@$0A@@local@@QEAA@XZ 000000018003bb48     QuickHullConvexHullLib.obj
 0004:00001b54       $pdata$0$??1?$MemBlock@UQuickHullHalfEdge@local@@$0A@@local@@QEAA@XZ 000000018003bb54     QuickHullConvexHullLib.obj
 0004:00001b60       $pdata$1$??1?$MemBlock@UQuickHullHalfEdge@local@@$0A@@local@@QEAA@XZ 000000018003bb60     QuickHullConvexHullLib.obj
 0004:00001b6c       $pdata$2$??1?$MemBlock@UQuickHullHalfEdge@local@@$0A@@local@@QEAA@XZ 000000018003bb6c     QuickHullConvexHullLib.obj
 0004:00001b78       $pdata$3$??1?$MemBlock@UQuickHullHalfEdge@local@@$0A@@local@@QEAA@XZ 000000018003bb78     QuickHullConvexHullLib.obj
 0004:00001b84       $pdata$?getFreeItem@?$MemBlock@UQuickHullHalfEdge@local@@$0A@@local@@QEAAPEAUQuickHullHalfEdge@2@XZ 000000018003bb84     QuickHullConvexHullLib.obj
 0004:00001b90       $pdata$?growAndPushBack@?$Array@PEAUQuickHullHalfEdge@local@@VNamedAllocator@shdfnd@physx@@@shdfnd@physx@@IEAAAEAPEAUQuickHullHalfEdge@local@@AEBQEAU45@@Z 000000018003bb90     QuickHullConvexHullLib.obj
 0004:00001b9c       $pdata$?recreate@?$Array@PEAUQuickHullHalfEdge@local@@VNamedAllocator@shdfnd@physx@@@shdfnd@physx@@IEAAXI@Z 000000018003bb9c     QuickHullConvexHullLib.obj
 0004:00001ba8       $pdata$0$?recreate@?$Array@PEAUQuickHullHalfEdge@local@@VNamedAllocator@shdfnd@physx@@@shdfnd@physx@@IEAAXI@Z 000000018003bba8     QuickHullConvexHullLib.obj
 0004:00001bb4       $pdata$1$?recreate@?$Array@PEAUQuickHullHalfEdge@local@@VNamedAllocator@shdfnd@physx@@@shdfnd@physx@@IEAAXI@Z 000000018003bbb4     QuickHullConvexHullLib.obj
 0004:00001bc0       $pdata$?init@?$MemBlock@UQuickHullFace@local@@$00@local@@QEAAXI@Z 000000018003bbc0     QuickHullConvexHullLib.obj
 0004:00001bcc       $pdata$??1?$MemBlock@UQuickHullFace@local@@$00@local@@QEAA@XZ 000000018003bbcc     QuickHullConvexHullLib.obj
 0004:00001bd8       $pdata$0$??1?$MemBlock@UQuickHullFace@local@@$00@local@@QEAA@XZ 000000018003bbd8     QuickHullConvexHullLib.obj
 0004:00001be4       $pdata$1$??1?$MemBlock@UQuickHullFace@local@@$00@local@@QEAA@XZ 000000018003bbe4     QuickHullConvexHullLib.obj
 0004:00001bf0       $pdata$2$??1?$MemBlock@UQuickHullFace@local@@$00@local@@QEAA@XZ 000000018003bbf0     QuickHullConvexHullLib.obj
 0004:00001bfc       $pdata$3$??1?$MemBlock@UQuickHullFace@local@@$00@local@@QEAA@XZ 000000018003bbfc     QuickHullConvexHullLib.obj
 0004:00001c08       $pdata$?getFreeItem@?$MemBlock@UQuickHullFace@local@@$00@local@@QEAAPEAUQuickHullFace@2@XZ 000000018003bc08     QuickHullConvexHullLib.obj
 0004:00001c14       $pdata$?growAndPushBack@?$Array@PEAUQuickHullFace@local@@VNamedAllocator@shdfnd@physx@@@shdfnd@physx@@IEAAAEAPEAUQuickHullFace@local@@AEBQEAU45@@Z 000000018003bc14     QuickHullConvexHullLib.obj
 0004:00001c20       $pdata$?recreate@?$Array@PEAUQuickHullFace@local@@VNamedAllocator@shdfnd@physx@@@shdfnd@physx@@IEAAXI@Z 000000018003bc20     QuickHullConvexHullLib.obj
 0004:00001c2c       $pdata$0$?recreate@?$Array@PEAUQuickHullFace@local@@VNamedAllocator@shdfnd@physx@@@shdfnd@physx@@IEAAXI@Z 000000018003bc2c     QuickHullConvexHullLib.obj
 0004:00001c38       $pdata$1$?recreate@?$Array@PEAUQuickHullFace@local@@VNamedAllocator@shdfnd@physx@@@shdfnd@physx@@IEAAXI@Z 000000018003bc38     QuickHullConvexHullLib.obj
 0004:00001c44       $pdata$?growAndPushBack@?$Array@PEAUQuickHullVertex@local@@VNamedAllocator@shdfnd@physx@@@shdfnd@physx@@IEAAAEAPEAUQuickHullVertex@local@@AEBQEAU45@@Z 000000018003bc44     QuickHullConvexHullLib.obj
 0004:00001c50       $pdata$?recreate@?$Array@PEAUQuickHullVertex@local@@VNamedAllocator@shdfnd@physx@@@shdfnd@physx@@IEAAXI@Z 000000018003bc50     QuickHullConvexHullLib.obj
 0004:00001c5c       $pdata$0$?recreate@?$Array@PEAUQuickHullVertex@local@@VNamedAllocator@shdfnd@physx@@@shdfnd@physx@@IEAAXI@Z 000000018003bc5c     QuickHullConvexHullLib.obj
 0004:00001c68       $pdata$1$?recreate@?$Array@PEAUQuickHullVertex@local@@VNamedAllocator@shdfnd@physx@@@shdfnd@physx@@IEAAXI@Z 000000018003bc68     QuickHullConvexHullLib.obj
 0004:00001c74       $pdata$?growAndPushBack@?$Array@UExpandPoint@local@@VNamedAllocator@shdfnd@physx@@@shdfnd@physx@@IEAAAEAUExpandPoint@local@@AEBU45@@Z 000000018003bc74     QuickHullConvexHullLib.obj
 0004:00001c80       $pdata$0$?growAndPushBack@?$Array@UExpandPoint@local@@VNamedAllocator@shdfnd@physx@@@shdfnd@physx@@IEAAAEAUExpandPoint@local@@AEBU45@@Z 000000018003bc80     QuickHullConvexHullLib.obj
 0004:00001c8c       $pdata$1$?growAndPushBack@?$Array@UExpandPoint@local@@VNamedAllocator@shdfnd@physx@@@shdfnd@physx@@IEAAAEAUExpandPoint@local@@AEBU45@@Z 000000018003bc8c     QuickHullConvexHullLib.obj
 0004:00001c98       $pdata$2$?growAndPushBack@?$Array@UExpandPoint@local@@VNamedAllocator@shdfnd@physx@@@shdfnd@physx@@IEAAAEAUExpandPoint@local@@AEBU45@@Z 000000018003bc98     QuickHullConvexHullLib.obj
 0004:00001ca4       $pdata$3$?growAndPushBack@?$Array@UExpandPoint@local@@VNamedAllocator@shdfnd@physx@@@shdfnd@physx@@IEAAAEAUExpandPoint@local@@AEBU45@@Z 000000018003bca4     QuickHullConvexHullLib.obj
 0004:00001cb0       $pdata$?recreate@?$Array@UExpandPoint@local@@VNamedAllocator@shdfnd@physx@@@shdfnd@physx@@IEAAXI@Z 000000018003bcb0     QuickHullConvexHullLib.obj
 0004:00001cbc       $pdata$0$?recreate@?$Array@UExpandPoint@local@@VNamedAllocator@shdfnd@physx@@@shdfnd@physx@@IEAAXI@Z 000000018003bcbc     QuickHullConvexHullLib.obj
 0004:00001cc8       $pdata$1$?recreate@?$Array@UExpandPoint@local@@VNamedAllocator@shdfnd@physx@@@shdfnd@physx@@IEAAXI@Z 000000018003bcc8     QuickHullConvexHullLib.obj
 0004:00001cd4       $pdata$?computeVolumeIntegrals@physx@@YA_NAEBVPxSimpleTriangleMesh@1@MAEAUPxIntegrals@1@@Z 000000018003bcd4     VolumeIntegration.obj
 0004:00001ce0       $pdata$?computeVolumeIntegralsEberly@physx@@YA_NAEBVPxConvexMeshDesc@1@MAEAUPxIntegrals@1@AEBVPxVec3@1@@Z 000000018003bce0     VolumeIntegration.obj
 0004:00001cec       $pdata$?computeVolumeIntegralsEberlySIMD@physx@@YA_NAEBVPxConvexMeshDesc@1@MAEAUPxIntegrals@1@AEBVPxVec3@1@@Z 000000018003bcec     VolumeIntegration.obj
 0004:00001cf8       $pdata$?computeVolumeIntegrals@VolumeIntegrator@?A0x3236b418@physx@@QEAA_NAEAUPxIntegrals@3@@Z 000000018003bcf8     VolumeIntegration.obj
 0004:00001d04       $pdata$?computeProjectionIntegrals@VolumeIntegrator@?A0x3236b418@physx@@AEAAXAEBUFace@123@@Z 000000018003bd04     VolumeIntegration.obj
 0004:00001d10       $pdata$?computeFaceIntegrals@VolumeIntegrator@?A0x3236b418@physx@@AEAAXAEBUFace@123@@Z 000000018003bd10     VolumeIntegration.obj
 0004:00001d1c       $pdata$?computeVolumeIntegralsSIMD@VolumeIntegratorEberly@?A0x3236b418@physx@@QEAA_NAEAUPxIntegrals@3@AEBVPxVec3@3@@Z 000000018003bd1c     VolumeIntegration.obj
 0004:00001d28       $pdata$0$?computeVolumeIntegralsSIMD@VolumeIntegratorEberly@?A0x3236b418@physx@@QEAA_NAEAUPxIntegrals@3@AEBVPxVec3@3@@Z 000000018003bd28     VolumeIntegration.obj
 0004:00001d34       $pdata$2$?computeVolumeIntegralsSIMD@VolumeIntegratorEberly@?A0x3236b418@physx@@QEAA_NAEAUPxIntegrals@3@AEBVPxVec3@3@@Z 000000018003bd34     VolumeIntegration.obj
 0004:00001d40       $pdata$3$?computeVolumeIntegralsSIMD@VolumeIntegratorEberly@?A0x3236b418@physx@@QEAA_NAEAUPxIntegrals@3@AEBVPxVec3@3@@Z 000000018003bd40     VolumeIntegration.obj
 0004:00001d4c       $pdata$4$?computeVolumeIntegralsSIMD@VolumeIntegratorEberly@?A0x3236b418@physx@@QEAA_NAEAUPxIntegrals@3@AEBVPxVec3@3@@Z 000000018003bd4c     VolumeIntegration.obj
 0004:00001d58       $pdata$?computeVolumeIntegrals@VolumeIntegratorEberly@?A0x3236b418@physx@@QEAA_NAEAUPxIntegrals@3@AEBVPxVec3@3@@Z 000000018003bd58     VolumeIntegration.obj
 0004:00001d64       $pdata$0$?computeVolumeIntegrals@VolumeIntegratorEberly@?A0x3236b418@physx@@QEAA_NAEAUPxIntegrals@3@AEBVPxVec3@3@@Z 000000018003bd64     VolumeIntegration.obj
 0004:00001d70       $pdata$6$?computeVolumeIntegrals@VolumeIntegratorEberly@?A0x3236b418@physx@@QEAA_NAEAUPxIntegrals@3@AEBVPxVec3@3@@Z 000000018003bd70     VolumeIntegration.obj
 0004:00001d7c       $pdata$7$?computeVolumeIntegrals@VolumeIntegratorEberly@?A0x3236b418@physx@@QEAA_NAEAUPxIntegrals@3@AEBVPxVec3@3@@Z 000000018003bd7c     VolumeIntegration.obj
 0004:00001d88       $pdata$8$?computeVolumeIntegrals@VolumeIntegratorEberly@?A0x3236b418@physx@@QEAA_NAEAUPxIntegrals@3@AEBVPxVec3@3@@Z 000000018003bd88     VolumeIntegration.obj
 0004:00001d94       $pdata$?delayHook@@YAP6A_JXZIPEAUDelayLoadInfo@@@Z 000000018003bd94     WindowsCookingDelayLoadHook.obj
 0004:00001da0       $pdata$1$?delayHook@@YAP6A_JXZIPEAUDelayLoadInfo@@@Z 000000018003bda0     WindowsCookingDelayLoadHook.obj
 0004:00001dac       $pdata$3$?delayHook@@YAP6A_JXZIPEAUDelayLoadInfo@@@Z 000000018003bdac     WindowsCookingDelayLoadHook.obj
 0004:00001db8       $pdata$5$?delayHook@@YAP6A_JXZIPEAUDelayLoadInfo@@@Z 000000018003bdb8     WindowsCookingDelayLoadHook.obj
 0004:00001dc4       $pdata$6$?delayHook@@YAP6A_JXZIPEAUDelayLoadInfo@@@Z 000000018003bdc4     WindowsCookingDelayLoadHook.obj
 0004:00001de8       $pdata$__FUnloadDelayLoadedDLL2 000000018003bde8     Delayimp:delayhlp.obj
 0004:00001df4       $pdata$__HrLoadAllImportsForDll 000000018003bdf4     Delayimp:delayhlp.obj
 0004:00001e00       $pdata$?DloadGetSRWLockFunctionPointers@@YAEXZ 000000018003be00     Delayimp:delayhlp.obj
 0004:00001e0c       $pdata$?DloadLock@@YAXXZ   000000018003be0c     Delayimp:delayhlp.obj
 0004:00001e18       $pdata$?DloadUnlock@@YAXXZ 000000018003be18     Delayimp:delayhlp.obj
 0004:00001e24       $pdata$?DloadObtainSection@@YAPEAXPEAK0@Z 000000018003be24     Delayimp:delayhlp.obj
 0004:00001e30       $pdata$?DloadMakePermanentImageCommit@@YAXPEAX_K@Z 000000018003be30     Delayimp:delayhlp.obj
 0004:00001e3c       $pdata$?DloadProtectSection@@YAXKPEAK@Z 000000018003be3c     Delayimp:delayhlp.obj
 0004:00001e48       $pdata$?DloadAcquireSectionWriteAccess@@YAXXZ 000000018003be48     Delayimp:delayhlp.obj
 0004:00001e54       $pdata$?DloadReleaseSectionWriteAccess@@YAXXZ 000000018003be54     Delayimp:delayhlp.obj
 0004:00001e60       $pdata$?PiddFromDllName@@YAPEBUImgDelayDescr@@PEBD@Z 000000018003be60     Delayimp:delayhlp.obj
 0004:00001e6c       $pdata$__delayLoadHelper2  000000018003be6c     Delayimp:delayhlp.obj
 0004:00001e78       $pdata$??_Gtype_info@@UEAAPEAXI@Z 000000018003be78     MSVCRT:std_type_info_static.obj
 0004:00001e90       $pdata$?dllmain_crt_process_attach@@YAHQEAUHINSTANCE__@@QEAX@Z 000000018003be90     MSVCRT:dll_dllmain.obj
 0004:00001e9c       $pdata$?fin$0@?0??dllmain_crt_process_attach@@YAHQEAUHINSTANCE__@@QEAX@Z@4HA 000000018003be9c     MSVCRT:dll_dllmain.obj
 0004:00001ea8       $pdata$?dllmain_crt_process_detach@@YAH_N@Z 000000018003bea8     MSVCRT:dll_dllmain.obj
 0004:00001eb4       $pdata$?fin$0@?0??dllmain_crt_process_detach@@YAH_N@Z@4HA 000000018003beb4     MSVCRT:dll_dllmain.obj
 0004:00001ec0       $pdata$?dllmain_crt_dispatch@@YAHQEAUHINSTANCE__@@KQEAX@Z 000000018003bec0     MSVCRT:dll_dllmain.obj
 0004:00001ecc       $pdata$?dllmain_dispatch@@YAHQEAUHINSTANCE__@@KQEAX@Z 000000018003becc     MSVCRT:dll_dllmain.obj
 0004:00001ed8       $pdata$?filt$0@?0??dllmain_dispatch@@YAHQEAUHINSTANCE__@@KQEAX@Z@4HA 000000018003bed8     MSVCRT:dll_dllmain.obj
 0004:00001ee4       $pdata$_DllMainCRTStartup  000000018003bee4     MSVCRT:dll_dllmain.obj
 0004:00001efc       $pdata$__security_init_cookie 000000018003befc     MSVCRT:gs_support.obj
 0004:00001f08       $pdata$__get_entropy       000000018003bf08     MSVCRT:gs_support.obj
 0004:00001f14       $pdata$DllMain             000000018003bf14     MSVCRT:dll_dllmain_stub.obj
 0004:00001f20       $pdata$__scrt_initialize_default_local_stdio_options 000000018003bf20     MSVCRT:default_local_stdio_options.obj
 0004:00001f2c       $pdata$atexit              000000018003bf2c     MSVCRT:utility.obj
 0004:00001f38       $pdata$_onexit             000000018003bf38     MSVCRT:utility.obj
 0004:00001f44       $pdata$__scrt_is_nonwritable_in_current_image 000000018003bf44     MSVCRT:utility.obj
 0004:00001f50       $pdata$__scrt_is_nonwritable_in_current_image$filt$0 000000018003bf50     MSVCRT:utility.obj
 0004:00001f5c       $pdata$__scrt_acquire_startup_lock 000000018003bf5c     MSVCRT:utility.obj
 0004:00001f68       $pdata$__scrt_release_startup_lock 000000018003bf68     MSVCRT:utility.obj
 0004:00001f74       $pdata$__scrt_initialize_crt 000000018003bf74     MSVCRT:utility.obj
 0004:00001f80       $pdata$__scrt_uninitialize_crt 000000018003bf80     MSVCRT:utility.obj
 0004:00001f8c       $pdata$__scrt_initialize_onexit_tables 000000018003bf8c     MSVCRT:utility.obj
 0004:00001f98       $pdata$__scrt_dllmain_exception_filter 000000018003bf98     MSVCRT:utility.obj
 0004:00001fa4       $pdata$__scrt_dllmain_before_initialize_c 000000018003bfa4     MSVCRT:utility.obj
 0004:00001fb0       $pdata$__scrt_dllmain_after_initialize_c 000000018003bfb0     MSVCRT:utility.obj
 0004:00001fbc       $pdata$__scrt_dllmain_uninitialize_c 000000018003bfbc     MSVCRT:utility.obj
 0004:00001fc8       $pdata$__scrt_dllmain_uninitialize_critical 000000018003bfc8     MSVCRT:utility.obj
 0004:00001fd4       $pdata$__scrt_dllmain_crt_thread_attach 000000018003bfd4     MSVCRT:utility.obj
 0004:00001fe0       $pdata$__scrt_dllmain_crt_thread_detach 000000018003bfe0     MSVCRT:utility.obj
 0004:00001fec       $pdata$?configure_argv@__scrt_narrow_argv_policy@@SAHXZ 000000018003bfec     MSVCRT:utility.obj
 0004:00001ff8       $pdata$__scrt_get_show_window_mode 000000018003bff8     MSVCRT:utility_desktop.obj
 0004:00002004       $pdata$__scrt_is_managed_app 000000018003c004     MSVCRT:utility_desktop.obj
 0004:00002010       $pdata$__scrt_fastfail     000000018003c010     MSVCRT:utility_desktop.obj
 0004:0000201c       $pdata$__scrt_unhandled_exception_filter 000000018003c01c     MSVCRT:utility_desktop.obj
 0004:00002028       $pdata$_RTC_Initialize     000000018003c028     MSVCRT:initsect.obj
 0004:00002034       $pdata$_RTC_Terminate      000000018003c034     MSVCRT:initsect.obj
 0004:0000204c       $pdata$__isa_available_init 000000018003c04c     MSVCRT:cpu_disp.obj
 0005:00000000       __spec_table               000000018003d000     MSVCRT:svml_ssinf4_sse2.obj
 0005:00000560       MMSA7                      000000018003d560     MSVCRT:svml_ssinf4_sse2.obj
 0005:00000570       MMSA3                      000000018003d570     MSVCRT:svml_ssinf4_sse2.obj
 0005:00000580       MMSA5                      000000018003d580     MSVCRT:svml_ssinf4_sse2.obj
 0005:00000590       MMSA9                      000000018003d590     MSVCRT:svml_ssinf4_sse2.obj
 0005:000005a0       MMSPI3                     000000018003d5a0     MSVCRT:svml_ssinf4_sse2.obj
 0005:000005b0       MMSPI4                     000000018003d5b0     MSVCRT:svml_ssinf4_sse2.obj
 0005:000005c0       MMSPI2                     000000018003d5c0     MSVCRT:svml_ssinf4_sse2.obj
 0005:000005d0       MMSPI1                     000000018003d5d0     MSVCRT:svml_ssinf4_sse2.obj
 0005:000005e0       MMIHUGE                    000000018003d5e0     MSVCRT:svml_ssinf4_sse2.obj
 0005:000005f0       MMSINVPI                   000000018003d5f0     MSVCRT:svml_ssinf4_sse2.obj
 0005:00000600       MMIABSMASK                 000000018003d600     MSVCRT:svml_ssinf4_sse2.obj
 0005:00000610       dbSignMask                 000000018003d610     MSVCRT:svml_ssinf4_sse2.obj
 0005:00000620       PI02C_4                    000000018003d620     MSVCRT:svml_ssinf4_sse2.obj
 0005:00000630       PI02C_3                    000000018003d630     MSVCRT:svml_ssinf4_sse2.obj
 0005:00000640       PI02C_2                    000000018003d640     MSVCRT:svml_ssinf4_sse2.obj
 0005:00000650       PI02C_1                    000000018003d650     MSVCRT:svml_ssinf4_sse2.obj
 0005:00000660       PI02C_0                    000000018003d660     MSVCRT:svml_ssinf4_sse2.obj
 0005:00000670       dbRS                       000000018003d670     MSVCRT:svml_ssinf4_sse2.obj
 0005:00000680       MSK_LOW_BIT                000000018003d680     MSVCRT:svml_ssinf4_sse2.obj
 0005:00000690       dbiOne                     000000018003d690     MSVCRT:svml_ssinf4_sse2.obj
 0005:000006a0       dbInvPio2                  000000018003d6a0     MSVCRT:svml_ssinf4_sse2.obj
 0005:000006b0       flAllOnes                  000000018003d6b0     MSVCRT:svml_ssinf4_sse2.obj
 0005:000006c0       flTwoPow30                 000000018003d6c0     MSVCRT:svml_ssinf4_sse2.obj
 0005:000006d0       MMISIGNMASK                000000018003d6d0     MSVCRT:svml_ssinf4_sse2.obj
 0006:000000a0       $R000000                   000000018003e0a0     PhysXCooking.res
 0006:000003d0       $R000330                   000000018003e3d0     PhysXCooking.res
